; Listing generated by Microsoft (R) Optimizing Compiler Version 18.00.40629.0 

	TITLE	E:\mywork\client\PC2.0TRUNK\PC2.0\third_party\libAMRPlayer\AMR\bits2prm.c
	.686P
	.XMM
	include listing.inc
	.model	flat

INCLUDELIB MSVCRTD
INCLUDELIB OLDNAMES

PUBLIC	_bits2prm_id
_DATA	SEGMENT
_bitno	DD	FLAT:_bitno_MR475
	DD	FLAT:_bitno_MR515
	DD	FLAT:_bitno_MR59
	DD	FLAT:_bitno_MR67
	DD	FLAT:_bitno_MR74
	DD	FLAT:_bitno_MR795
	DD	FLAT:_bitno_MR102
	DD	FLAT:_bitno_MR122
	DD	FLAT:_bitno_MRDTX
_toc_byte DB	04H
	DB	0cH
	DB	014H
	DB	01cH
	DB	024H
	DB	02cH
	DB	034H
	DB	03cH
	DB	044H
	DB	04cH
	DB	054H
	DB	05cH
	DB	064H
	DB	06cH
	DB	074H
	DB	07cH
_unpacked_size DW 05fH
	DW	067H
	DW	076H
	DW	086H
	DW	094H
	DW	09fH
	DW	0ccH
	DW	0f4H
	DW	023H
	DW	00H
	DW	00H
	DW	00H
	DW	00H
	DW	00H
	DW	00H
	DW	00H
_packed_size DW	0dH
	DW	0eH
	DW	010H
	DW	012H
	DW	014H
	DW	015H
	DW	01bH
	DW	020H
	DW	06H
	DW	00H
	DW	00H
	DW	00H
	DW	00H
	DW	00H
	DW	00H
	DW	01H
_unused_size DW	01H
	DW	01H
	DW	02H
	DW	02H
	DW	04H
	DW	01H
	DW	04H
	DW	04H
	DW	01H
	DW	00H
	DW	00H
	DW	00H
	DW	00H
	DW	00H
	DW	00H
	DW	00H
	ORG $+4
_sort_475 DW	00H
	DW	01H
	DW	02H
	DW	03H
	DW	04H
	DW	05H
	DW	06H
	DW	07H
	DW	08H
	DW	09H
	DW	0aH
	DW	0bH
	DW	0cH
	DW	0dH
	DW	0eH
	DW	0fH
	DW	017H
	DW	018H
	DW	019H
	DW	01aH
	DW	01bH
	DW	01cH
	DW	030H
	DW	031H
	DW	03dH
	DW	03eH
	DW	052H
	DW	053H
	DW	02fH
	DW	02eH
	DW	02dH
	DW	02cH
	DW	051H
	DW	050H
	DW	04fH
	DW	04eH
	DW	011H
	DW	012H
	DW	014H
	DW	016H
	DW	04dH
	DW	04cH
	DW	04bH
	DW	04aH
	DW	01dH
	DW	01eH
	DW	02bH
	DW	02aH
	DW	029H
	DW	028H
	DW	026H
	DW	027H
	DW	010H
	DW	013H
	DW	015H
	DW	032H
	DW	033H
	DW	03bH
	DW	03cH
	DW	03fH
	DW	040H
	DW	048H
	DW	049H
	DW	054H
	DW	055H
	DW	05dH
	DW	05eH
	DW	020H
	DW	021H
	DW	023H
	DW	024H
	DW	035H
	DW	036H
	DW	038H
	DW	039H
	DW	042H
	DW	043H
	DW	045H
	DW	046H
	DW	057H
	DW	058H
	DW	05aH
	DW	05bH
	DW	022H
	DW	037H
	DW	044H
	DW	059H
	DW	025H
	DW	03aH
	DW	047H
	DW	05cH
	DW	01fH
	DW	034H
	DW	041H
	DW	056H
	ORG $+2
_sort_515 DW	07H
	DW	06H
	DW	05H
	DW	04H
	DW	03H
	DW	02H
	DW	01H
	DW	00H
	DW	0fH
	DW	0eH
	DW	0dH
	DW	0cH
	DW	0bH
	DW	0aH
	DW	09H
	DW	08H
	DW	017H
	DW	018H
	DW	019H
	DW	01aH
	DW	01bH
	DW	02eH
	DW	041H
	DW	054H
	DW	02dH
	DW	02cH
	DW	02bH
	DW	040H
	DW	03fH
	DW	03eH
	DW	053H
	DW	052H
	DW	051H
	DW	066H
	DW	065H
	DW	064H
	DW	02aH
	DW	03dH
	DW	050H
	DW	063H
	DW	01cH
	DW	02fH
	DW	042H
	DW	055H
	DW	012H
	DW	029H
	DW	03cH
	DW	04fH
	DW	062H
	DW	01dH
	DW	030H
	DW	043H
	DW	011H
	DW	014H
	DW	016H
	DW	028H
	DW	03bH
	DW	04eH
	DW	061H
	DW	015H
	DW	01eH
	DW	031H
	DW	044H
	DW	056H
	DW	013H
	DW	010H
	DW	057H
	DW	027H
	DW	026H
	DW	03aH
	DW	039H
	DW	04dH
	DW	023H
	DW	036H
	DW	049H
	DW	05cH
	DW	04cH
	DW	060H
	DW	05fH
	DW	024H
	DW	037H
	DW	04aH
	DW	05dH
	DW	020H
	DW	033H
	DW	021H
	DW	034H
	DW	046H
	DW	047H
	DW	059H
	DW	05aH
	DW	01fH
	DW	032H
	DW	045H
	DW	058H
	DW	025H
	DW	038H
	DW	04bH
	DW	05eH
	DW	022H
	DW	035H
	DW	048H
	DW	05bH
	ORG $+2
_sort_59 DW	00H
	DW	01H
	DW	04H
	DW	05H
	DW	03H
	DW	06H
	DW	07H
	DW	02H
	DW	0dH
	DW	0fH
	DW	08H
	DW	09H
	DW	0bH
	DW	0cH
	DW	0eH
	DW	0aH
	DW	010H
	DW	01cH
	DW	04aH
	DW	01dH
	DW	04bH
	DW	01bH
	DW	049H
	DW	01aH
	DW	048H
	DW	01eH
	DW	04cH
	DW	033H
	DW	061H
	DW	032H
	DW	047H
	DW	060H
	DW	075H
	DW	01fH
	DW	04dH
	DW	034H
	DW	062H
	DW	031H
	DW	046H
	DW	05fH
	DW	074H
	DW	035H
	DW	063H
	DW	020H
	DW	04eH
	DW	021H
	DW	04fH
	DW	030H
	DW	045H
	DW	05eH
	DW	073H
	DW	02fH
	DW	044H
	DW	05dH
	DW	072H
	DW	02eH
	DW	043H
	DW	05cH
	DW	071H
	DW	013H
	DW	015H
	DW	017H
	DW	016H
	DW	012H
	DW	011H
	DW	014H
	DW	018H
	DW	06fH
	DW	02bH
	DW	059H
	DW	06eH
	DW	040H
	DW	041H
	DW	02cH
	DW	05aH
	DW	019H
	DW	02dH
	DW	042H
	DW	05bH
	DW	070H
	DW	036H
	DW	064H
	DW	028H
	DW	03dH
	DW	056H
	DW	06bH
	DW	027H
	DW	03cH
	DW	055H
	DW	06aH
	DW	024H
	DW	039H
	DW	052H
	DW	067H
	DW	023H
	DW	038H
	DW	051H
	DW	066H
	DW	022H
	DW	037H
	DW	050H
	DW	065H
	DW	02aH
	DW	03fH
	DW	058H
	DW	06dH
	DW	029H
	DW	03eH
	DW	057H
	DW	06cH
	DW	026H
	DW	03bH
	DW	054H
	DW	069H
	DW	025H
	DW	03aH
	DW	053H
	DW	068H
	ORG $+4
_sort_67 DW	00H
	DW	01H
	DW	04H
	DW	03H
	DW	05H
	DW	06H
	DW	0dH
	DW	07H
	DW	02H
	DW	08H
	DW	09H
	DW	0bH
	DW	0fH
	DW	0cH
	DW	0eH
	DW	0aH
	DW	01cH
	DW	052H
	DW	01dH
	DW	053H
	DW	01bH
	DW	051H
	DW	01aH
	DW	050H
	DW	01eH
	DW	054H
	DW	010H
	DW	037H
	DW	06dH
	DW	038H
	DW	06eH
	DW	01fH
	DW	055H
	DW	039H
	DW	06fH
	DW	030H
	DW	049H
	DW	066H
	DW	07fH
	DW	020H
	DW	056H
	DW	033H
	DW	04cH
	DW	069H
	DW	082H
	DW	034H
	DW	04dH
	DW	06aH
	DW	083H
	DW	03aH
	DW	070H
	DW	021H
	DW	057H
	DW	013H
	DW	017H
	DW	035H
	DW	04eH
	DW	06bH
	DW	084H
	DW	015H
	DW	016H
	DW	012H
	DW	011H
	DW	014H
	DW	018H
	DW	019H
	DW	032H
	DW	04bH
	DW	068H
	DW	081H
	DW	02fH
	DW	048H
	DW	065H
	DW	07eH
	DW	036H
	DW	04fH
	DW	06cH
	DW	085H
	DW	02eH
	DW	047H
	DW	064H
	DW	07dH
	DW	080H
	DW	067H
	DW	04aH
	DW	031H
	DW	02dH
	DW	046H
	DW	063H
	DW	07cH
	DW	02aH
	DW	043H
	DW	060H
	DW	079H
	DW	027H
	DW	040H
	DW	05dH
	DW	076H
	DW	026H
	DW	03fH
	DW	05cH
	DW	075H
	DW	023H
	DW	03cH
	DW	059H
	DW	072H
	DW	022H
	DW	03bH
	DW	058H
	DW	071H
	DW	02cH
	DW	045H
	DW	062H
	DW	07bH
	DW	02bH
	DW	044H
	DW	061H
	DW	07aH
	DW	029H
	DW	042H
	DW	05fH
	DW	078H
	DW	028H
	DW	041H
	DW	05eH
	DW	077H
	DW	025H
	DW	03eH
	DW	05bH
	DW	074H
	DW	024H
	DW	03dH
	DW	05aH
	DW	073H
	ORG $+4
_sort_74 DW	00H
	DW	01H
	DW	02H
	DW	03H
	DW	04H
	DW	05H
	DW	06H
	DW	07H
	DW	08H
	DW	09H
	DW	0aH
	DW	0bH
	DW	0cH
	DW	0dH
	DW	0eH
	DW	0fH
	DW	010H
	DW	01aH
	DW	057H
	DW	01bH
	DW	058H
	DW	01cH
	DW	059H
	DW	01dH
	DW	05aH
	DW	01eH
	DW	05bH
	DW	033H
	DW	050H
	DW	070H
	DW	08dH
	DW	034H
	DW	051H
	DW	071H
	DW	08eH
	DW	036H
	DW	053H
	DW	073H
	DW	090H
	DW	037H
	DW	054H
	DW	074H
	DW	091H
	DW	03aH
	DW	077H
	DW	03bH
	DW	078H
	DW	015H
	DW	016H
	DW	017H
	DW	011H
	DW	012H
	DW	013H
	DW	01fH
	DW	03cH
	DW	05cH
	DW	079H
	DW	038H
	DW	055H
	DW	075H
	DW	092H
	DW	014H
	DW	018H
	DW	019H
	DW	032H
	DW	04fH
	DW	06fH
	DW	08cH
	DW	039H
	DW	056H
	DW	076H
	DW	093H
	DW	031H
	DW	04eH
	DW	06eH
	DW	08bH
	DW	030H
	DW	04dH
	DW	035H
	DW	052H
	DW	072H
	DW	08fH
	DW	06dH
	DW	08aH
	DW	02fH
	DW	04cH
	DW	06cH
	DW	089H
	DW	020H
	DW	021H
	DW	03dH
	DW	03eH
	DW	05dH
	DW	05eH
	DW	07aH
	DW	07bH
	DW	029H
	DW	02aH
	DW	02bH
	DW	02cH
	DW	02dH
	DW	02eH
	DW	046H
	DW	047H
	DW	048H
	DW	049H
	DW	04aH
	DW	04bH
	DW	066H
	DW	067H
	DW	068H
	DW	069H
	DW	06aH
	DW	06bH
	DW	083H
	DW	084H
	DW	085H
	DW	086H
	DW	087H
	DW	088H
	DW	022H
	DW	03fH
	DW	05fH
	DW	07cH
	DW	023H
	DW	040H
	DW	060H
	DW	07dH
	DW	024H
	DW	041H
	DW	061H
	DW	07eH
	DW	025H
	DW	042H
	DW	062H
	DW	07fH
	DW	026H
	DW	043H
	DW	063H
	DW	080H
	DW	027H
	DW	044H
	DW	064H
	DW	081H
	DW	028H
	DW	045H
	DW	065H
	DW	082H
_sort_795 DW	08H
	DW	07H
	DW	06H
	DW	05H
	DW	04H
	DW	03H
	DW	02H
	DW	0eH
	DW	010H
	DW	09H
	DW	0aH
	DW	0cH
	DW	0dH
	DW	0fH
	DW	0bH
	DW	011H
	DW	014H
	DW	016H
	DW	018H
	DW	017H
	DW	013H
	DW	012H
	DW	015H
	DW	038H
	DW	058H
	DW	07aH
	DW	09aH
	DW	039H
	DW	059H
	DW	07bH
	DW	09bH
	DW	03aH
	DW	05aH
	DW	07cH
	DW	09cH
	DW	034H
	DW	054H
	DW	076H
	DW	096H
	DW	035H
	DW	055H
	DW	077H
	DW	097H
	DW	01bH
	DW	05dH
	DW	01cH
	DW	05eH
	DW	01dH
	DW	05fH
	DW	01eH
	DW	060H
	DW	01fH
	DW	061H
	DW	03dH
	DW	07fH
	DW	03eH
	DW	080H
	DW	03fH
	DW	081H
	DW	03bH
	DW	05bH
	DW	07dH
	DW	09dH
	DW	020H
	DW	062H
	DW	040H
	DW	082H
	DW	01H
	DW	00H
	DW	019H
	DW	01aH
	DW	021H
	DW	063H
	DW	022H
	DW	064H
	DW	041H
	DW	083H
	DW	042H
	DW	084H
	DW	036H
	DW	056H
	DW	078H
	DW	098H
	DW	03cH
	DW	05cH
	DW	07eH
	DW	09eH
	DW	037H
	DW	057H
	DW	079H
	DW	099H
	DW	075H
	DW	074H
	DW	073H
	DW	02eH
	DW	04eH
	DW	070H
	DW	090H
	DW	02bH
	DW	04bH
	DW	06dH
	DW	08dH
	DW	028H
	DW	048H
	DW	06aH
	DW	08aH
	DW	024H
	DW	044H
	DW	066H
	DW	086H
	DW	072H
	DW	095H
	DW	094H
	DW	093H
	DW	092H
	DW	053H
	DW	052H
	DW	051H
	DW	050H
	DW	033H
	DW	032H
	DW	031H
	DW	030H
	DW	02fH
	DW	02dH
	DW	02cH
	DW	02aH
	DW	027H
	DW	023H
	DW	04fH
	DW	04dH
	DW	04cH
	DW	04aH
	DW	047H
	DW	043H
	DW	071H
	DW	06fH
	DW	06eH
	DW	06cH
	DW	069H
	DW	065H
	DW	091H
	DW	08fH
	DW	08eH
	DW	08cH
	DW	089H
	DW	085H
	DW	029H
	DW	049H
	DW	06bH
	DW	08bH
	DW	025H
	DW	045H
	DW	067H
	DW	087H
	DW	026H
	DW	046H
	DW	068H
	DW	088H
	ORG $+2
_sort_102 DW	07H
	DW	06H
	DW	05H
	DW	04H
	DW	03H
	DW	02H
	DW	01H
	DW	00H
	DW	010H
	DW	0fH
	DW	0eH
	DW	0dH
	DW	0cH
	DW	0bH
	DW	0aH
	DW	09H
	DW	08H
	DW	01aH
	DW	01bH
	DW	01cH
	DW	01dH
	DW	01eH
	DW	01fH
	DW	073H
	DW	074H
	DW	075H
	DW	076H
	DW	077H
	DW	078H
	DW	048H
	DW	049H
	DW	0a1H
	DW	0a2H
	DW	041H
	DW	044H
	DW	045H
	DW	06cH
	DW	06fH
	DW	070H
	DW	09aH
	DW	09dH
	DW	09eH
	DW	0c5H
	DW	0c8H
	DW	0c9H
	DW	020H
	DW	021H
	DW	079H
	DW	07aH
	DW	04aH
	DW	04bH
	DW	0a3H
	DW	0a4H
	DW	042H
	DW	06dH
	DW	09bH
	DW	0c6H
	DW	013H
	DW	017H
	DW	015H
	DW	016H
	DW	012H
	DW	011H
	DW	014H
	DW	018H
	DW	019H
	DW	025H
	DW	024H
	DW	023H
	DW	022H
	DW	050H
	DW	04fH
	DW	04eH
	DW	04dH
	DW	07eH
	DW	07dH
	DW	07cH
	DW	07bH
	DW	0a9H
	DW	0a8H
	DW	0a7H
	DW	0a6H
	DW	046H
	DW	043H
	DW	047H
	DW	071H
	DW	06eH
	DW	072H
	DW	09fH
	DW	09cH
	DW	0a0H
	DW	0caH
	DW	0c7H
	DW	0cbH
	DW	04cH
	DW	0a5H
	DW	051H
	DW	052H
	DW	05cH
	DW	05bH
	DW	05dH
	DW	053H
	DW	05fH
	DW	055H
	DW	054H
	DW	05eH
	DW	065H
	DW	066H
	DW	060H
	DW	068H
	DW	056H
	DW	067H
	DW	057H
	DW	061H
	DW	07fH
	DW	080H
	DW	08aH
	DW	089H
	DW	08bH
	DW	081H
	DW	08dH
	DW	083H
	DW	082H
	DW	08cH
	DW	093H
	DW	094H
	DW	08eH
	DW	096H
	DW	084H
	DW	095H
	DW	085H
	DW	08fH
	DW	0aaH
	DW	0abH
	DW	0b5H
	DW	0b4H
	DW	0b6H
	DW	0acH
	DW	0b8H
	DW	0aeH
	DW	0adH
	DW	0b7H
	DW	0beH
	DW	0bfH
	DW	0b9H
	DW	0c1H
	DW	0afH
	DW	0c0H
	DW	0b0H
	DW	0baH
	DW	026H
	DW	027H
	DW	031H
	DW	030H
	DW	032H
	DW	028H
	DW	034H
	DW	02aH
	DW	029H
	DW	033H
	DW	03aH
	DW	03bH
	DW	035H
	DW	03dH
	DW	02bH
	DW	03cH
	DW	02cH
	DW	036H
	DW	0c2H
	DW	0b3H
	DW	0bdH
	DW	0c4H
	DW	0b1H
	DW	0c3H
	DW	0b2H
	DW	0bbH
	DW	0bcH
	DW	097H
	DW	088H
	DW	092H
	DW	099H
	DW	086H
	DW	098H
	DW	087H
	DW	090H
	DW	091H
	DW	069H
	DW	05aH
	DW	064H
	DW	06bH
	DW	058H
	DW	06aH
	DW	059H
	DW	062H
	DW	063H
	DW	03eH
	DW	02fH
	DW	039H
	DW	040H
	DW	02dH
	DW	03fH
	DW	02eH
	DW	037H
	DW	038H
_sort_122 DW	00H
	DW	01H
	DW	02H
	DW	03H
	DW	04H
	DW	05H
	DW	06H
	DW	07H
	DW	08H
	DW	09H
	DW	0aH
	DW	0bH
	DW	0cH
	DW	0dH
	DW	0eH
	DW	017H
	DW	0fH
	DW	010H
	DW	011H
	DW	012H
	DW	013H
	DW	014H
	DW	015H
	DW	016H
	DW	018H
	DW	019H
	DW	01aH
	DW	01bH
	DW	01cH
	DW	026H
	DW	08dH
	DW	027H
	DW	08eH
	DW	028H
	DW	08fH
	DW	029H
	DW	090H
	DW	02aH
	DW	091H
	DW	02bH
	DW	092H
	DW	02cH
	DW	093H
	DW	02dH
	DW	094H
	DW	02eH
	DW	095H
	DW	02fH
	DW	061H
	DW	096H
	DW	0c8H
	DW	030H
	DW	062H
	DW	097H
	DW	0c9H
	DW	031H
	DW	063H
	DW	098H
	DW	0caH
	DW	056H
	DW	088H
	DW	0bdH
	DW	0efH
	DW	057H
	DW	089H
	DW	0beH
	DW	0f0H
	DW	058H
	DW	08aH
	DW	0bfH
	DW	0f1H
	DW	05bH
	DW	0c2H
	DW	05cH
	DW	0c3H
	DW	05dH
	DW	0c4H
	DW	05eH
	DW	0c5H
	DW	05fH
	DW	0c6H
	DW	01dH
	DW	01eH
	DW	01fH
	DW	020H
	DW	021H
	DW	022H
	DW	023H
	DW	032H
	DW	064H
	DW	099H
	DW	0cbH
	DW	059H
	DW	08bH
	DW	0c0H
	DW	0f2H
	DW	033H
	DW	065H
	DW	09aH
	DW	0ccH
	DW	037H
	DW	069H
	DW	09eH
	DW	0d0H
	DW	05aH
	DW	08cH
	DW	0c1H
	DW	0f3H
	DW	03bH
	DW	06dH
	DW	0a2H
	DW	0d4H
	DW	03fH
	DW	071H
	DW	0a6H
	DW	0d8H
	DW	043H
	DW	075H
	DW	0aaH
	DW	0dcH
	DW	024H
	DW	025H
	DW	036H
	DW	035H
	DW	034H
	DW	03aH
	DW	039H
	DW	038H
	DW	03eH
	DW	03dH
	DW	03cH
	DW	042H
	DW	041H
	DW	040H
	DW	046H
	DW	045H
	DW	044H
	DW	068H
	DW	067H
	DW	066H
	DW	06cH
	DW	06bH
	DW	06aH
	DW	070H
	DW	06fH
	DW	06eH
	DW	074H
	DW	073H
	DW	072H
	DW	078H
	DW	077H
	DW	076H
	DW	09dH
	DW	09cH
	DW	09bH
	DW	0a1H
	DW	0a0H
	DW	09fH
	DW	0a5H
	DW	0a4H
	DW	0a3H
	DW	0a9H
	DW	0a8H
	DW	0a7H
	DW	0adH
	DW	0acH
	DW	0abH
	DW	0cfH
	DW	0ceH
	DW	0cdH
	DW	0d3H
	DW	0d2H
	DW	0d1H
	DW	0d7H
	DW	0d6H
	DW	0d5H
	DW	0dbH
	DW	0daH
	DW	0d9H
	DW	0dfH
	DW	0deH
	DW	0ddH
	DW	049H
	DW	048H
	DW	047H
	DW	04cH
	DW	04bH
	DW	04aH
	DW	04fH
	DW	04eH
	DW	04dH
	DW	052H
	DW	051H
	DW	050H
	DW	055H
	DW	054H
	DW	053H
	DW	07bH
	DW	07aH
	DW	079H
	DW	07eH
	DW	07dH
	DW	07cH
	DW	081H
	DW	080H
	DW	07fH
	DW	084H
	DW	083H
	DW	082H
	DW	087H
	DW	086H
	DW	085H
	DW	0b0H
	DW	0afH
	DW	0aeH
	DW	0b3H
	DW	0b2H
	DW	0b1H
	DW	0b6H
	DW	0b5H
	DW	0b4H
	DW	0b9H
	DW	0b8H
	DW	0b7H
	DW	0bcH
	DW	0bbH
	DW	0baH
	DW	0e2H
	DW	0e1H
	DW	0e0H
	DW	0e5H
	DW	0e4H
	DW	0e3H
	DW	0e8H
	DW	0e7H
	DW	0e6H
	DW	0ebH
	DW	0eaH
	DW	0e9H
	DW	0eeH
	DW	0edH
	DW	0ecH
	DW	060H
	DW	0c7H
_sort_SID DW	00H
	DW	01H
	DW	02H
	DW	03H
	DW	04H
	DW	05H
	DW	06H
	DW	07H
	DW	08H
	DW	09H
	DW	0aH
	DW	0bH
	DW	0cH
	DW	0dH
	DW	0eH
	DW	0fH
	DW	010H
	DW	011H
	DW	012H
	DW	013H
	DW	014H
	DW	015H
	DW	016H
	DW	017H
	DW	018H
	DW	019H
	DW	01aH
	DW	01bH
	DW	01cH
	DW	01dH
	DW	01eH
	DW	01fH
	DW	020H
	DW	021H
	DW	022H
	ORG $+2
_sort_ptr DD	FLAT:_sort_475
	DD	FLAT:_sort_515
	DD	FLAT:_sort_59
	DD	FLAT:_sort_67
	DD	FLAT:_sort_74
	DD	FLAT:_sort_795
	DD	FLAT:_sort_102
	DD	FLAT:_sort_122
	DD	FLAT:_sort_SID
	DD	00H
	DD	00H
	DD	00H
	DD	00H
	DD	00H
	DD	00H
	DD	00H
_DATA	ENDS
CONST	SEGMENT
_bits2prm_id DB	'@(#)$Id $$Id $', 00H
	ORG $+1
_bitno_id DB	'@(#)$Id $', 00H
	ORG $+2
_prmno	DW	011H
	DW	013H
	DW	013H
	DW	013H
	DW	013H
	DW	017H
	DW	027H
	DW	039H
	DW	05H
	ORG $+2
_prmnofsf DW	07H
	DW	07H
	DW	07H
	DW	07H
	DW	07H
	DW	08H
	DW	0cH
	DW	012H
_bitno_MR475 DW	08H
	DW	08H
	DW	07H
	DW	08H
	DW	07H
	DW	02H
	DW	08H
	DW	04H
	DW	07H
	DW	02H
	DW	04H
	DW	07H
	DW	02H
	DW	08H
	DW	04H
	DW	07H
	DW	02H
	ORG $+2
_bitno_MR515 DW	08H
	DW	08H
	DW	07H
	DW	08H
	DW	07H
	DW	02H
	DW	06H
	DW	04H
	DW	07H
	DW	02H
	DW	06H
	DW	04H
	DW	07H
	DW	02H
	DW	06H
	DW	04H
	DW	07H
	DW	02H
	DW	06H
	ORG $+2
_bitno_MR59 DW	08H
	DW	09H
	DW	09H
	DW	08H
	DW	09H
	DW	02H
	DW	06H
	DW	04H
	DW	09H
	DW	02H
	DW	06H
	DW	08H
	DW	09H
	DW	02H
	DW	06H
	DW	04H
	DW	09H
	DW	02H
	DW	06H
	ORG $+2
_bitno_MR67 DW	08H
	DW	09H
	DW	09H
	DW	08H
	DW	0bH
	DW	03H
	DW	07H
	DW	04H
	DW	0bH
	DW	03H
	DW	07H
	DW	08H
	DW	0bH
	DW	03H
	DW	07H
	DW	04H
	DW	0bH
	DW	03H
	DW	07H
	ORG $+2
_bitno_MR74 DW	08H
	DW	09H
	DW	09H
	DW	08H
	DW	0dH
	DW	04H
	DW	07H
	DW	05H
	DW	0dH
	DW	04H
	DW	07H
	DW	08H
	DW	0dH
	DW	04H
	DW	07H
	DW	05H
	DW	0dH
	DW	04H
	DW	07H
	ORG $+2
_bitno_MR795 DW	09H
	DW	09H
	DW	09H
	DW	08H
	DW	0dH
	DW	04H
	DW	04H
	DW	05H
	DW	06H
	DW	0dH
	DW	04H
	DW	04H
	DW	05H
	DW	08H
	DW	0dH
	DW	04H
	DW	04H
	DW	05H
	DW	06H
	DW	0dH
	DW	04H
	DW	04H
	DW	05H
	ORG $+6
_bitno_MR102 DW	08H
	DW	09H
	DW	09H
	DW	08H
	DW	01H
	DW	01H
	DW	01H
	DW	01H
	DW	0aH
	DW	0aH
	DW	07H
	DW	07H
	DW	05H
	DW	01H
	DW	01H
	DW	01H
	DW	01H
	DW	0aH
	DW	0aH
	DW	07H
	DW	07H
	DW	08H
	DW	01H
	DW	01H
	DW	01H
	DW	01H
	DW	0aH
	DW	0aH
	DW	07H
	DW	07H
	DW	05H
	DW	01H
	DW	01H
	DW	01H
	DW	01H
	DW	0aH
	DW	0aH
	DW	07H
	DW	07H
	ORG $+2
_bitno_MR122 DW	07H
	DW	08H
	DW	09H
	DW	08H
	DW	06H
	DW	09H
	DW	04H
	DW	04H
	DW	04H
	DW	04H
	DW	04H
	DW	04H
	DW	03H
	DW	03H
	DW	03H
	DW	03H
	DW	03H
	DW	05H
	DW	06H
	DW	04H
	DW	04H
	DW	04H
	DW	04H
	DW	04H
	DW	04H
	DW	03H
	DW	03H
	DW	03H
	DW	03H
	DW	03H
	DW	05H
	DW	09H
	DW	04H
	DW	04H
	DW	04H
	DW	04H
	DW	04H
	DW	04H
	DW	03H
	DW	03H
	DW	03H
	DW	03H
	DW	03H
	DW	05H
	DW	06H
	DW	04H
	DW	04H
	DW	04H
	DW	04H
	DW	04H
	DW	04H
	DW	03H
	DW	03H
	DW	03H
	DW	03H
	DW	03H
	DW	05H
	ORG $+2
_bitno_MRDTX DW	03H
	DW	08H
	DW	09H
	DW	09H
	DW	06H
CONST	ENDS
PUBLIC	_Bits2prm
EXTRN	_add:PROC
EXTRN	_sub:PROC
EXTRN	_shl:PROC
EXTRN	_move16:PROC
EXTRN	_test:PROC
EXTRN	__RTC_CheckEsp:PROC
EXTRN	__RTC_InitBase:PROC
EXTRN	__RTC_Shutdown:PROC
;	COMDAT rtc$TMZ
rtc$TMZ	SEGMENT
__RTC_Shutdown.rtc$TMZ DD FLAT:__RTC_Shutdown
rtc$TMZ	ENDS
;	COMDAT rtc$IMZ
rtc$IMZ	SEGMENT
__RTC_InitBase.rtc$IMZ DD FLAT:__RTC_InitBase
rtc$IMZ	ENDS
; Function compile flags: /Odtp /RTCsu /ZI
; File e:\mywork\client\pc2.0trunk\pc2.0\third_party\libamrplayer\amr\bits2prm.c
;	COMDAT _Bin2int
_TEXT	SEGMENT
_bit$ = -32						; size = 2
_i$ = -20						; size = 2
_value$ = -8						; size = 2
_no_of_bits$ = 8					; size = 2
_bitstream$ = 12					; size = 4
_Bin2int PROC						; COMDAT

; 60   : {

  00000	55		 push	 ebp
  00001	8b ec		 mov	 ebp, esp
  00003	81 ec e4 00 00
	00		 sub	 esp, 228		; 000000e4H
  00009	53		 push	 ebx
  0000a	56		 push	 esi
  0000b	57		 push	 edi
  0000c	8d bd 1c ff ff
	ff		 lea	 edi, DWORD PTR [ebp-228]
  00012	b9 39 00 00 00	 mov	 ecx, 57			; 00000039H
  00017	b8 cc cc cc cc	 mov	 eax, -858993460		; ccccccccH
  0001c	f3 ab		 rep stosd

; 61   :     Word16 value, i, bit;
; 62   : 
; 63   :     value = 0;                                  move16 (); 

  0001e	33 c0		 xor	 eax, eax
  00020	66 89 45 f8	 mov	 WORD PTR _value$[ebp], ax
  00024	e8 00 00 00 00	 call	 _move16

; 64   :     for (i = 0; i < no_of_bits; i++)

  00029	33 c0		 xor	 eax, eax
  0002b	66 89 45 ec	 mov	 WORD PTR _i$[ebp], ax
  0002f	eb 0c		 jmp	 SHORT $LN4@Bin2int
$LN3@Bin2int:
  00031	66 8b 45 ec	 mov	 ax, WORD PTR _i$[ebp]
  00035	66 83 c0 01	 add	 ax, 1
  00039	66 89 45 ec	 mov	 WORD PTR _i$[ebp], ax
$LN4@Bin2int:
  0003d	0f bf 45 ec	 movsx	 eax, WORD PTR _i$[ebp]
  00041	0f bf 4d 08	 movsx	 ecx, WORD PTR _no_of_bits$[ebp]
  00045	3b c1		 cmp	 eax, ecx
  00047	7d 5b		 jge	 SHORT $LN2@Bin2int

; 65   :     {
; 66   :         value = shl (value, 1);

  00049	6a 01		 push	 1
  0004b	0f b7 45 f8	 movzx	 eax, WORD PTR _value$[ebp]
  0004f	50		 push	 eax
  00050	e8 00 00 00 00	 call	 _shl
  00055	83 c4 08	 add	 esp, 8
  00058	66 89 45 f8	 mov	 WORD PTR _value$[ebp], ax

; 67   :         bit = *bitstream++;                     move16 (); 

  0005c	8b 45 0c	 mov	 eax, DWORD PTR _bitstream$[ebp]
  0005f	66 8b 08	 mov	 cx, WORD PTR [eax]
  00062	66 89 4d e0	 mov	 WORD PTR _bit$[ebp], cx
  00066	8b 55 0c	 mov	 edx, DWORD PTR _bitstream$[ebp]
  00069	83 c2 02	 add	 edx, 2
  0006c	89 55 0c	 mov	 DWORD PTR _bitstream$[ebp], edx
  0006f	e8 00 00 00 00	 call	 _move16

; 68   :         test (); 

  00074	e8 00 00 00 00	 call	 _test

; 69   :         if (sub (bit, BIT_1) == 0)

  00079	6a 01		 push	 1
  0007b	0f b7 45 e0	 movzx	 eax, WORD PTR _bit$[ebp]
  0007f	50		 push	 eax
  00080	e8 00 00 00 00	 call	 _sub
  00085	83 c4 08	 add	 esp, 8
  00088	0f bf c8	 movsx	 ecx, ax
  0008b	85 c9		 test	 ecx, ecx
  0008d	75 13		 jne	 SHORT $LN1@Bin2int

; 70   :             value = add (value, 1);

  0008f	6a 01		 push	 1
  00091	0f b7 45 f8	 movzx	 eax, WORD PTR _value$[ebp]
  00095	50		 push	 eax
  00096	e8 00 00 00 00	 call	 _add
  0009b	83 c4 08	 add	 esp, 8
  0009e	66 89 45 f8	 mov	 WORD PTR _value$[ebp], ax
$LN1@Bin2int:

; 71   :     }

  000a2	eb 8d		 jmp	 SHORT $LN3@Bin2int
$LN2@Bin2int:

; 72   :     return (value);

  000a4	66 8b 45 f8	 mov	 ax, WORD PTR _value$[ebp]

; 73   : }

  000a8	5f		 pop	 edi
  000a9	5e		 pop	 esi
  000aa	5b		 pop	 ebx
  000ab	81 c4 e4 00 00
	00		 add	 esp, 228		; 000000e4H
  000b1	3b ec		 cmp	 ebp, esp
  000b3	e8 00 00 00 00	 call	 __RTC_CheckEsp
  000b8	8b e5		 mov	 esp, ebp
  000ba	5d		 pop	 ebp
  000bb	c3		 ret	 0
_Bin2int ENDP
_TEXT	ENDS
; Function compile flags: /Odtp /RTCsu /ZI
; File e:\mywork\client\pc2.0trunk\pc2.0\third_party\libamrplayer\amr\bits2prm.c
;	COMDAT _Bits2prm
_TEXT	SEGMENT
_i$ = -8						; size = 2
_mode$ = 8						; size = 4
_bits$ = 12						; size = 4
_prm$ = 16						; size = 4
_Bits2prm PROC						; COMDAT

; 94   : {

  00000	55		 push	 ebp
  00001	8b ec		 mov	 ebp, esp
  00003	81 ec cc 00 00
	00		 sub	 esp, 204		; 000000ccH
  00009	53		 push	 ebx
  0000a	56		 push	 esi
  0000b	57		 push	 edi
  0000c	8d bd 34 ff ff
	ff		 lea	 edi, DWORD PTR [ebp-204]
  00012	b9 33 00 00 00	 mov	 ecx, 51			; 00000033H
  00017	b8 cc cc cc cc	 mov	 eax, -858993460		; ccccccccH
  0001c	f3 ab		 rep stosd

; 95   :     Word16 i;
; 96   : 
; 97   :     move16();           /* account for pointer init (bitno[mode])  */

  0001e	e8 00 00 00 00	 call	 _move16

; 98   :     
; 99   :     for (i = 0; i < prmno[mode]; i++)

  00023	33 c0		 xor	 eax, eax
  00025	66 89 45 f8	 mov	 WORD PTR _i$[ebp], ax
  00029	eb 0c		 jmp	 SHORT $LN3@Bits2prm
$LN2@Bits2prm:
  0002b	66 8b 45 f8	 mov	 ax, WORD PTR _i$[ebp]
  0002f	66 83 c0 01	 add	 ax, 1
  00033	66 89 45 f8	 mov	 WORD PTR _i$[ebp], ax
$LN3@Bits2prm:
  00037	0f bf 45 f8	 movsx	 eax, WORD PTR _i$[ebp]
  0003b	8b 4d 08	 mov	 ecx, DWORD PTR _mode$[ebp]
  0003e	0f bf 14 4d 00
	00 00 00	 movsx	 edx, WORD PTR _prmno[ecx*2]
  00046	3b c2		 cmp	 eax, edx
  00048	7d 58		 jge	 SHORT $LN4@Bits2prm

; 100  :     {
; 101  :         prm[i] = Bin2int (bitno[mode][i], bits);      move16 (); 

  0004a	8b 45 0c	 mov	 eax, DWORD PTR _bits$[ebp]
  0004d	50		 push	 eax
  0004e	0f bf 4d f8	 movsx	 ecx, WORD PTR _i$[ebp]
  00052	8b 55 08	 mov	 edx, DWORD PTR _mode$[ebp]
  00055	8b 04 95 00 00
	00 00		 mov	 eax, DWORD PTR _bitno[edx*4]
  0005c	0f b7 0c 48	 movzx	 ecx, WORD PTR [eax+ecx*2]
  00060	51		 push	 ecx
  00061	e8 00 00 00 00	 call	 _Bin2int
  00066	83 c4 08	 add	 esp, 8
  00069	0f bf 55 f8	 movsx	 edx, WORD PTR _i$[ebp]
  0006d	8b 4d 10	 mov	 ecx, DWORD PTR _prm$[ebp]
  00070	66 89 04 51	 mov	 WORD PTR [ecx+edx*2], ax
  00074	e8 00 00 00 00	 call	 _move16

; 102  :         bits += bitno[mode][i];

  00079	0f bf 45 f8	 movsx	 eax, WORD PTR _i$[ebp]
  0007d	8b 4d 08	 mov	 ecx, DWORD PTR _mode$[ebp]
  00080	8b 14 8d 00 00
	00 00		 mov	 edx, DWORD PTR _bitno[ecx*4]
  00087	0f bf 04 42	 movsx	 eax, WORD PTR [edx+eax*2]
  0008b	8b 4d 0c	 mov	 ecx, DWORD PTR _bits$[ebp]
  0008e	8d 14 41	 lea	 edx, DWORD PTR [ecx+eax*2]
  00091	89 55 0c	 mov	 DWORD PTR _bits$[ebp], edx

; 103  :         add(0,0);       /* account for above pointer update  */

  00094	6a 00		 push	 0
  00096	6a 00		 push	 0
  00098	e8 00 00 00 00	 call	 _add
  0009d	83 c4 08	 add	 esp, 8

; 104  :     }

  000a0	eb 89		 jmp	 SHORT $LN2@Bits2prm
$LN4@Bits2prm:

; 105  :     
; 106  :    return;
; 107  : }

  000a2	5f		 pop	 edi
  000a3	5e		 pop	 esi
  000a4	5b		 pop	 ebx
  000a5	81 c4 cc 00 00
	00		 add	 esp, 204		; 000000ccH
  000ab	3b ec		 cmp	 ebp, esp
  000ad	e8 00 00 00 00	 call	 __RTC_CheckEsp
  000b2	8b e5		 mov	 esp, ebp
  000b4	5d		 pop	 ebp
  000b5	c3		 ret	 0
_Bits2prm ENDP
_TEXT	ENDS
END
