; Listing generated by Microsoft (R) Optimizing Compiler Version 18.00.40629.0 

	TITLE	E:\mywork\client\PC2.0TRUNK\PC2.0\third_party\libAMRPlayer\AMR\d_plsf_5.c
	.686P
	.XMM
	include listing.inc
	.model	flat

INCLUDELIB MSVCRTD
INCLUDELIB OLDNAMES

PUBLIC	_d_plsf_5_id
CONST	SEGMENT
_d_plsf_5_id DB	'@(#)$Id $$Id $', 00H
	ORG $+1
_mean_lsf DW	0568H
	DW	081dH
	DW	0d5cH
	DW	013f4H
	DW	01a56H
	DW	01fbaH
	DW	02687H
	DW	02b54H
	DW	031aaH
	DW	03585H
	ORG $+4
_dico1_lsf DW	0fe3dH
	DW	0fbd7H
	DW	0fdefH
	DW	0fae7H
	DW	0fe3eH
	DW	0fd0cH
	DW	0fe0fH
	DW	0fca1H
	DW	0fe80H
	DW	0fd95H
	DW	0fe63H
	DW	0fd63H
	DW	0fec3H
	DW	0fde6H
	DW	0feb5H
	DW	0fdd4H
	DW	0fe62H
	DW	0fe04H
	DW	0fe58H
	DW	0fe86H
	DW	0feeeH
	DW	0febcH
	DW	0fe4eH
	DW	0fd9aH
	DW	0ff1eH
	DW	0fe0cH
	DW	0ff18H
	DW	0fdfeH
	DW	0fef9H
	DW	0fe87H
	DW	0fed6H
	DW	0fe66H
	DW	0ff69H
	DW	0fd3aH
	DW	0ff52H
	DW	0fcceH
	DW	0ff6bH
	DW	0fe64H
	DW	0ff64H
	DW	0fe53H
	DW	0fee0H
	DW	0fe32H
	DW	0ff46H
	DW	0ff35H
	DW	0ff56H
	DW	0fed2H
	DW	0ff41H
	DW	0febfH
	DW	0ff7dH
	DW	0ff6dH
	DW	0fed7H
	DW	0fe75H
	DW	0ff1cH
	DW	0ff2aH
	DW	0ff0bH
	DW	0ff40H
	DW	0ffbdH
	DW	0fec4H
	DW	0ffb9H
	DW	0feb9H
	DW	0ff98H
	DW	0ff33H
	DW	0ffa2H
	DW	0ff49H
	DW	0ff71H
	DW	0ffdaH
	DW	0ff3fH
	DW	0ffa1H
	DW	010H
	DW	0ffb4H
	DW	0ff84H
	DW	0ff08H
	DW	017H
	DW	0ff13H
	DW	018H
	DW	0ff0cH
	DW	012H
	DW	0ff78H
	DW	02cH
	DW	0ff91H
	DW	0ffdfH
	DW	0ffe8H
	DW	0ffe7H
	DW	00H
	DW	095H
	DW	013H
	DW	017H
	DW	0ff71H
	DW	09eH
	DW	0ff57H
	DW	0aeH
	DW	0ff4bH
	DW	085H
	DW	0ffc9H
	DW	0a5H
	DW	0ffe6H
	DW	06fH
	DW	054H
	DW	062H
	DW	04bH
	DW	057H
	DW	0b7H
	DW	0ff8dH
	DW	0fff5H
	DW	0fff8H
	DW	082H
	DW	0bH
	DW	0aaH
	DW	0feH
	DW	04dH
	DW	0cdH
	DW	011H
	DW	0b7H
	DW	070H
	DW	0106H
	DW	0c2H
	DW	0caH
	DW	011fH
	DW	05fH
	DW	0bdH
	DW	0ffd6H
	DW	0ff97H
	DW	0eaH
	DW	0b3H
	DW	027H
	DW	0baH
	DW	0a3H
	DW	0159H
	DW	014cH
	DW	0c7H
	DW	012bH
	DW	0a1H
	DW	0ffcaH
	DW	011dH
	DW	0ffb2H
	DW	0119H
	DW	0ff7bH
	DW	08dH
	DW	0ff4aH
	DW	06fH
	DW	0f9H
	DW	0155H
	DW	010fH
	DW	016cH
	DW	05dH
	DW	0193H
	DW	04bH
	DW	0187H
	DW	05cH
	DW	01feH
	DW	0ff76H
	DW	0dcH
	DW	0ff47H
	DW	0ffe3H
	DW	0ffdeH
	DW	0169H
	DW	0ff8dH
	DW	0140H
	DW	03H
	DW	022aH
	DW	063H
	DW	011eH
	DW	0daH
	DW	024fH
	DW	0ff0bH
	DW	0196H
	DW	0fef4H
	DW	01c5H
	DW	00H
	DW	0244H
	DW	019H
	DW	025eH
	DW	0113H
	DW	0214H
	DW	094H
	DW	01c2H
	DW	0ffb7H
	DW	02e3H
	DW	0fee3H
	DW	0206H
	DW	0fee0H
	DW	05eH
	DW	0ff35H
	DW	02a2H
	DW	0ff74H
	DW	0ffb6H
	DW	0cdH
	DW	02caH
	DW	0ff8eH
	DW	012bH
	DW	0b0H
	DW	039bH
	DW	0b6H
	DW	022dH
	DW	0f0H
	DW	02c1H
	DW	0fff0H
	DW	0201H
	DW	01e5H
	DW	0251H
	DW	0125H
	DW	0180H
	DW	01c3H
	DW	0269H
	DW	0ffdaH
	DW	032H
	DW	0233H
	DW	0211H
	DW	012fH
	DW	0d1H
	DW	01cbH
	DW	016bH
	DW	01b1H
	DW	01c4H
	DW	01c2H
	DW	01c6H
	DW	016fH
	DW	025eH
	DW	01ddH
	DW	02e5H
	DW	01b0H
	DW	0161H
	DW	0170H
	DW	010bH
	DW	0169H
	DW	02ccH
	DW	0111H
	DW	0247H
	DW	01c5H
	DW	0a6H
	DW	01feH
	DW	0acH
	DW	0c9H
	DW	0275H
	DW	0112H
	DW	0bfH
	DW	0238H
	DW	027fH
	DW	012eH
	DW	012aH
	DW	027aH
	DW	0183H
	DW	0283H
	DW	015eH
	DW	024bH
	DW	0230H
	DW	0264H
	DW	0235H
	DW	0258H
	DW	0314H
	DW	01e7H
	DW	02a0H
	DW	0200H
	DW	03f7H
	DW	0141H
	DW	014dH
	DW	0165H
	DW	0356H
	DW	0ff83H
	DW	019dH
	DW	01daH
	DW	02c8H
	DW	011H
	DW	0ff69H
	DW	0234H
	DW	011dH
	DW	010eH
	DW	0ff0fH
	DW	03cbH
	DW	0379H
	DW	01e9H
	DW	0dcH
	DW	01feH
	DW	0380H
	DW	0225H
	DW	039cH
	DW	0147H
	DW	0339H
	DW	0122H
	DW	038fH
	DW	021cH
	DW	0454H
	DW	09eH
	DW	0325H
	DW	0c7H
	DW	03bdH
	DW	01ffH
	DW	02daH
	DW	064H
	DW	036aH
	DW	0dH
	DW	0317H
	DW	01b3H
	DW	0278H
	DW	02a4H
	DW	03ccH
	DW	0f9H
	DW	0384H
	DW	01d3H
	DW	04c2H
	DW	030dH
	DW	0432H
	DW	0249H
	DW	0311H
	DW	0ffe9H
	DW	029dH
	DW	010bH
	DW	0413H
	DW	026bH
	DW	043cH
	DW	0267H
	DW	0479H
	DW	026eH
	DW	0389H
	DW	0394H
	DW	0419H
	DW	050H
	DW	014bH
	DW	0248H
	DW	0433H
	DW	059H
	DW	027fH
	DW	03dcH
	DW	03c1H
	DW	0302H
	DW	02d0H
	DW	031eH
	DW	02bbH
	DW	01ecH
	DW	01bfH
	DW	0383H
	DW	0273H
	DW	010fH
	DW	04a4H
	DW	02d5H
	DW	0535H
	DW	057H
	DW	025bH
	DW	0340H
	DW	0643H
	DW	0268H
	DW	0467H
	DW	037aH
	DW	05e1H
	DW	03e8H
	DW	0484H
	DW	0362H
	DW	03f1H
	DW	03e3H
	DW	033bH
	DW	047dH
	DW	035aH
	DW	0331H
	DW	05aaH
	DW	0305H
	DW	0528H
	DW	01f4H
	DW	056dH
	DW	0138H
	DW	0481H
	DW	0ffecH
	DW	043cH
	DW	040H
	DW	0503H
	DW	02H
	DW	0494H
	DW	018fH
	DW	074dH
	DW	0202H
	DW	06aaH
	DW	01f6H
	DW	0664H
	DW	0376H
	DW	05f2H
	DW	01a0H
	DW	0258H
	DW	046bH
	DW	0546H
	DW	04fbH
	DW	056eH
	DW	0379H
	DW	0703H
	DW	0392H
	DW	06e6H
	DW	0e3H
	DW	049fH
	DW	04e2H
	DW	0722H
	DW	01f9H
	DW	073eH
	DW	0397H
	DW	0931H
	DW	0ff39H
	DW	01afH
	DW	098H
	DW	06c7H
	DW	0ff2bH
	DW	0ffe4H
	DW	0188H
	DW	0536H
	DW	0ff67H
	DW	0ffccH
	DW	03d2H
	DW	047fH
	DW	0febdH
	DW	0fe70H
	DW	032dH
	DW	06a7H
	DW	0ff78H
	DW	054H
	DW	05a9H
	DW	07dfH
	DW	0feb5H
	DW	0ff71H
	DW	0ff77H
	DW	04a8H
	DW	0ff00H
	DW	0216H
	DW	0ff63H
	DW	0407H
	DW	0fecdH
	DW	0fe49H
	DW	021eH
	DW	02dbH
	DW	0feb7H
	DW	0fe5cH
	DW	0ff9fH
	DW	0268H
	DW	0fe96H
	DW	0ff58H
	DW	0febeH
	DW	016eH
	DW	0ff09H
	DW	0ff92H
	DW	0ff2dH
	DW	059H
	DW	0ff3cH
	DW	0fecbH
	DW	014H
	DW	03bH
	DW	0fe94H
	DW	0fe31H
	DW	0fee2H
	DW	059H
	DW	0feb0H
	DW	0afH
	DW	0fe50H
	DW	08dH
	DW	0fe85H
	DW	0ff42H
	DW	0fe4eH
	DW	0ff3cH
	DW	0ffb1H
	DW	096H
	DW	0feeaH
	DW	0ff1dH
	DW	0fee8H
	DW	0a6H
	DW	0fdd5H
	DW	0fe5aH
	DW	0ff65H
	DW	021dH
	DW	0fe92H
	DW	036H
	DW	0ffe3H
	DW	0ffadH
	DW	0fed3H
	DW	0fcfaH
	DW	0baH
	DW	0274H
	DW	0fe73H
	DW	0fef8H
	DW	0f2H
	DW	0125H
	DW	0ff3bH
	DW	0fdb7H
	DW	07cH
	DW	019aH
	DW	035H
	DW	0ff7bH
	DW	0aH
	DW	0154H
	DW	0fdc6H
	DW	0fbd7H
	DW	041H
	DW	0fe42H
	DW	044H
	DW	0fe13H
	DW	017fH
	DW	03a9H
	DW	0fe9bH
	DW	0fd39H
	DW	0fe99H
	DW	0ff06H
	DW	0fd5bH
	DW	0fbd4H
	DW	0124H
	DW	0ffe6H
	DW	016bH
	DW	06H
	DW	025fH
	DW	0521H
	DW	0ff81H
	DW	0fff6H
	DW	05e9H
	DW	075eH
	DW	02c9H
	DW	03ccH
	DW	05bdH
	DW	0885H
	DW	05a3H
	DW	07e0H
_dico2_lsf DW	0f9a1H
	DW	0f9c0H
	DW	0f8fcH
	DW	0f70eH
	DW	0fbfdH
	DW	0f916H
	DW	0fbb4H
	DW	0f817H
	DW	0fb03H
	DW	0fa94H
	DW	0faa9H
	DW	0fa02H
	DW	0fc4dH
	DW	0fa4bH
	DW	0fc34H
	DW	0fa0cH
	DW	0fc19H
	DW	0fb3aH
	DW	0fc04H
	DW	0fb6cH
	DW	0fcd1H
	DW	0fc25H
	DW	0fc20H
	DW	0faa5H
	DW	0fb40H
	DW	0fc12H
	DW	0faf7H
	DW	0fbbaH
	DW	0fd18H
	DW	0fb0cH
	DW	0fd0dH
	DW	0faf3H
	DW	0fca2H
	DW	0fc65H
	DW	0fc77H
	DW	0fc28H
	DW	0fd5aH
	DW	0fbe5H
	DW	0fd53H
	DW	0fbe6H
	DW	0fbc1H
	DW	0fc27H
	DW	0fbdaH
	DW	0fd59H
	DW	0fc23H
	DW	0fd7fH
	DW	0fb99H
	DW	0fc30H
	DW	0fd06H
	DW	0fd72H
	DW	0fc86H
	DW	0fcdaH
	DW	0fcbfH
	DW	0fbbdH
	DW	0fd3eH
	DW	0fd8bH
	DW	0fd93H
	DW	0fcdaH
	DW	0fd80H
	DW	0fcd4H
	DW	0fcf9H
	DW	0fd86H
	DW	0fcf5H
	DW	0fde1H
	DW	0fc1cH
	DW	0fdcbH
	DW	0fbcdH
	DW	0fdbcH
	DW	0fddeH
	DW	0fd9dH
	DW	0fdc4H
	DW	0fd95H
	DW	0fd08H
	DW	0fedeH
	DW	0fc91H
	DW	0fdf2H
	DW	0fcc9H
	DW	0fe32H
	DW	0fce5H
	DW	0ff03H
	DW	0fdd7H
	DW	0fe61H
	DW	0fdb3H
	DW	0fe49H
	DW	0fdebH
	DW	0feacH
	DW	0fd4cH
	DW	0fc59H
	DW	0fe07H
	DW	0fcfcH
	DW	0fd42H
	DW	0fb95H
	DW	0fef9H
	DW	0feceH
	DW	0fc35H
	DW	0fe1dH
	DW	0fe43H
	DW	0ffb6H
	DW	0fdd5H
	DW	0fddcH
	DW	0fd9aH
	DW	0ff7fH
	DW	0fd4bH
	DW	0ff16H
	DW	0fe74H
	DW	0ff0aH
	DW	0fe25H
	DW	0ff06H
	DW	0fef7H
	DW	0fe6cH
	DW	0fe88H
	DW	0fdfeH
	DW	0fe5fH
	DW	0fe02H
	DW	0fed4H
	DW	0fec7H
	DW	0feb2H
	DW	0fd68H
	DW	0fe31H
	DW	0fcd2H
	DW	0fe7eH
	DW	0fd40H
	DW	0feafH
	DW	0fd99H
	DW	0ff16H
	DW	0ff37H
	DW	0ff17H
	DW	0ff11H
	DW	0ff59H
	DW	0fdc9H
	DW	0ff35H
	DW	0fd95H
	DW	0ff6dH
	DW	0fe61H
	DW	0ff8dH
	DW	0fea0H
	DW	0ff5aH
	DW	0fd12H
	DW	0ff55H
	DW	0fd07H
	DW	0fef2H
	DW	0fc91H
	DW	0fef8H
	DW	0fc79H
	DW	0fe91H
	DW	0fd18H
	DW	02bH
	DW	0fe25H
	DW	0eH
	DW	0fd73H
	DW	02bH
	DW	0fd62H
	DW	0bH
	DW	0fe40H
	DW	0ffc5H
	DW	0fdf7H
	DW	0ff82H
	DW	0ff89H
	DW	0ff65H
	DW	0fd9bH
	DW	0ffd6H
	DW	0fca1H
	DW	0ffe5H
	DW	0fc5dH
	DW	088H
	DW	0fe1dH
	DW	0b7H
	DW	0fe2cH
	DW	037H
	DW	0fed6H
	DW	037H
	DW	0fed0H
	DW	0139H
	DW	0fd9fH
	DW	0139H
	DW	0fd30H
	DW	0142H
	DW	0ff59H
	DW	064H
	DW	0fde3H
	DW	0fffdH
	DW	0ff89H
	DW	0ff91H
	DW	0ff45H
	DW	0e9H
	DW	0ff14H
	DW	0104H
	DW	0ff16H
	DW	01aH
	DW	0ff5bH
	DW	086H
	DW	0ffd3H
	DW	0ffd8H
	DW	0fddbH
	DW	0168H
	DW	0ff35H
	DW	017aH
	DW	0fe7cH
	DW	01c2H
	DW	0fe81H
	DW	0113H
	DW	014H
	DW	0b6H
	DW	0ff99H
	DW	0f6H
	DW	0ff91H
	DW	01afH
	DW	025H
	DW	01ceH
	DW	0ff6eH
	DW	01e7H
	DW	0ff63H
	DW	0fee4H
	DW	0ffc5H
	DW	01f7H
	DW	0ff48H
	DW	018H
	DW	035H
	DW	0fffdH
	DW	036H
	DW	07aH
	DW	0103H
	DW	014dH
	DW	042H
	DW	01e4H
	DW	068H
	DW	01b4H
	DW	044H
	DW	0c3H
	DW	074H
	DW	0beH
	DW	0ceH
	DW	010dH
	DW	0fff7H
	DW	01e2H
	DW	0160H
	DW	017eH
	DW	011dH
	DW	018fH
	DW	0115H
	DW	01c4H
	DW	0100H
	DW	045H
	DW	0baH
	DW	0dH
	DW	0129H
	DW	0fff3H
	DW	0103H
	DW	0ffa1H
	DW	01eH
	DW	038H
	DW	018aH
	DW	0c4H
	DW	01a9H
	DW	0cdH
	DW	01c8H
	DW	0119H
	DW	0241H
	DW	0fH
	DW	0bfH
	DW	0177H
	DW	0122H
	DW	0197H
	DW	0240H
	DW	0ffc8H
	DW	0e3H
	DW	0220H
	DW	0195H
	DW	00H
	DW	0225H
	DW	0ffa4H
	DW	0210H
	DW	0ff1bH
	DW	015fH
	DW	0ff0bH
	DW	0152H
	DW	0fe96H
	DW	01b3H
	DW	0a7H
	DW	020fH
	DW	0ffb5H
	DW	012eH
	DW	05bH
	DW	0338H
	DW	081H
	DW	0257H
	DW	01f0H
	DW	02a7H
	DW	0baH
	DW	02edH
	DW	099H
	DW	02e1H
	DW	0fee7H
	DW	0258H
	DW	0fea4H
	DW	0267H
	DW	0ff14H
	DW	0301H
	DW	029H
	DW	0371H
	DW	026H
	DW	037aH
	DW	0ff24H
	DW	0349H
	DW	0fe9bH
	DW	0373H
	DW	0fe77H
	DW	0387H
	DW	0fd86H
	DW	01daH
	DW	0fe44H
	DW	0352H
	DW	0ff51H
	DW	02a6H
	DW	0fe13H
	DW	0f2H
	DW	0fdf9H
	DW	0311H
	DW	0fd36H
	DW	0246H
	DW	0fde3H
	DW	016eH
	DW	0fde1H
	DW	01b2H
	DW	0fdabH
	DW	01f4H
	DW	0fd03H
	DW	0deH
	DW	0fd42H
	DW	0395H
	DW	0fd19H
	DW	03c2H
	DW	0fc9bH
	DW	01f5H
	DW	0fc7dH
	DW	0224H
	DW	0fe85H
	DW	0c8H
	DW	0fe4dH
	DW	09dH
	DW	0fccdH
	DW	0d6H
	DW	0fca3H
	DW	09dH
	DW	0fd9aH
	DW	028H
	DW	0fd88H
	DW	05eH
	DW	0fc8dH
	DW	0ffcaH
	DW	0fd1bH
	DW	0204H
	DW	0fe0bH
	DW	012aH
	DW	0fd9aH
	DW	0ff55H
	DW	0fc9aH
	DW	0ff5fH
	DW	0fc9fH
	DW	0ffe9H
	DW	0fcceH
	DW	05dH
	DW	0fc09H
	DW	0fef5H
	DW	0fd6aH
	DW	0fe99H
	DW	0fddbH
	DW	02H
	DW	0fe46H
	DW	0ff87H
	DW	0fe87H
	DW	00H
	DW	0ff1dH
	DW	021H
	DW	0fe62H
	DW	0ff82H
	DW	0ff7fH
	DW	0d4H
	DW	0fc5aH
	DW	022H
	DW	0fbc6H
	DW	0fee6H
	DW	0fba1H
	DW	0fef4H
	DW	0fd3aH
	DW	0fcc7H
	DW	0fe5cH
	DW	0ff41H
	DW	0fbccH
	DW	0fc60H
	DW	0fc6bH
	DW	0ffa3H
	DW	0fd8cH
	DW	0fe9aH
	DW	061H
	DW	07H
	DW	0ff32H
	DW	0fe77H
	DW	0ff9bH
	DW	018H
	DW	0ff35H
	DW	026H
	DW	0ff58H
	DW	053H
	DW	0fda9H
	DW	0fe59H
	DW	0fee9H
	DW	01aaH
	DW	0fd44H
	DW	076H
	DW	0ffb5H
	DW	0ceH
	DW	0fc2bH
	DW	0fd5fH
	DW	0fd58H
	DW	01a1H
	DW	0fe91H
	DW	025H
	DW	0fee9H
	DW	01daH
	DW	0ff7fH
	DW	0fec2H
	DW	013fH
	DW	0128H
	DW	0fd8eH
	DW	0ffd9H
	DW	0157H
	DW	025aH
	DW	0fd48H
	DW	0ffd9H
	DW	0fed1H
	DW	03acH
	DW	068H
	DW	0e9H
	DW	0fe84H
	DW	089H
	DW	0ffdcH
	DW	010dH
	DW	0ffb5H
	DW	0ff2aH
	DW	078H
	DW	02bH
	DW	0fdefH
	DW	0fe23H
	DW	01cbH
	DW	0a4H
	DW	0ff36H
	DW	0ff1bH
	DW	0ffcfH
	DW	0ff59H
	DW	0261H
	DW	0318H
	DW	062H
	DW	0ff24H
	DW	0393H
	DW	094H
	DW	0125H
	DW	011bH
	DW	0365H
	DW	05bH
	DW	023fH
	DW	018aH
	DW	0146H
	DW	0ffb2H
	DW	02cdH
	DW	043H
	DW	016dH
	DW	0febdH
	DW	0268H
	DW	0ffdcH
	DW	02dbH
	DW	01bH
	DW	026bH
	DW	0eeH
	DW	0278H
	DW	0111H
	DW	01c0H
	DW	063H
	DW	0321H
	DW	01dcH
	DW	0365H
	DW	0111H
	DW	02adH
	DW	040H
	DW	0315H
	DW	048H
	DW	03fdH
	DW	0d9H
	DW	0319H
	DW	01cbH
	DW	02deH
	DW	0168H
	DW	0286H
	DW	01e0H
	DW	0168H
	DW	0142H
	DW	01adH
	DW	01d0H
	DW	027eH
	DW	01aeH
	DW	02f4H
	DW	016bH
	DW	03e8H
	DW	0194H
	DW	02abH
	DW	0210H
	DW	025aH
	DW	0267H
	DW	028fH
	DW	019dH
	DW	03b2H
	DW	02afH
	DW	03a9H
	DW	025aH
	DW	0388H
	DW	025cH
	DW	022bH
	DW	02e1H
	DW	0312H
	DW	0296H
	DW	01d3H
	DW	028eH
	DW	016aH
	DW	024dH
	DW	03a1H
	DW	02c6H
	DW	01f2H
	DW	01deH
	DW	019fH
	DW	01a4H
	DW	02b5H
	DW	0373H
	DW	032dH
	DW	02abH
	DW	030dH
	DW	039dH
	DW	0391H
	DW	03abH
	DW	02d6H
	DW	02dcH
	DW	01ebH
	DW	0355H
	DW	0213H
	DW	03b4H
	DW	02deH
	DW	03c3H
	DW	013bH
	DW	0328H
	DW	02f9H
	DW	02f3H
	DW	0478H
	DW	02f8H
	DW	028fH
	DW	0434H
	DW	033aH
	DW	0421H
	DW	0443H
	DW	0346H
	DW	03ebH
	DW	0328H
	DW	0417H
	DW	046dH
	DW	0293H
	DW	044dH
	DW	03e0H
	DW	041aH
	DW	0432H
	DW	0433H
	DW	03cbH
	DW	02b6H
	DW	04caH
	DW	041eH
	DW	023bH
	DW	0349H
	DW	0374H
	DW	057cH
	DW	0563H
	DW	0448H
	DW	0438H
	DW	035dH
	DW	04cfH
	DW	02dfH
	DW	0504H
	DW	02f8H
	DW	04f8H
	DW	03dfH
	DW	0557H
	DW	041dH
	DW	04e9H
	DW	02bcH
	DW	041aH
	DW	0216H
	DW	03dcH
	DW	01c5H
	DW	04f0H
	DW	0257H
	DW	0474H
	DW	02a7H
	DW	0655H
	DW	032fH
	DW	0568H
	DW	0209H
	DW	0525H
	DW	0189H
	DW	061cH
	DW	0325H
	DW	05a8H
	DW	02aeH
	DW	042cH
	DW	0288H
	DW	036bH
	DW	0133H
	DW	043bH
	DW	0169H
	DW	0417H
	DW	013dH
	DW	0589H
	DW	03c4H
	DW	02a3H
	DW	023bH
	DW	0480H
	DW	04fH
	DW	045aH
	DW	0ffd1H
	DW	05faH
	DW	0137H
	DW	06b9H
	DW	013aH
	DW	048eH
	DW	02b1H
	DW	0202H
	DW	0ffa2H
	DW	015dH
	DW	011aH
	DW	0584H
	DW	0148H
	DW	0401H
	DW	01e7H
	DW	0ffbfH
	DW	039H
	DW	0325H
	DW	03caH
	DW	024H
	DW	03eH
	DW	0301H
	DW	0fef9H
	DW	0317H
	DW	0fea6H
	DW	027dH
	DW	02bbH
	DW	0ff77H
	DW	026cH
	DW	0216H
	DW	021dH
	DW	0fd21H
	DW	0c2H
	DW	02c7H
	DW	012cH
	DW	0fef4H
	DW	0fca1H
	DW	039eH
	DW	0301H
	DW	0fd3cH
	DW	0fe54H
	DW	01faH
	DW	0aeH
	DW	0fc84H
	DW	0fd8aH
	DW	01b3H
	DW	0223H
	DW	0fa65H
	DW	0fefeH
	DW	026dH
	DW	01d7H
	DW	0fc06H
	DW	0faa8H
	DW	0fe77H
	DW	0209H
	DW	0fc68H
	DW	0fd52H
	DW	0ffe7H
	DW	014H
	DW	0fc2aH
	DW	0fb7cH
	DW	0154H
	DW	09H
	DW	0f9eaH
	DW	0fb91H
	DW	0fea0H
	DW	030H
	DW	0f9d5H
	DW	0fe6eH
	DW	0fc89H
	DW	06H
	DW	0fb7cH
	DW	0fc88H
	DW	0fddcH
	DW	0fea0H
	DW	0f995H
	DW	0fb70H
	DW	0ff61H
	DW	0262H
	DW	0f818H
	DW	0fc3dH
	DW	0ff1fH
	DW	0c1H
	DW	0f988H
	DW	0f858H
	DW	0ff0bH
	DW	0fe13H
	DW	0fc3cH
	DW	0f970H
	DW	0fc58H
	DW	0fd85H
	DW	0faedH
	DW	0f930H
	DW	0fa94H
	DW	0fda4H
	DW	0f9fcH
	DW	0fcbdH
	DW	0fa8bH
	DW	0ff79H
	DW	0f9ccH
	DW	0fedeH
	DW	0f97aH
	DW	0fd38H
	DW	0f825H
	DW	0f9a0H
	DW	0f981H
	DW	0ffe5H
	DW	0f72eH
	DW	0fcd5H
	DW	0fb7bH
	DW	0b8H
	DW	0fb0fH
	DW	0bdH
	DW	0faa9H
	DW	024aH
	DW	0f825H
	DW	0c9H
	DW	0fceaH
	DW	02c8H
	DW	0fb46H
	DW	03H
	DW	0fbf7H
	DW	0328H
	DW	0fb1dH
	DW	033eH
	DW	0ff91H
	DW	027bH
	DW	0f99cH
	DW	01bfH
	DW	0fe31H
	DW	0fc4bH
	DW	0fe43H
	DW	0fc60H
	DW	0fe08H
	DW	0fb76H
	DW	0fe0bH
	DW	0fb45H
	DW	090H
	DW	0fea1H
	DW	0fe8cH
	DW	0fbe4H
	DW	0fee5H
	DW	0fbddH
	DW	0fee9H
	DW	0fb9dH
	DW	0fdc1H
	DW	0fa62H
	DW	0fdb5H
	DW	0f9b2H
	DW	0fc59H
	DW	0fc28H
	DW	0e5H
	DW	02b2H
	DW	0fc67H
	DW	0fd31H
	DW	0fe6dH
	DW	0552H
	DW	0fd53H
	DW	0fe2fH
	DW	036aH
	DW	018dH
	DW	0fe03H
	DW	0ffd2H
	DW	013dH
	DW	0536H
	DW	0fe1bH
	DW	01c8H
	DW	032dH
	DW	01b7H
	DW	0fe65H
	DW	0153H
	DW	0382H
	DW	042bH
	DW	0fe57H
	DW	02eH
	DW	05a1H
	DW	01f1H
	DW	0fc73H
	DW	0fce0H
	DW	05b9H
	DW	0416H
	DW	0ff02H
	DW	0febfH
	DW	0596H
	DW	048dH
	DW	044H
	DW	015eH
	DW	040aH
	DW	029aH
	DW	0172H
	DW	0bH
	DW	051fH
	DW	0316H
	DW	08fH
	DW	0e8H
	DW	0411H
	DW	061aH
	DW	0ff8eH
	DW	0297H
	DW	0650H
	DW	0436H
	DW	01c6H
	DW	0243H
	DW	04fbH
	DW	0410H
	DW	0ffb4H
	DW	038dH
	DW	02f0H
	DW	042bH
	DW	099H
	DW	0200H
	DW	015cH
	DW	04beH
	DW	0266H
	DW	0181H
	DW	0733H
	DW	0328H
	DW	010dH
	DW	040aH
	DW	0cbH
	DW	043eH
	DW	028cH
	DW	03f9H
	DW	06f7H
	DW	046aH
	DW	01adH
	DW	052fH
	DW	0183H
	DW	0568H
	DW	0ffcfH
	DW	049fH
	DW	0ffb8H
	DW	04bfH
	DW	0fe60H
	DW	03e9H
	DW	0220H
	DW	06d5H
	DW	0fea0H
	DW	04c7H
	DW	0fe0aH
	DW	04afH
	DW	0fdb3H
	DW	0239H
	DW	0ff1dH
	DW	065eH
	DW	0ff72H
	DW	062aH
	DW	0ff1aH
	DW	06b3H
	DW	0fd36H
	DW	0508H
	DW	0fcbaH
	DW	0576H
	DW	046bH
	DW	054dH
	DW	0ff30H
	DW	04d0H
	DW	01b5H
	DW	03c5H
	DW	0fc5fH
	DW	0332H
	DW	032bH
	DW	0582H
	DW	035bH
	DW	05e3H
	DW	0a4H
	DW	04bcH
	DW	056bH
	DW	0701H
	DW	01e4H
	DW	0752H
	DW	01c8H
	DW	080fH
	DW	03e4H
	DW	0492H
	DW	052eH
	DW	057aH
	DW	0524H
	DW	0550H
	DW	046fH
	DW	04eeH
	DW	04d2H
	DW	0652H
	DW	0551H
	DW	06e8H
	DW	058dH
	DW	04cbH
	DW	0630H
	DW	0543H
	DW	0356H
	DW	02a0H
	DW	0695H
	DW	061eH
	DW	0473H
	DW	04f6H
	DW	07e0H
	DW	0721H
	DW	06edH
	DW	062dH
	DW	05fcH
	DW	05b4H
	DW	05cfH
	DW	03b2H
	DW	067bH
	DW	03fdH
	DW	06d0H
	DW	04bcH
	DW	0570H
	DW	03d1H
	DW	06ecH
	DW	0489H
	DW	0722H
	DW	048cH
	DW	06b6H
	DW	0595H
	DW	07b5H
	DW	0637H
	DW	04a1H
	DW	0360H
	DW	0854H
	DW	0425H
	DW	0707H
	DW	032eH
	DW	072eH
	DW	02f5H
	DW	0838H
	DW	0523H
	DW	0806H
	DW	04eaH
	DW	0841H
	DW	0393H
	DW	091bH
	DW	03a2H
	DW	05bbH
	DW	047bH
	DW	0a1eH
	DW	059fH
	DW	08c5H
	DW	06d0H
	DW	082aH
	DW	0654H
	DW	0936H
	DW	05aeH
	DW	0a6aH
	DW	05e2H
	DW	0754H
	DW	072dH
	DW	0816H
	DW	07b7H
	DW	06cbH
	DW	0629H
	DW	02aaH
	DW	0509H
	DW	0630H
	DW	07fdH
	DW	05aeH
	DW	0832H
	DW	09c2H
	DW	07d4H
	DW	0a97H
	DW	0812H
	DW	02d6H
	DW	0634H
	DW	0ac4H
	DW	0920H
	DW	0e4H
	DW	034fH
	DW	0998H
	DW	067bH
	DW	024H
	DW	012dH
	DW	0796H
	DW	07a5H
	DW	0fe42H
	DW	0ffa0H
	DW	086aH
	DW	0574H
	DW	05fdH
	DW	044dH
	DW	0eH
	DW	0260H
	DW	0fc65H
	DW	0fd24H
	DW	0567H
	DW	07beH
	DW	0541H
	DW	03b8H
	DW	0fd58H
	DW	0141H
	DW	0501H
	DW	04f4H
	DW	0f9c6H
	DW	016dH
	DW	03adH
	DW	03b2H
	DW	0f937H
	DW	0fccaH
	DW	0946H
	DW	0ae3H
	DW	071dH
	DW	0ae4H
_dico3_lsf DW	0f8ecH
	DW	0f71dH
	DW	0f8a9H
	DW	0f617H
	DW	0f998H
	DW	0f8c8H
	DW	0f961H
	DW	0f82cH
	DW	0fb3cH
	DW	0f888H
	DW	0fb3bH
	DW	0f7c6H
	DW	0f9e9H
	DW	0f9ccH
	DW	0f9dbH
	DW	0f9ecH
	DW	0fb55H
	DW	0f9b1H
	DW	0fb38H
	DW	0f941H
	DW	0fab1H
	DW	0fb81H
	DW	0f9b0H
	DW	0f864H
	DW	0fb06H
	DW	0fa91H
	DW	0fae7H
	DW	0fa85H
	DW	0f9b9H
	DW	0fb65H
	DW	0f974H
	DW	0fae1H
	DW	0fa5dH
	DW	0fa3aH
	DW	0faa9H
	DW	0fc7eH
	DW	0fb18H
	DW	0fbddH
	DW	0facdH
	DW	0fb92H
	DW	0fc2aH
	DW	0fb93H
	DW	0fb83H
	DW	0fa20H
	DW	0fbc8H
	DW	0fae4H
	DW	0fc04H
	DW	0fb61H
	DW	0fc2cH
	DW	0fa32H
	DW	0fc39H
	DW	0fa29H
	DW	0fc24H
	DW	0fc66H
	DW	0fbe9H
	DW	0fbcbH
	DW	0fcbaH
	DW	0fb65H
	DW	0fca6H
	DW	0fb3aH
	DW	0fb95H
	DW	0fbefH
	DW	0fbd8H
	DW	0fd01H
	DW	0fc98H
	DW	0fb7bH
	DW	0fd43H
	DW	0fc90H
	DW	0fd3eH
	DW	0fc76H
	DW	0fcfaH
	DW	0fc08H
	DW	0fdbeH
	DW	0fbc8H
	DW	0fcdfH
	DW	0fa3aH
	DW	0fdb1H
	DW	0fba9H
	DW	0fdb0H
	DW	0fb86H
	DW	0fd37H
	DW	0fa94H
	DW	0fd80H
	DW	0faa0H
	DW	0fdabH
	DW	0fbddH
	DW	0fe60H
	DW	0fc79H
	DW	0fd52H
	DW	0fcc0H
	DW	0fd6bH
	DW	0fd3cH
	DW	0fe44H
	DW	0fc9cH
	DW	0fe16H
	DW	0fc67H
	DW	0fe8aH
	DW	0fcf8H
	DW	0fd95H
	DW	0fb6eH
	DW	0fdb7H
	DW	0fddbH
	DW	0fcffH
	DW	0fce5H
	DW	0fe4dH
	DW	0fd6dH
	DW	0fdeeH
	DW	0fd1bH
	DW	0fe0eH
	DW	0fcbbH
	DW	0fe9bH
	DW	0fdabH
	DW	0fee9H
	DW	0fc99H
	DW	0ff0dH
	DW	0fc89H
	DW	0fee6H
	DW	0fd67H
	DW	0fee8H
	DW	0fd65H
	DW	0ff5bH
	DW	0fdd0H
	DW	0fe76H
	DW	0fc79H
	DW	0fe96H
	DW	0fe66H
	DW	0fe40H
	DW	0fdb9H
	DW	0fe67H
	DW	0fdc2H
	DW	0fec7H
	DW	0fe9bH
	DW	0fd83H
	DW	0fddcH
	DW	0fdc6H
	DW	0fe4cH
	DW	0fc80H
	DW	0fe08H
	DW	0fe82H
	DW	0fd0bH
	DW	0ffc6H
	DW	0fe1fH
	DW	0ff5bH
	DW	0fd96H
	DW	0ff41H
	DW	0fe8aH
	DW	0ff16H
	DW	0fe82H
	DW	0ff22H
	DW	0fd55H
	DW	0ffe7H
	DW	0fe20H
	DW	0fe5eH
	DW	0fe99H
	DW	0fd26H
	DW	0fe9fH
	DW	0febcH
	DW	0ff63H
	DW	0fe50H
	DW	0febeH
	DW	0fe76H
	DW	0fed1H
	DW	0fee4H
	DW	0ff98H
	DW	0fda7H
	DW	0fedfH
	DW	0fdd4H
	DW	0ff3cH
	DW	0fdb4H
	DW	0ff6aH
	DW	0fd6dH
	DW	0fda0H
	DW	0fe27H
	DW	0ffe8H
	DW	0ffbcH
	DW	0fe40H
	DW	0fe26H
	DW	0fff8H
	DW	0fe06H
	DW	0ffd3H
	DW	0fd14H
	DW	0ff48H
	DW	0fcb4H
	DW	0ff04H
	DW	0fc7bH
	DW	0ffa5H
	DW	0fdb8H
	DW	0ff9fH
	DW	0fd74H
	DW	08aH
	DW	0fd04H
	DW	0ff7dH
	DW	0fd5aH
	DW	0fff4H
	DW	0fd62H
	DW	0a5H
	DW	0fefdH
	DW	0fffdH
	DW	0fcb8H
	DW	0ff95H
	DW	0fc73H
	DW	025H
	DW	0fc20H
	DW	02cH
	DW	0fcaaH
	DW	0fe61H
	DW	0fcb9H
	DW	0dH
	DW	0fc17H
	DW	0fef1H
	DW	0fbfeH
	DW	0fecbH
	DW	0fce2H
	DW	0fe22H
	DW	0fcc0H
	DW	0fe18H
	DW	0fc51H
	DW	0a8H
	DW	0fba8H
	DW	0fe7dH
	DW	0fb5fH
	DW	0ff9bH
	DW	0fb61H
	DW	0ffd8H
	DW	0fc53H
	DW	0fec4H
	DW	0fbfaH
	DW	0fcfeH
	DW	0fbecH
	DW	0fd8fH
	DW	0fbc7H
	DW	0fde6H
	DW	0fb38H
	DW	0fed5H
	DW	0fae0H
	DW	0fe4cH
	DW	0fb53H
	DW	0fd69H
	DW	0fb71H
	DW	0ff5fH
	DW	0fb40H
	DW	0fd4eH
	DW	0fb2bH
	DW	0fcc1H
	DW	0fa68H
	DW	0fd30H
	DW	0fa85H
	DW	0fe13H
	DW	0fc7eH
	DW	0fd1cH
	DW	0fc66H
	DW	0fcdfH
	DW	0fbb2H
	DW	0fe6eH
	DW	0f9d5H
	DW	0fc3cH
	DW	0fbdbH
	DW	0fd82H
	DW	0fb0bH
	DW	0fa62H
	DW	0fa25H
	DW	0fc5aH
	DW	0fa22H
	DW	0fc81H
	DW	0f9c2H
	DW	0fdccH
	DW	0f945H
	DW	0fd33H
	DW	0fda2H
	DW	0fdabH
	DW	0fb72H
	DW	0fbc3H
	DW	0faa7H
	DW	0fe2cH
	DW	0f866H
	DW	0fa2bH
	DW	0f8d2H
	DW	0fc47H
	DW	0f874H
	DW	0fc5dH
	DW	0fa25H
	DW	0ff44H
	DW	0f99dH
	DW	0fe5bH
	DW	0fa4fH
	DW	0feaeH
	DW	0fa58H
	DW	0ffeaH
	DW	0f86aH
	DW	0fe5aH
	DW	0f82aH
	DW	0ff07H
	DW	0fe10H
	DW	0ff8eH
	DW	0f88aH
	DW	0fd0dH
	DW	0faf7H
	DW	0aeH
	DW	0fa55H
	DW	0ff93H
	DW	0fe1eH
	DW	0feffH
	DW	0fb3bH
	DW	0fe04H
	DW	0f9afH
	DW	097H
	DW	0f962H
	DW	0d0H
	DW	0fd72H
	DW	06bH
	DW	0f98dH
	DW	01dH
	DW	0fb8bH
	DW	0117H
	DW	0fb41H
	DW	0132H
	DW	0fb34H
	DW	0fe06H
	DW	0fd26H
	DW	0ff51H
	DW	0fb2cH
	DW	0ff9bH
	DW	0fc37H
	DW	0227H
	DW	0fc9aH
	DW	0116H
	DW	0fcc9H
	DW	013bH
	DW	0fdcdH
	DW	0178H
	DW	0fbe5H
	DW	0e4H
	DW	0fe05H
	DW	0118H
	DW	0fda9H
	DW	0119H
	DW	0fd0aH
	DW	0fdH
	DW	0fecfH
	DW	017bH
	DW	0fd0dH
	DW	0ff7aH
	DW	0fd9dH
	DW	0294H
	DW	0fcc8H
	DW	0218H
	DW	0fccfH
	DW	0286H
	DW	0fe63H
	DW	031H
	DW	0feabH
	DW	0b1H
	DW	0fe3bH
	DW	020eH
	DW	0fe1eH
	DW	024dH
	DW	0ffb9H
	DW	0153H
	DW	0fd6fH
	DW	0108H
	DW	0ff0cH
	DW	0127H
	DW	0ff13H
	DW	013bH
	DW	0fe7dH
	DW	0239H
	DW	0fe06H
	DW	0fff7H
	DW	0fe87H
	DW	0eH
	DW	0ff60H
	DW	0295H
	DW	0ff28H
	DW	028H
	DW	0feccH
	DW	0ffd2H
	DW	05fH
	DW	0d6H
	DW	0ff0eH
	DW	0a7H
	DW	0ffaaH
	DW	0c0H
	DW	0ffc8H
	DW	01bH
	DW	0ffb4H
	DW	01fH
	DW	024H
	DW	0135H
	DW	0ff96H
	DW	0ff4aH
	DW	0ff8fH
	DW	04aH
	DW	0fe47H
	DW	0ffeaH
	DW	017H
	DW	08bH
	DW	051H
	DW	0fff5H
	DW	02cH
	DW	0fH
	DW	0ffa9H
	DW	0ff77H
	DW	0ff8aH
	DW	0ff31H
	DW	0ff62H
	DW	0ffc6H
	DW	0110H
	DW	0ffa4H
	DW	0ff64H
	DW	0fe47H
	DW	08H
	DW	0ff78H
	DW	080H
	DW	0ff23H
	DW	065H
	DW	0ff26H
	DW	028H
	DW	0ff3bH
	DW	0ffb4H
	DW	0fe38H
	DW	09H
	DW	0fe43H
	DW	021H
	DW	0fe59H
	DW	0e2H
	DW	03cH
	DW	049H
	DW	0ff22H
	DW	09cH
	DW	0fe71H
	DW	0118H
	DW	0fec2H
	DW	0f5H
	DW	0feabH
	DW	0a6H
	DW	0fe0dH
	DW	0153H
	DW	0ff42H
	DW	0147H
	DW	0ff25H
	DW	0145H
	DW	0ff77H
	DW	0ffa7H
	DW	0fdacH
	DW	064H
	DW	0fd8dH
	DW	090H
	DW	0fd5bH
	DW	01e7H
	DW	01cH
	DW	0fcH
	DW	0fe79H
	DW	0d6H
	DW	0ffd7H
	DW	011aH
	DW	0ffe4H
	DW	063H
	DW	0fee2H
	DW	014bH
	DW	031H
	DW	01cbH
	DW	0fe7cH
	DW	0235H
	DW	0fe8fH
	DW	01b4H
	DW	01cH
	DW	0150H
	DW	0fff7H
	DW	018dH
	DW	0ff59H
	DW	026aH
	DW	022H
	DW	0254H
	DW	0ffefH
	DW	0231H
	DW	0ff74H
	DW	012bH
	DW	04fH
	DW	020aH
	DW	07dH
	DW	0cbH
	DW	02H
	DW	0f4H
	DW	0120H
	DW	0ffH
	DW	0d3H
	DW	0afH
	DW	052H
	DW	0254H
	DW	0bbH
	DW	0205H
	DW	06cH
	DW	017dH
	DW	0ffH
	DW	016dH
	DW	0129H
	DW	01f1H
	DW	0160H
	DW	0147H
	DW	0ffaeH
	DW	019H
	DW	0d2H
	DW	0173H
	DW	0f5H
	DW	0105H
	DW	03H
	DW	0221H
	DW	01c1H
	DW	08cH
	DW	0126H
	DW	02cH
	DW	0127H
	DW	0d4H
	DW	015bH
	DW	0f4H
	DW	01eeH
	DW	014bH
	DW	0210H
	DW	0c9H
	DW	0133H
	DW	015dH
	DW	019bH
	DW	0265H
	DW	011cH
	DW	0266H
	DW	019dH
	DW	01d0H
	DW	0142H
	DW	0270H
	DW	018dH
	DW	061H
	DW	0c8H
	DW	0ff60H
	DW	0180H
	DW	095H
	DW	016aH
	DW	01efH
	DW	020dH
	DW	010dH
	DW	0249H
	DW	021H
	DW	01ebH
	DW	0ff87H
	DW	01b1H
	DW	01abH
	DW	0263H
	DW	01f2H
	DW	0204H
	DW	0abH
	DW	01bbH
	DW	01f1H
	DW	029aH
	DW	01b8H
	DW	0113H
	DW	0236H
	DW	023fH
	DW	092H
	DW	027fH
	DW	09bH
	DW	029eH
	DW	0ffdfH
	DW	0adH
	DW	0d4H
	DW	02b8H
	DW	0ff5aH
	DW	0259H
	DW	0ff41H
	DW	02b7H
	DW	0fe17H
	DW	01f7H
	DW	0afH
	DW	02e6H
	DW	0d6H
	DW	01dcH
	DW	0174H
	DW	043bH
	DW	0242H
	DW	0212H
	DW	024aH
	DW	0309H
	DW	01a9H
	DW	036aH
	DW	013bH
	DW	0349H
	DW	0176H
	DW	0350H
	DW	0ff5bH
	DW	0235H
	DW	023H
	DW	03dfH
	DW	0ffd9H
	DW	0426H
	DW	0149H
	DW	02c8H
	DW	0312H
	DW	0348H
	DW	0285H
	DW	031bH
	DW	0295H
	DW	02a4H
	DW	023bH
	DW	0396H
	DW	0278H
	DW	0437H
	DW	02a1H
	DW	0331H
	DW	013eH
	DW	0184H
	DW	036aH
	DW	03f4H
	DW	0234H
	DW	0350H
	DW	0370H
	DW	026cH
	DW	022dH
	DW	01dfH
	DW	029fH
	DW	01c5H
	DW	02b4H
	DW	01d4H
	DW	0348H
	DW	0282H
	DW	034cH
	DW	0285H
	DW	01faH
	DW	01acH
	DW	0381H
	DW	0237H
	DW	0345H
	DW	0183H
	DW	03c2H
	DW	01f3H
	DW	02b3H
	DW	0231H
	DW	03abH
	DW	039eH
	DW	030fH
	DW	0128H
	DW	0316H
	DW	010cH
	DW	0404H
	DW	0212H
	DW	036aH
	DW	0149H
	DW	0224H
	DW	08fH
	DW	02a3H
	DW	0123H
	DW	01f7H
	DW	042H
	DW	0411H
	DW	0167H
	DW	0312H
	DW	061H
	DW	0325H
	DW	021H
	DW	0345H
	DW	01d6H
	DW	01ffH
	DW	031H
	DW	0444H
	DW	0147H
	DW	0496H
	DW	0143H
	DW	03H
	DW	0f2H
	DW	0368H
	DW	01daH
	DW	02b1H
	DW	01adH
	DW	0531H
	DW	02a6H
	DW	0412H
	DW	026cH
	DW	0455H
	DW	0298H
	DW	0141H
	DW	0c1H
	DW	0379H
	DW	03b6H
	DW	0481H
	DW	036aH
	DW	037dH
	DW	027bH
	DW	036dH
	DW	035eH
	DW	03b4H
	DW	0391H
	DW	050dH
	DW	0299H
	DW	0528H
	DW	027fH
	DW	03e5H
	DW	0319H
	DW	057aH
	DW	0406H
	DW	0498H
	DW	03f4H
	DW	0456H
	DW	03bfH
	DW	0582H
	DW	039dH
	DW	057bH
	DW	0393H
	DW	021fH
	DW	035eH
	DW	045cH
	DW	04c6H
	DW	0343H
	DW	04a6H
	DW	0343H
	DW	04a6H
	DW	03bfH
	DW	047cH
	DW	047bH
	DW	0560H
	DW	0514H
	DW	04a9H
	DW	0587H
	DW	04cfH
	DW	0537H
	DW	053dH
	DW	02eaH
	DW	0444H
	DW	06afH
	DW	0503H
	DW	056dH
	DW	0431H
	DW	0536H
	DW	061eH
	DW	0481H
	DW	05c3H
	DW	066dH
	DW	0471H
	DW	0721H
	DW	04c4H
	DW	0420H
	DW	0566H
	DW	05f1H
	DW	06c2H
	DW	0660H
	DW	0609H
	DW	0654H
	DW	0606H
	DW	0357H
	DW	063cH
	DW	0361H
	DW	0683H
	DW	02b5H
	DW	0375H
	DW	06b4H
	DW	05efH
	DW	048fH
	DW	0510H
	DW	08a1H
	DW	06e0H
	DW	07a0H
	DW	05d5H
	DW	07e4H
	DW	05caH
	DW	05feH
	DW	074aH
	DW	069eH
	DW	07d8H
	DW	061eH
	DW	02ecH
	DW	06e1H
	DW	0339H
	DW	0126H
	DW	0570H
	DW	043cH
	DW	080aH
	DW	026dH
	DW	0523H
	DW	016dH
	DW	0507H
	DW	0c6H
	DW	0404H
	DW	01e8H
	DW	0580H
	DW	0f9H
	DW	0193H
	DW	03f6H
	DW	0619H
	DW	0144H
	DW	016bH
	DW	066dH
	DW	0414H
	DW	0c1H
	DW	016fH
	DW	07f2H
	DW	0743H
	DW	0ff05H
	DW	0243H
	DW	02eeH
	DW	03e2H
	DW	0ff0dH
	DW	01eH
	DW	052dH
	DW	036fH
	DW	0ffe4H
	DW	0ff57H
	DW	0270H
	DW	0395H
	DW	0fe3bH
	DW	09fH
	DW	0baH
	DW	055aH
	DW	0fd9aH
	DW	06H
	DW	0219H
	DW	0188H
	DW	0ffa2H
	DW	0feddH
	DW	030dH
	DW	0e5H
	DW	0ff80H
	DW	0fed6H
	DW	0f5H
	DW	01ebH
	DW	0fd43H
	DW	0fd78H
	DW	03ccH
	DW	0315H
	DW	0fe0bH
	DW	0fd80H
	DW	0b2H
	DW	0ffH
	DW	0fe93H
	DW	0fe7aH
	DW	0ff01H
	DW	013dH
	DW	0fc42H
	DW	0fedaH
	DW	0ff41H
	DW	0e4H
	DW	0fcf9H
	DW	0fe41H
	DW	09dH
	DW	0ff13H
	DW	0fd6fH
	DW	0fd30H
	DW	0fe69H
	DW	05cH
	DW	0ff8bH
	DW	0fd9dH
	DW	014eH
	DW	0ff1aH
	DW	0fd59H
	DW	0fbc4H
	DW	0ff70H
	DW	0fec3H
	DW	0fc7bH
	DW	0fca3H
	DW	0fd1eH
	DW	0fe98H
	DW	0ffabH
	DW	0fd29H
	DW	0ffa6H
	DW	0fcedH
	DW	064H
	DW	0ffeaH
	DW	0fe79H
	DW	0fef9H
	DW	0ffc8H
	DW	0ffb7H
	DW	0feafH
	DW	0fd0eH
	DW	05H
	DW	0ff43H
	DW	0fd3eH
	DW	0fd90H
	DW	059H
	DW	0fea8H
	DW	0ff79H
	DW	0fba7H
	DW	0fe9fH
	DW	0ff13H
	DW	0fd54H
	DW	0fb91H
	DW	0feedH
	DW	0fbb2H
	DW	0fef3H
	DW	0fb4dH
	DW	098H
	DW	091H
	DW	0fd2eH
	DW	0fb30H
	DW	031H
	DW	050H
	DW	0fb20H
	DW	0fcf8H
	DW	0ff08H
	DW	0187H
	DW	0fd24H
	DW	0fdddH
	DW	01d5H
	DW	0daH
	DW	0ff01H
	DW	0fca0H
	DW	045H
	DW	016eH
	DW	0ff5aH
	DW	0fe1bH
	DW	0fd50H
	DW	0bfH
	DW	0fb44H
	DW	0fb54H
	DW	0ff56H
	DW	0ff57H
	DW	0fae4H
	DW	0f9a1H
	DW	0141H
	DW	01d6H
	DW	0fa75H
	DW	0fb25H
	DW	0ffc0H
	DW	0110H
	DW	0faafH
	DW	0ff08H
	DW	01ecH
	DW	0235H
	DW	0fd2fH
	DW	0fd9fH
	DW	0c3H
	DW	01e5H
	DW	0fdc3H
	DW	0ff7bH
	DW	01abH
	DW	0caH
	DW	0ff55H
	DW	0ff8aH
	DW	0c7H
	DW	023fH
	DW	02H
	DW	0ffe1H
	DW	02b6H
	DW	02f3H
	DW	0faaaH
	DW	0ffd9H
	DW	0228H
	DW	022dH
	DW	0fe17H
	DW	010fH
	DW	02a8H
	DW	0219H
	DW	0dH
	DW	0fe3bH
	DW	0357H
	DW	03baH
	DW	0ff7bH
	DW	0ffccH
	DW	0ffafH
	DW	02e2H
	DW	0fb6fH
	DW	027dH
	DW	041fH
	DW	0423H
	DW	0ffa1H
	DW	02a4H
	DW	04ebH
	DW	0439H
	DW	01e9H
	DW	0131H
	DW	0fe3fH
	DW	03baH
	DW	0fdeaH
	DW	03e4H
	DW	0fc37H
	DW	0362H
	DW	0fbdeH
	DW	0423H
	DW	0faf2H
	DW	026aH
	DW	0fa78H
	DW	0269H
	DW	0fe36H
	DW	0556H
	DW	0ff61H
	DW	071dH
	DW	0fcfaH
	DW	0fdf0H
	DW	0fff2H
	DW	0456H
	DW	0fb4eH
	DW	0fc7bH
	DW	0fcfcH
	DW	01b1H
	DW	0fb18H
	DW	0fb19H
	DW	0fc0dH
	DW	0fed2H
	DW	0fda6H
	DW	0fdb7H
	DW	0fd09H
	DW	0f9aeH
	DW	0fd08H
	DW	0f9f3H
	DW	0fcb8H
	DW	0f87fH
	DW	0fcd0H
	DW	0fde5H
	DW	0f917H
	DW	0f745H
	DW	0ff1dH
	DW	0ffdcH
	DW	0f80eH
	DW	0f8d9H
	DW	0f7c5H
	DW	0fb9aH
	DW	0f659H
	DW	0f8e8H
	DW	0fa42H
	DW	0fcH
	DW	0f573H
	DW	0fe61H
	DW	0fdc5H
	DW	0fe2dH
	DW	05e5H
	DW	0612H
	DW	0884H
	DW	07b7H
	DW	0916H
	DW	07e4H
_dico4_lsf DW	0f8bfH
	DW	0f96fH
	DW	0f8bfH
	DW	0f925H
	DW	0f7f8H
	DW	0fb82H
	DW	0f7aaH
	DW	0f98aH
	DW	0f9adH
	DW	0fbb5H
	DW	0f958H
	DW	0fb95H
	DW	0fabfH
	DW	0f9b8H
	DW	0fab1H
	DW	0f99aH
	DW	0fac6H
	DW	0faf3H
	DW	0fad3H
	DW	0fb0fH
	DW	0f980H
	DW	0f98fH
	DW	0fa31H
	DW	0fcadH
	DW	0fabeH
	DW	0f8d8H
	DW	0fa7bH
	DW	0f774H
	DW	0fafeH
	DW	0fd57H
	DW	0f907H
	DW	0f98fH
	DW	0fc3aH
	DW	0fbc6H
	DW	0fb61H
	DW	0f974H
	DW	0fbe2H
	DW	0fbcfH
	DW	0fb8aH
	DW	0fb7aH
	DW	0fb49H
	DW	0fd18H
	DW	0fb06H
	DW	0fc1bH
	DW	0fc5aH
	DW	0fa99H
	DW	0fc61H
	DW	0fa78H
	DW	0fc0eH
	DW	0fae7H
	DW	0fcf1H
	DW	0fc45H
	DW	0fbe7H
	DW	0fc7cH
	DW	0fc1fH
	DW	0fccfH
	DW	0fd1fH
	DW	0fcc9H
	DW	0fc34H
	DW	0fb5bH
	DW	0fd1eH
	DW	0fbbaH
	DW	0fd1eH
	DW	0fb7eH
	DW	0fcf0H
	DW	0fcdfH
	DW	0fcd6H
	DW	0fceeH
	DW	0fc84H
	DW	0fdf8H
	DW	0fc18H
	DW	0fcceH
	DW	0fd7cH
	DW	0fc3bH
	DW	0fdbfH
	DW	0fc8eH
	DW	0fde3H
	DW	0fd4aH
	DW	0fd61H
	DW	0fc6bH
	DW	0fdadH
	DW	0fd7eH
	DW	0fd7aH
	DW	0fd99H
	DW	0fc44H
	DW	0fd93H
	DW	0fc63H
	DW	0fdfdH
	DW	0fd29H
	DW	0fe1dH
	DW	0fcd1H
	DW	0fe1bH
	DW	0fcb8H
	DW	0fdbeH
	DW	0fe48H
	DW	0fd37H
	DW	0fdbeH
	DW	0febbH
	DW	0fd6fH
	DW	0fd62H
	DW	0fe7eH
	DW	0fdc6H
	DW	0fe47H
	DW	0fd66H
	DW	0fdfeH
	DW	0fcedH
	DW	0fe78H
	DW	0fdefH
	DW	0fdf6H
	DW	0fe3bH
	DW	0fe19H
	DW	0fe59H
	DW	0fd98H
	DW	0fdb7H
	DW	0fd97H
	DW	0ff63H
	DW	0fd6aH
	DW	0fef4H
	DW	0fd58H
	DW	0fea4H
	DW	0febeH
	DW	0febdH
	DW	0fd88H
	DW	0fe44H
	DW	0fed0H
	DW	0fe52H
	DW	0feb4H
	DW	0fe36H
	DW	0feebH
	DW	0fe2cH
	DW	0fd6dH
	DW	0fce7H
	DW	0fec1H
	DW	0fd84H
	DW	0ff1dH
	DW	0fdd6H
	DW	0fe8bH
	DW	0fea5H
	DW	0feb2H
	DW	0ff2eH
	DW	0fe38H
	DW	0ff40H
	DW	0fdeeH
	DW	0ff0eH
	DW	0ff28H
	DW	0ff3aH
	DW	0fe92H
	DW	0fe8eH
	DW	0feaeH
	DW	0ff5fH
	DW	0fe67H
	DW	0fd14H
	DW	0ff95H
	DW	0fe84H
	DW	0fedaH
	DW	0fd7dH
	DW	0ff21H
	DW	0fd67H
	DW	0ff16H
	DW	0fd1bH
	DW	0ff73H
	DW	0fe10H
	DW	0ff7eH
	DW	0fe02H
	DW	0ff75H
	DW	0feb9H
	DW	0ff54H
	DW	0fecfH
	DW	0feceH
	DW	0fdbcH
	DW	0ff5cH
	DW	0fef9H
	DW	0fefaH
	DW	0ff54H
	DW	0ffbdH
	DW	0fe6eH
	DW	01fH
	DW	0fe92H
	DW	0fff6H
	DW	0fe4cH
	DW	0ffaaH
	DW	0fdf1H
	DW	047H
	DW	0fe87H
	DW	0ffeaH
	DW	0fd9fH
	DW	0fff4H
	DW	0fd5aH
	DW	0ffbdH
	DW	0fec1H
	DW	03fH
	DW	0ff41H
	DW	023H
	DW	0ff4bH
	DW	0ffd9H
	DW	0ff0eH
	DW	07eH
	DW	0ff59H
	DW	0ff74H
	DW	0fde0H
	DW	09bH
	DW	0fed7H
	DW	0aeH
	DW	0fed7H
	DW	026H
	DW	0fff8H
	DW	075H
	DW	0fe84H
	DW	0c5H
	DW	0fe3cH
	DW	0f0H
	DW	0fdf6H
	DW	0dfH
	DW	0ff99H
	DW	06eH
	DW	0ff45H
	DW	057H
	DW	0ff65H
	DW	0a9H
	DW	0ffd1H
	DW	09dH
	DW	01aH
	DW	0ffadH
	DW	0ff9cH
	DW	080H
	DW	050H
	DW	0d1H
	DW	0ffc2H
	DW	06H
	DW	07H
	DW	016H
	DW	05H
	DW	013eH
	DW	0ffecH
	DW	0f8H
	DW	0ffd3H
	DW	0ff38H
	DW	0ffc1H
	DW	09cH
	DW	0ffbbH
	DW	0faH
	DW	0ff49H
	DW	0171H
	DW	0ff82H
	DW	0ff8fH
	DW	0ffb4H
	DW	0ff72H
	DW	0ff86H
	DW	0ffc0H
	DW	0ff02H
	DW	0ffe1H
	DW	023H
	DW	0ff4fH
	DW	0ffb9H
	DW	0fff9H
	DW	0abH
	DW	05dH
	DW	01bH
	DW	06cH
	DW	0d4H
	DW	0feb6H
	DW	0ff2fH
	DW	0ff85H
	DW	0ffbaH
	DW	0fee9H
	DW	05fH
	DW	0ffa0H
	DW	014H
	DW	0ff44H
	DW	0ffc3H
	DW	0fec6H
	DW	057H
	DW	0fed4H
	DW	0ffb2H
	DW	0fe9eH
	DW	0ff7aH
	DW	0bH
	DW	07aH
	DW	0ff74H
	DW	07aH
	DW	0feedH
	DW	098H
	DW	0fedbH
	DW	08cH
	DW	0ffaeH
	DW	08aH
	DW	0febfH
	DW	0ff91H
	DW	0fe20H
	DW	0ff64H
	DW	0fe99H
	DW	04cH
	DW	0ff02H
	DW	0ffd8H
	DW	0fd85H
	DW	0ffa0H
	DW	0fdf6H
	DW	04fH
	DW	0fe05H
	DW	08H
	DW	0fef4H
	DW	012fH
	DW	0fde5H
	DW	044H
	DW	0fe42H
	DW	03dH
	DW	0fdf6H
	DW	0132H
	DW	06fH
	DW	0bdH
	DW	0fe4dH
	DW	07aH
	DW	0fe85H
	DW	0a6H
	DW	0fdc5H
	DW	0fe72H
	DW	0fd88H
	DW	0ffb6H
	DW	0fd15H
	DW	0ffa1H
	DW	0fe39H
	DW	0c2H
	DW	0fc48H
	DW	053H
	DW	0fce2H
	DW	0c0H
	DW	0fd0dH
	DW	0c0H
	DW	0fcf3H
	DW	0ff5eH
	DW	0fd95H
	DW	0eaH
	DW	0fd69H
	DW	0fed7H
	DW	0fe18H
	DW	0ff93H
	DW	0fc3cH
	DW	0ff7cH
	DW	0fcbaH
	DW	0ffbcH
	DW	0fcb5H
	DW	03aH
	DW	0fba8H
	DW	0ffaaH
	DW	0fcdbH
	DW	0fed5H
	DW	0fc50H
	DW	0ff03H
	DW	0fcf6H
	DW	0ffceH
	DW	0fc3bH
	DW	0fddbH
	DW	0fea0H
	DW	0ff9eH
	DW	0fc20H
	DW	0fea9H
	DW	0fba3H
	DW	0fec5H
	DW	0fba3H
	DW	0fecdH
	DW	0fb7dH
	DW	0fe8aH
	DW	0fd83H
	DW	0ff1aH
	DW	0fb72H
	DW	0ffd5H
	DW	0faedH
	DW	0ff9cH
	DW	0fc63H
	DW	0fe77H
	DW	0fb06H
	DW	0fda8H
	DW	0fd4fH
	DW	0ff7eH
	DW	0fa39H
	DW	0fec8H
	DW	0fad7H
	DW	0ff02H
	DW	0fa48H
	DW	0fe46H
	DW	0faf4H
	DW	0fd9bH
	DW	0fb13H
	DW	0fe09H
	DW	0fa23H
	DW	0fe90H
	DW	0fad6H
	DW	01aH
	DW	0fa68H
	DW	0ffbeH
	DW	0f931H
	DW	0ff5fH
	DW	0f994H
	DW	0fe2dH
	DW	0f920H
	DW	0fddcH
	DW	0fa8fH
	DW	0fdc8H
	DW	0f9ecH
	DW	0fc99H
	DW	0fa29H
	DW	0fbf6H
	DW	0fa95H
	DW	0fdc5H
	DW	0f883H
	DW	0fdf0H
	DW	0f909H
	DW	0ff85H
	DW	0f897H
	DW	0ff19H
	DW	0f7faH
	DW	0febdH
	DW	0f7fcH
	DW	0fc76H
	DW	0f848H
	DW	0fdc9H
	DW	0f883H
	DW	0fd94H
	DW	0f801H
	DW	0fc23H
	DW	0fbcbH
	DW	0fe8eH
	DW	0f811H
	DW	0fd40H
	DW	0f6cdH
	DW	0fd13H
	DW	0f54cH
	DW	0fbbfH
	DW	0f88bH
	DW	09fH
	DW	0f824H
	DW	0f8H
	DW	0fd8eH
	DW	0ff85H
	DW	0f6ddH
	DW	0fc3eH
	DW	0fd63H
	DW	0fe68H
	DW	0fa9dH
	DW	0fb6aH
	DW	0fe3cH
	DW	0fe94H
	DW	0fbecH
	DW	0fd21H
	DW	0ff7cH
	DW	0b7H
	DW	0f9acH
	DW	0fd10H
	DW	0fdddH
	DW	0fecdH
	DW	0fcf7H
	DW	0fb13H
	DW	0ff9eH
	DW	029H
	DW	0fc90H
	DW	0fbbdH
	DW	0feffH
	DW	061H
	DW	0f9beH
	DW	0f8d7H
	DW	01fH
	DW	0ffe6H
	DW	0fd7cH
	DW	0fdcfH
	DW	0ff4cH
	DW	0fddeH
	DW	0fe7fH
	DW	0fbb9H
	DW	0fe66H
	DW	0fcdeH
	DW	0fe62H
	DW	0fcc5H
	DW	0fe37H
	DW	0fc36H
	DW	0fe16H
	DW	0fbabH
	DW	0ff29H
	DW	0fc6cH
	DW	0ff70H
	DW	0fc57H
	DW	0fe13H
	DW	0fb0bH
	DW	0fdfbH
	DW	0fa1dH
	DW	0b5H
	DW	065H
	DW	0feb4H
	DW	0fc87H
	DW	0fcbcH
	DW	0fc57H
	DW	0fdd1H
	DW	0fe53H
	DW	0fd8bH
	DW	0fdddH
	DW	0ff49H
	DW	0feafH
	DW	0fddfH
	DW	0ffaeH
	DW	0ff06H
	DW	0fee2H
	DW	05H
	DW	0ff7cH
	DW	0fea4H
	DW	0ff04H
	DW	0fedbH
	DW	0fe28H
	DW	0ff62H
	DW	064H
	DW	0ffe3H
	DW	0c5H
	DW	0ff14H
	DW	0fe58H
	DW	0fca3H
	DW	0ff2bH
	DW	0ff74H
	DW	0fff9H
	DW	0fe55H
	DW	0fe45H
	DW	0bbH
	DW	0ff9fH
	DW	0fd54H
	DW	0fd20H
	DW	0fedbH
	DW	0102H
	DW	0fe90H
	DW	0ff68H
	DW	0ff6aH
	DW	0188H
	DW	0fd9fH
	DW	0afH
	DW	0ff72H
	DW	012bH
	DW	0ff76H
	DW	098H
	DW	0ff89H
	DW	0149H
	DW	0fe1aH
	DW	0ffccH
	DW	0125H
	DW	0c6H
	DW	0ff49H
	DW	075H
	DW	0afH
	DW	014bH
	DW	0ffc6H
	DW	0feeeH
	DW	0e7H
	DW	012cH
	DW	0fee0H
	DW	014aH
	DW	0fecfH
	DW	0174H
	DW	0ff91H
	DW	0199H
	DW	0fff7H
	DW	01a7H
	DW	053H
	DW	0100H
	DW	043H
	DW	016fH
	DW	0ffedH
	DW	0f8H
	DW	05bH
	DW	071H
	DW	0ffddH
	DW	0196H
	DW	0ff41H
	DW	09aH
	DW	0eeH
	DW	0128H
	DW	05H
	DW	0c5H
	DW	08dH
	DW	0ddH
	DW	0139H
	DW	0c6H
	DW	0d3H
	DW	01a5H
	DW	0f4H
	DW	014eH
	DW	058H
	DW	01aaH
	DW	0ff0dH
	DW	01c6H
	DW	0caH
	DW	0228H
	DW	0fffbH
	DW	0193H
	DW	0123H
	DW	0b9H
	DW	0dbH
	DW	012dH
	DW	0fbH
	DW	08aH
	DW	080H
	DW	045H
	DW	0c5H
	DW	0120H
	DW	0ff74H
	DW	0ffc3H
	DW	0bcH
	DW	0169H
	DW	0c5H
	DW	0256H
	DW	01baH
	DW	0111H
	DW	0122H
	DW	08fH
	DW	01d8H
	DW	01e2H
	DW	09dH
	DW	0172H
	DW	019fH
	DW	0141H
	DW	0174H
	DW	0181H
	DW	0192H
	DW	0228H
	DW	09bH
	DW	018H
	DW	0226H
	DW	0107H
	DW	0fff5H
	DW	015H
	DW	0168H
	DW	0e3H
	DW	093H
	DW	0ff02H
	DW	01a8H
	DW	061H
	DW	016eH
	DW	0fff3H
	DW	0177H
	DW	08dH
	DW	01c1H
	DW	0e8H
	DW	018cH
	DW	01fbH
	DW	01daH
	DW	0110H
	DW	02bdH
	DW	0144H
	DW	016aH
	DW	0ffd1H
	DW	024bH
	DW	094H
	DW	021fH
	DW	045H
	DW	0190H
	DW	0ffcdH
	DW	0231H
	DW	03bH
	DW	0dcH
	DW	0fff6H
	DW	0160H
	DW	093H
	DW	0ceH
	DW	0d3H
	DW	028dH
	DW	0b9H
	DW	0233H
	DW	0129H
	DW	0235H
	DW	011cH
	DW	0252H
	DW	079H
	DW	02feH
	DW	0c0H
	DW	018eH
	DW	076H
	DW	0282H
	DW	01b2H
	DW	0e9H
	DW	0108H
	DW	01e1H
	DW	01d3H
	DW	081H
	DW	0ff5bH
	DW	02bbH
	DW	0efH
	DW	05aH
	DW	01aH
	DW	0156H
	DW	01daH
	DW	0ffc9H
	DW	01bH
	DW	0184H
	DW	05eH
	DW	0ff54H
	DW	00H
	DW	02d5H
	DW	017bH
	DW	0ffc4H
	DW	0151H
	DW	0172H
	DW	01d1H
	DW	05fH
	DW	013fH
	DW	0326H
	DW	0253H
	DW	04eH
	DW	0104H
	DW	01f1H
	DW	0353H
	DW	0d2H
	DW	0230H
	DW	01caH
	DW	023eH
	DW	0fe30H
	DW	0caH
	DW	01f1H
	DW	0271H
	DW	0ff36H
	DW	098H
	DW	030H
	DW	02c8H
	DW	0ffecH
	DW	0236H
	DW	064H
	DW	02cbH
	DW	01c7H
	DW	01d4H
	DW	019bH
	DW	025dH
	DW	013fH
	DW	0286H
	DW	0c3H
	DW	0267H
	DW	0191H
	DW	021aH
	DW	02a8H
	DW	02e3H
	DW	0c9H
	DW	029bH
	DW	01b2H
	DW	03baH
	DW	01c6H
	DW	01a9H
	DW	0286H
	DW	01ebH
	DW	025eH
	DW	02a9H
	DW	01a0H
	DW	01fcH
	DW	01f1H
	DW	0336H
	DW	01aaH
	DW	032fH
	DW	0294H
	DW	0287H
	DW	0274H
	DW	02ccH
	DW	02b9H
	DW	01d2H
	DW	026aH
	DW	01c9H
	DW	02adH
	DW	01ccH
	DW	016dH
	DW	0135H
	DW	02d1H
	DW	0237H
	DW	0344H
	DW	0259H
	DW	0261H
	DW	012cH
	DW	0339H
	DW	01cbH
	DW	03afH
	DW	02afH
	DW	02a9H
	DW	0215H
	DW	0393H
	DW	0256H
	DW	024fH
	DW	0f3H
	DW	036cH
	DW	01c3H
	DW	036aH
	DW	01a4H
	DW	0312H
	DW	013dH
	DW	02dcH
	DW	0dcH
	DW	039aH
	DW	013dH
	DW	0454H
	DW	016fH
	DW	0213H
	DW	01d2H
	DW	0404H
	DW	0289H
	DW	041dH
	DW	0267H
	DW	040aH
	DW	0229H
	DW	033dH
	DW	025aH
	DW	03fdH
	DW	031fH
	DW	039fH
	DW	0323H
	DW	036eH
	DW	02fbH
	DW	031fH
	DW	01f0H
	DW	055dH
	DW	0305H
	DW	0249H
	DW	0302H
	DW	0323H
	DW	03a2H
	DW	044bH
	DW	0319H
	DW	04c6H
	DW	035eH
	DW	04b9H
	DW	037fH
	DW	0401H
	DW	02d7H
	DW	0304H
	DW	034dH
	DW	0494H
	DW	045bH
	DW	0363H
	DW	03fdH
	DW	033eH
	DW	03f5H
	DW	0349H
	DW	038eH
	DW	01faH
	DW	02bfH
	DW	04d7H
	DW	0435H
	DW	026cH
	DW	0333H
	DW	04acH
	DW	043bH
	DW	0483H
	DW	0439H
	DW	0476H
	DW	038bH
	DW	060bH
	DW	0461H
	DW	051dH
	DW	0288H
	DW	053fH
	DW	0264H
	DW	05ccH
	DW	03dcH
	DW	05c7H
	DW	03a9H
	DW	03d9H
	DW	0530H
	DW	03bbH
	DW	053dH
	DW	01adH
	DW	038eH
	DW	0349H
	DW	053aH
	DW	0234H
	DW	049bH
	DW	019cH
	DW	0484H
	DW	0593H
	DW	0528H
	DW	059aH
	DW	0532H
	DW	0280H
	DW	02f8H
	DW	06beH
	DW	0582H
	DW	0beH
	DW	022bH
	DW	0431H
	DW	03edH
	DW	01aaH
	DW	0101H
	DW	0347H
	DW	03d4H
	DW	0ebH
	DW	0e7H
	DW	05f0H
	DW	048fH
	DW	06dH
	DW	0125H
	DW	03f6H
	DW	0621H
	DW	0131H
	DW	08eH
	DW	047cH
	DW	021bH
	DW	0feddH
	DW	0ff94H
	DW	04bdH
	DW	03ccH
	DW	016H
	DW	0ff28H
	DW	029bH
	DW	033cH
	DW	0fe1eH
	DW	01b6H
	DW	01c5H
	DW	0597H
	DW	0fdbbH
	DW	0fe5aH
	DW	0315H
	DW	0183H
	DW	0fe9aH
	DW	0fe3aH
	DW	0aeH
	DW	030cH
	DW	0ffdcH
	DW	0fe8cH
	DW	0186H
	DW	0ff7aH
	DW	0fd8bH
	DW	0a0H
	DW	0feceH
	DW	02efH
	DW	0fb16H
	DW	0feb5H
	DW	0b1H
	DW	020aH
	DW	0ff08H
	DW	023eH
	DW	0ff05H
	DW	027fH
	DW	0fdedH
	DW	0197H
	DW	0fdacH
	DW	018aH
	DW	0fe5dH
	DW	0315H
	DW	0fd97H
	DW	0321H
	DW	0fc26H
	DW	018fH
	DW	0fca7H
	DW	02d7H
	DW	0fff9H
	DW	0206H
	DW	0fd41H
	DW	0136H
	DW	0fb89H
	DW	0ffe8H
	DW	0fc16H
	DW	011fH
	DW	0fc40H
	DW	016bH
	DW	0faedH
	DW	0138H
	DW	0fa02H
	DW	0f5H
	DW	0f9ebH
	DW	0131H
	DW	01cH
	DW	099H
	DW	0fca5H
	DW	0ff51H
	DW	0ffdfH
	DW	014cH
	DW	0fa8aH
	DW	0ff66H
	DW	0d4H
	DW	019aH
	DW	0fdafH
	DW	0ff3bH
	DW	0fbbcH
	DW	0fd40H
	DW	0fc78H
	DW	0ffbfH
	DW	011aH
	DW	016fH
	DW	0fc6aH
	DW	0fd52H
	DW	0159H
	DW	05dH
	DW	0fefeH
	DW	0fe9bH
	DW	02b8H
	DW	0284H
	DW	0fd4bH
	DW	0ffe4H
	DW	01c0H
	DW	01edH
	DW	0feefH
	DW	0c1H
	DW	020fH
	DW	0222H
	DW	0ff0dH
	DW	0fdffH
	DW	0180H
	DW	0ff78H
	DW	0111H
	DW	0fe9fH
	DW	0200H
	DW	0ff72H
	DW	0219H
	DW	0ff3aH
	DW	03adH
	DW	02eeH
	DW	053H
	DW	0f8H
	DW	0242H
	DW	035dH
	DW	0ffc8H
	DW	0250H
	DW	034aH
	DW	02cH
	DW	037cH
	DW	018H
	DW	021H
	DW	037aH
	DW	0fff0H
	DW	03d6H
	DW	033fH
	DW	0576H
	DW	05ffH
	DW	076aH
	DW	06b4H
	DW	0560H
	DW	079cH
	DW	05b9H
_dico5_lsf DW	0fc16H
	DW	0fc5fH
	DW	0fbb8H
	DW	0fb4dH
	DW	0fd7fH
	DW	0fc5dH
	DW	0fda4H
	DW	0fc3fH
	DW	0fcf5H
	DW	0fd5fH
	DW	0fcbdH
	DW	0fcecH
	DW	0fe60H
	DW	0fd68H
	DW	0fe36H
	DW	0fd02H
	DW	0fd74H
	DW	0fdf7H
	DW	0fd6aH
	DW	0fe11H
	DW	0fc01H
	DW	0fe03H
	DW	0fc01H
	DW	0fe54H
	DW	0fe44H
	DW	0fdd8H
	DW	0fe90H
	DW	0fe3fH
	DW	0fe21H
	DW	0ff2dH
	DW	0fbe2H
	DW	0fc79H
	DW	0fec4H
	DW	0ff07H
	DW	0fdc7H
	DW	0fdb1H
	DW	0fdc7H
	DW	0feedH
	DW	0fde3H
	DW	0ff41H
	DW	0fd34H
	DW	0ff44H
	DW	0fcb6H
	DW	0fef8H
	DW	0feb3H
	DW	0ff08H
	DW	0fec2H
	DW	0ff1cH
	DW	0feedH
	DW	01H
	DW	0fdc9H
	DW	0ff1cH
	DW	0ff8dH
	DW	0ff23H
	DW	0ff12H
	DW	0fe8aH
	DW	0ff3bH
	DW	0fe05H
	DW	0ff22H
	DW	0fdbdH
	DW	0fefeH
	DW	0fe50H
	DW	0ffc3H
	DW	0ff0cH
	DW	0fea7H
	DW	02H
	DW	0feaeH
	DW	027H
	DW	0ff29H
	DW	0ff57H
	DW	0ffc6H
	DW	00H
	DW	0ffc8H
	DW	0fffaH
	DW	0ff35H
	DW	0ff7dH
	DW	01H
	DW	0ff46H
	DW	0fffbH
	DW	0ff2dH
	DW	06H
	DW	0fe84H
	DW	0bH
	DW	0fe5eH
	DW	0ff8cH
	DW	083H
	DW	0ff7aH
	DW	071H
	DW	059H
	DW	0fffcH
	DW	047H
	DW	0fffeH
	DW	0ffedH
	DW	0ff40H
	DW	0106H
	DW	018H
	DW	0bdH
	DW	097H
	DW	0ff7bH
	DW	0ff93H
	DW	0baH
	DW	0ff67H
	DW	0a6H
	DW	0ff25H
	DW	025H
	DW	08bH
	DW	0c1H
	DW	0abH
	DW	0151H
	DW	07cH
	DW	09eH
	DW	0ffc3H
	DW	08dH
	DW	0e2H
	DW	0fff3H
	DW	0beH
	DW	0e7H
	DW	022H
	DW	0162H
	DW	06dH
	DW	013cH
	DW	0c9H
	DW	0f4H
	DW	0a4H
	DW	014aH
	DW	0ffabH
	DW	0186H
	DW	0ffacH
	DW	0feH
	DW	0147H
	DW	0101H
	DW	014fH
	DW	01ebH
	DW	093H
	DW	01dcH
	DW	069H
	DW	036H
	DW	04dH
	DW	01b5H
	DW	0172H
	DW	01a5H
	DW	013aH
	DW	01c1H
	DW	0156H
	DW	0149H
	DW	07eH
	DW	02a1H
	DW	0124H
	DW	023bH
	DW	0184H
	DW	0f3H
	DW	0c1H
	DW	028dH
	DW	0140H
	DW	026dH
	DW	0118H
	DW	0c2H
	DW	017cH
	DW	0205H
	DW	0245H
	DW	02dH
	DW	0143H
	DW	06fH
	DW	01a6H
	DW	01e9H
	DW	018bH
	DW	02deH
	DW	0216H
	DW	026eH
	DW	0222H
	DW	01e6H
	DW	01f6H
	DW	013eH
	DW	023cH
	DW	0bdH
	DW	0226H
	DW	0181H
	DW	01a6H
	DW	0ff63H
	DW	099H
	DW	0ff83H
	DW	017eH
	DW	0ff3bH
	DW	0182H
	DW	0fef9H
	DW	014eH
	DW	0e4H
	DW	02b9H
	DW	0ff44H
	DW	01H
	DW	033H
	DW	0129H
	DW	0fe05H
	DW	0d5H
	DW	0fe88H
	DW	018dH
	DW	0ffe8H
	DW	0ffH
	DW	0fdddH
	DW	059H
	DW	0fe0aH
	DW	0ffa2H
	DW	0183H
	DW	0b3H
	DW	0fd94H
	DW	044H
	DW	0fd54H
	DW	070H
	DW	0fd7eH
	DW	0fea2H
	DW	0fefcH
	DW	0acH
	DW	0fe4aH
	DW	0febcH
	DW	0108H
	DW	0288H
	DW	0fc3cH
	DW	0fffcH
	DW	0fb9fH
	DW	07H
	DW	0ff7aH
	DW	086H
	DW	0fb93H
	DW	0feceH
	DW	08fH
	DW	060H
	DW	0fe5cH
	DW	0fe0fH
	DW	0fb3bH
	DW	0fea2H
	DW	0fa09H
	DW	0fd53H
	DW	0ff5fH
	DW	048H
	DW	0369H
	DW	02b3H
	DW	02dcH
	DW	011bH
	DW	0399H
	DW	0161H
	DW	014eH
	DW	01dbH
	DW	0447H
	DW	0335H
	DW	0360H
	DW	020cH
	DW	034bH
	DW	01f1H
	DW	02caH
	DW	02c7H
	DW	0314H
	DW	02eeH
	DW	0434H
	DW	02caH
	DW	04b4H
	DW	02f1H
CONST	ENDS
PUBLIC	_D_plsf_5
EXTRN	_add:PROC
EXTRN	_sub:PROC
EXTRN	_shl:PROC
EXTRN	_shr:PROC
EXTRN	_mult:PROC
EXTRN	_negate:PROC
EXTRN	_move16:PROC
EXTRN	_logic16:PROC
EXTRN	_test:PROC
EXTRN	_Lsf_lsp:PROC
EXTRN	_Reorder_lsf:PROC
EXTRN	_Copy:PROC
EXTRN	@_RTC_CheckStackVars@8:PROC
EXTRN	@__security_check_cookie@4:PROC
EXTRN	__RTC_CheckEsp:PROC
EXTRN	__RTC_InitBase:PROC
EXTRN	__RTC_Shutdown:PROC
EXTRN	___security_cookie:DWORD
;	COMDAT rtc$TMZ
rtc$TMZ	SEGMENT
__RTC_Shutdown.rtc$TMZ DD FLAT:__RTC_Shutdown
rtc$TMZ	ENDS
;	COMDAT rtc$IMZ
rtc$IMZ	SEGMENT
__RTC_InitBase.rtc$IMZ DD FLAT:__RTC_InitBase
rtc$IMZ	ENDS
; Function compile flags: /Odtp /RTCsu /ZI
; File e:\mywork\client\pc2.0trunk\pc2.0\third_party\libamrplayer\amr\d_plsf_5.c
;	COMDAT _D_plsf_5
_TEXT	SEGMENT
tv244 = -358						; size = 2
tv238 = -358						; size = 2
tv232 = -358						; size = 2
tv226 = -358						; size = 2
_lsf2_q$ = -160						; size = 20
_lsf1_q$ = -132						; size = 20
_lsf2_r$ = -104						; size = 20
_lsf1_r$ = -76						; size = 20
_sign$ = -48						; size = 2
_temp$ = -36						; size = 2
_p_dico$ = -24						; size = 4
_i$ = -12						; size = 2
__$ArrayPad$ = -4					; size = 4
_st$ = 8						; size = 4
_bfi$ = 12						; size = 2
_indice$ = 16						; size = 4
_lsp1_q$ = 20						; size = 4
_lsp2_q$ = 24						; size = 4
_D_plsf_5 PROC						; COMDAT

; 82   : {

  00000	55		 push	 ebp
  00001	8b ec		 mov	 ebp, esp
  00003	81 ec 68 01 00
	00		 sub	 esp, 360		; 00000168H
  00009	53		 push	 ebx
  0000a	56		 push	 esi
  0000b	57		 push	 edi
  0000c	8d bd 98 fe ff
	ff		 lea	 edi, DWORD PTR [ebp-360]
  00012	b9 5a 00 00 00	 mov	 ecx, 90			; 0000005aH
  00017	b8 cc cc cc cc	 mov	 eax, -858993460		; ccccccccH
  0001c	f3 ab		 rep stosd
  0001e	a1 00 00 00 00	 mov	 eax, DWORD PTR ___security_cookie
  00023	33 c5		 xor	 eax, ebp
  00025	89 45 fc	 mov	 DWORD PTR __$ArrayPad$[ebp], eax

; 83   :     Word16 i;
; 84   :     const Word16 *p_dico;
; 85   :     Word16 temp, sign;
; 86   :     Word16 lsf1_r[M], lsf2_r[M];
; 87   :     Word16 lsf1_q[M], lsf2_q[M];
; 88   : 
; 89   :     test (); 

  00028	e8 00 00 00 00	 call	 _test

; 90   :     if (bfi != 0)                               /* if bad frame */

  0002d	0f bf 45 0c	 movsx	 eax, WORD PTR _bfi$[ebp]
  00031	85 c0		 test	 eax, eax
  00033	0f 84 18 01 00
	00		 je	 $LN13@D_plsf_5

; 91   :     {
; 92   :         /* use the past LSFs slightly shifted towards their mean */
; 93   : 
; 94   :         for (i = 0; i < M; i++)

  00039	33 c0		 xor	 eax, eax
  0003b	66 89 45 f4	 mov	 WORD PTR _i$[ebp], ax
  0003f	eb 0c		 jmp	 SHORT $LN12@D_plsf_5
$LN11@D_plsf_5:
  00041	66 8b 45 f4	 mov	 ax, WORD PTR _i$[ebp]
  00045	66 83 c0 01	 add	 ax, 1
  00049	66 89 45 f4	 mov	 WORD PTR _i$[ebp], ax
$LN12@D_plsf_5:
  0004d	0f bf 45 f4	 movsx	 eax, WORD PTR _i$[ebp]
  00051	83 f8 0a	 cmp	 eax, 10			; 0000000aH
  00054	7d 77		 jge	 SHORT $LN10@D_plsf_5

; 95   :         {
; 96   :             /* lsfi_q[i] = ALPHA*st->past_lsf_q[i] + ONE_ALPHA*mean_lsf[i]; */
; 97   : 
; 98   :             lsf1_q[i] = add (mult (st->past_lsf_q[i], ALPHA),
; 99   :                              mult (mean_lsf[i], ONE_ALPHA));

  00056	68 67 06 00 00	 push	 1639			; 00000667H
  0005b	0f bf 45 f4	 movsx	 eax, WORD PTR _i$[ebp]
  0005f	0f b7 0c 45 00
	00 00 00	 movzx	 ecx, WORD PTR _mean_lsf[eax*2]
  00067	51		 push	 ecx
  00068	e8 00 00 00 00	 call	 _mult
  0006d	83 c4 08	 add	 esp, 8
  00070	0f b7 d0	 movzx	 edx, ax
  00073	52		 push	 edx
  00074	68 98 79 00 00	 push	 31128			; 00007998H
  00079	0f bf 45 f4	 movsx	 eax, WORD PTR _i$[ebp]
  0007d	8b 4d 08	 mov	 ecx, DWORD PTR _st$[ebp]
  00080	0f b7 54 41 14	 movzx	 edx, WORD PTR [ecx+eax*2+20]
  00085	52		 push	 edx
  00086	e8 00 00 00 00	 call	 _mult
  0008b	83 c4 08	 add	 esp, 8
  0008e	0f b7 c0	 movzx	 eax, ax
  00091	50		 push	 eax
  00092	e8 00 00 00 00	 call	 _add
  00097	83 c4 08	 add	 esp, 8
  0009a	0f bf 4d f4	 movsx	 ecx, WORD PTR _i$[ebp]
  0009e	66 89 84 4d 7c
	ff ff ff	 mov	 WORD PTR _lsf1_q$[ebp+ecx*2], ax

; 100  :                                                 move16 (); 

  000a6	e8 00 00 00 00	 call	 _move16

; 101  : 
; 102  :             lsf2_q[i] = lsf1_q[i];              move16 (); 

  000ab	0f bf 45 f4	 movsx	 eax, WORD PTR _i$[ebp]
  000af	0f bf 4d f4	 movsx	 ecx, WORD PTR _i$[ebp]
  000b3	66 8b 94 45 7c
	ff ff ff	 mov	 dx, WORD PTR _lsf1_q$[ebp+eax*2]
  000bb	66 89 94 4d 60
	ff ff ff	 mov	 WORD PTR _lsf2_q$[ebp+ecx*2], dx
  000c3	e8 00 00 00 00	 call	 _move16

; 103  :         }

  000c8	e9 74 ff ff ff	 jmp	 $LN11@D_plsf_5
$LN10@D_plsf_5:

; 104  : 
; 105  :         /* estimate past quantized residual to be used in next frame */
; 106  : 
; 107  :         for (i = 0; i < M; i++)

  000cd	33 c0		 xor	 eax, eax
  000cf	66 89 45 f4	 mov	 WORD PTR _i$[ebp], ax
  000d3	eb 0c		 jmp	 SHORT $LN9@D_plsf_5
$LN8@D_plsf_5:
  000d5	66 8b 45 f4	 mov	 ax, WORD PTR _i$[ebp]
  000d9	66 83 c0 01	 add	 ax, 1
  000dd	66 89 45 f4	 mov	 WORD PTR _i$[ebp], ax
$LN9@D_plsf_5:
  000e1	0f bf 45 f4	 movsx	 eax, WORD PTR _i$[ebp]
  000e5	83 f8 0a	 cmp	 eax, 10			; 0000000aH
  000e8	7d 62		 jge	 SHORT $LN7@D_plsf_5

; 108  :         {
; 109  :             /* temp  = mean_lsf[i] +  st->past_r_q[i] * LSP_PRED_FAC_MR122; */
; 110  : 
; 111  :             temp = add (mean_lsf[i], mult (st->past_r_q[i],
; 112  :                                            LSP_PRED_FAC_MR122));

  000ea	68 33 53 00 00	 push	 21299			; 00005333H
  000ef	0f bf 45 f4	 movsx	 eax, WORD PTR _i$[ebp]
  000f3	8b 4d 08	 mov	 ecx, DWORD PTR _st$[ebp]
  000f6	0f b7 14 41	 movzx	 edx, WORD PTR [ecx+eax*2]
  000fa	52		 push	 edx
  000fb	e8 00 00 00 00	 call	 _mult
  00100	83 c4 08	 add	 esp, 8
  00103	0f b7 c0	 movzx	 eax, ax
  00106	50		 push	 eax
  00107	0f bf 4d f4	 movsx	 ecx, WORD PTR _i$[ebp]
  0010b	0f b7 14 4d 00
	00 00 00	 movzx	 edx, WORD PTR _mean_lsf[ecx*2]
  00113	52		 push	 edx
  00114	e8 00 00 00 00	 call	 _add
  00119	83 c4 08	 add	 esp, 8
  0011c	66 89 45 dc	 mov	 WORD PTR _temp$[ebp], ax

; 113  : 
; 114  :             st->past_r_q[i] = sub (lsf2_q[i], temp);

  00120	0f b7 45 dc	 movzx	 eax, WORD PTR _temp$[ebp]
  00124	50		 push	 eax
  00125	0f bf 4d f4	 movsx	 ecx, WORD PTR _i$[ebp]
  00129	0f b7 94 4d 60
	ff ff ff	 movzx	 edx, WORD PTR _lsf2_q$[ebp+ecx*2]
  00131	52		 push	 edx
  00132	e8 00 00 00 00	 call	 _sub
  00137	83 c4 08	 add	 esp, 8
  0013a	0f bf 4d f4	 movsx	 ecx, WORD PTR _i$[ebp]
  0013e	8b 55 08	 mov	 edx, DWORD PTR _st$[ebp]
  00141	66 89 04 4a	 mov	 WORD PTR [edx+ecx*2], ax

; 115  :                                                 move16 (); 

  00145	e8 00 00 00 00	 call	 _move16

; 116  :         }

  0014a	eb 89		 jmp	 SHORT $LN8@D_plsf_5
$LN7@D_plsf_5:

; 117  :     }
; 118  :     else

  0014c	e9 51 05 00 00	 jmp	 $LN6@D_plsf_5
$LN13@D_plsf_5:

; 119  :         /* if good LSFs received */
; 120  :     {
; 121  :         /* decode prediction residuals from 5 received indices */
; 122  : 
; 123  :         p_dico = &dico1_lsf[shl (indice[0], 2)];move16 ();

  00151	6a 02		 push	 2
  00153	b8 02 00 00 00	 mov	 eax, 2
  00158	6b c8 00	 imul	 ecx, eax, 0
  0015b	8b 55 10	 mov	 edx, DWORD PTR _indice$[ebp]
  0015e	0f b7 04 0a	 movzx	 eax, WORD PTR [edx+ecx]
  00162	50		 push	 eax
  00163	e8 00 00 00 00	 call	 _shl
  00168	83 c4 08	 add	 esp, 8
  0016b	0f bf c8	 movsx	 ecx, ax
  0016e	8d 14 4d 00 00
	00 00		 lea	 edx, DWORD PTR _dico1_lsf[ecx*2]
  00175	89 55 e8	 mov	 DWORD PTR _p_dico$[ebp], edx
  00178	e8 00 00 00 00	 call	 _move16

; 124  :         lsf1_r[0] = *p_dico++;                  move16 (); 

  0017d	b8 02 00 00 00	 mov	 eax, 2
  00182	6b c8 00	 imul	 ecx, eax, 0
  00185	8b 55 e8	 mov	 edx, DWORD PTR _p_dico$[ebp]
  00188	66 8b 02	 mov	 ax, WORD PTR [edx]
  0018b	66 89 44 0d b4	 mov	 WORD PTR _lsf1_r$[ebp+ecx], ax
  00190	8b 4d e8	 mov	 ecx, DWORD PTR _p_dico$[ebp]
  00193	83 c1 02	 add	 ecx, 2
  00196	89 4d e8	 mov	 DWORD PTR _p_dico$[ebp], ecx
  00199	e8 00 00 00 00	 call	 _move16

; 125  :         lsf1_r[1] = *p_dico++;                  move16 (); 

  0019e	b8 02 00 00 00	 mov	 eax, 2
  001a3	c1 e0 00	 shl	 eax, 0
  001a6	8b 4d e8	 mov	 ecx, DWORD PTR _p_dico$[ebp]
  001a9	66 8b 11	 mov	 dx, WORD PTR [ecx]
  001ac	66 89 54 05 b4	 mov	 WORD PTR _lsf1_r$[ebp+eax], dx
  001b1	8b 45 e8	 mov	 eax, DWORD PTR _p_dico$[ebp]
  001b4	83 c0 02	 add	 eax, 2
  001b7	89 45 e8	 mov	 DWORD PTR _p_dico$[ebp], eax
  001ba	e8 00 00 00 00	 call	 _move16

; 126  :         lsf2_r[0] = *p_dico++;                  move16 (); 

  001bf	b8 02 00 00 00	 mov	 eax, 2
  001c4	6b c8 00	 imul	 ecx, eax, 0
  001c7	8b 55 e8	 mov	 edx, DWORD PTR _p_dico$[ebp]
  001ca	66 8b 02	 mov	 ax, WORD PTR [edx]
  001cd	66 89 44 0d 98	 mov	 WORD PTR _lsf2_r$[ebp+ecx], ax
  001d2	8b 4d e8	 mov	 ecx, DWORD PTR _p_dico$[ebp]
  001d5	83 c1 02	 add	 ecx, 2
  001d8	89 4d e8	 mov	 DWORD PTR _p_dico$[ebp], ecx
  001db	e8 00 00 00 00	 call	 _move16

; 127  :         lsf2_r[1] = *p_dico++;                  move16 (); 

  001e0	b8 02 00 00 00	 mov	 eax, 2
  001e5	c1 e0 00	 shl	 eax, 0
  001e8	8b 4d e8	 mov	 ecx, DWORD PTR _p_dico$[ebp]
  001eb	66 8b 11	 mov	 dx, WORD PTR [ecx]
  001ee	66 89 54 05 98	 mov	 WORD PTR _lsf2_r$[ebp+eax], dx
  001f3	8b 45 e8	 mov	 eax, DWORD PTR _p_dico$[ebp]
  001f6	83 c0 02	 add	 eax, 2
  001f9	89 45 e8	 mov	 DWORD PTR _p_dico$[ebp], eax
  001fc	e8 00 00 00 00	 call	 _move16

; 128  : 
; 129  :         p_dico = &dico2_lsf[shl (indice[1], 2)];move16 ();

  00201	6a 02		 push	 2
  00203	b8 02 00 00 00	 mov	 eax, 2
  00208	c1 e0 00	 shl	 eax, 0
  0020b	8b 4d 10	 mov	 ecx, DWORD PTR _indice$[ebp]
  0020e	0f b7 14 01	 movzx	 edx, WORD PTR [ecx+eax]
  00212	52		 push	 edx
  00213	e8 00 00 00 00	 call	 _shl
  00218	83 c4 08	 add	 esp, 8
  0021b	98		 cwde
  0021c	8d 0c 45 00 00
	00 00		 lea	 ecx, DWORD PTR _dico2_lsf[eax*2]
  00223	89 4d e8	 mov	 DWORD PTR _p_dico$[ebp], ecx
  00226	e8 00 00 00 00	 call	 _move16

; 130  :         lsf1_r[2] = *p_dico++;                  move16 (); 

  0022b	b8 02 00 00 00	 mov	 eax, 2
  00230	d1 e0		 shl	 eax, 1
  00232	8b 4d e8	 mov	 ecx, DWORD PTR _p_dico$[ebp]
  00235	66 8b 11	 mov	 dx, WORD PTR [ecx]
  00238	66 89 54 05 b4	 mov	 WORD PTR _lsf1_r$[ebp+eax], dx
  0023d	8b 45 e8	 mov	 eax, DWORD PTR _p_dico$[ebp]
  00240	83 c0 02	 add	 eax, 2
  00243	89 45 e8	 mov	 DWORD PTR _p_dico$[ebp], eax
  00246	e8 00 00 00 00	 call	 _move16

; 131  :         lsf1_r[3] = *p_dico++;                  move16 (); 

  0024b	b8 02 00 00 00	 mov	 eax, 2
  00250	6b c8 03	 imul	 ecx, eax, 3
  00253	8b 55 e8	 mov	 edx, DWORD PTR _p_dico$[ebp]
  00256	66 8b 02	 mov	 ax, WORD PTR [edx]
  00259	66 89 44 0d b4	 mov	 WORD PTR _lsf1_r$[ebp+ecx], ax
  0025e	8b 4d e8	 mov	 ecx, DWORD PTR _p_dico$[ebp]
  00261	83 c1 02	 add	 ecx, 2
  00264	89 4d e8	 mov	 DWORD PTR _p_dico$[ebp], ecx
  00267	e8 00 00 00 00	 call	 _move16

; 132  :         lsf2_r[2] = *p_dico++;                  move16 (); 

  0026c	b8 02 00 00 00	 mov	 eax, 2
  00271	d1 e0		 shl	 eax, 1
  00273	8b 4d e8	 mov	 ecx, DWORD PTR _p_dico$[ebp]
  00276	66 8b 11	 mov	 dx, WORD PTR [ecx]
  00279	66 89 54 05 98	 mov	 WORD PTR _lsf2_r$[ebp+eax], dx
  0027e	8b 45 e8	 mov	 eax, DWORD PTR _p_dico$[ebp]
  00281	83 c0 02	 add	 eax, 2
  00284	89 45 e8	 mov	 DWORD PTR _p_dico$[ebp], eax
  00287	e8 00 00 00 00	 call	 _move16

; 133  :         lsf2_r[3] = *p_dico++;                  move16 (); 

  0028c	b8 02 00 00 00	 mov	 eax, 2
  00291	6b c8 03	 imul	 ecx, eax, 3
  00294	8b 55 e8	 mov	 edx, DWORD PTR _p_dico$[ebp]
  00297	66 8b 02	 mov	 ax, WORD PTR [edx]
  0029a	66 89 44 0d 98	 mov	 WORD PTR _lsf2_r$[ebp+ecx], ax
  0029f	8b 4d e8	 mov	 ecx, DWORD PTR _p_dico$[ebp]
  002a2	83 c1 02	 add	 ecx, 2
  002a5	89 4d e8	 mov	 DWORD PTR _p_dico$[ebp], ecx
  002a8	e8 00 00 00 00	 call	 _move16

; 134  : 
; 135  :         sign = indice[2] & 1;                   logic16 (); 

  002ad	b8 02 00 00 00	 mov	 eax, 2
  002b2	d1 e0		 shl	 eax, 1
  002b4	8b 4d 10	 mov	 ecx, DWORD PTR _indice$[ebp]
  002b7	0f bf 14 01	 movsx	 edx, WORD PTR [ecx+eax]
  002bb	83 e2 01	 and	 edx, 1
  002be	66 89 55 d0	 mov	 WORD PTR _sign$[ebp], dx
  002c2	e8 00 00 00 00	 call	 _logic16

; 136  :         i = shr (indice[2], 1);

  002c7	6a 01		 push	 1
  002c9	b8 02 00 00 00	 mov	 eax, 2
  002ce	d1 e0		 shl	 eax, 1
  002d0	8b 4d 10	 mov	 ecx, DWORD PTR _indice$[ebp]
  002d3	0f b7 14 01	 movzx	 edx, WORD PTR [ecx+eax]
  002d7	52		 push	 edx
  002d8	e8 00 00 00 00	 call	 _shr
  002dd	83 c4 08	 add	 esp, 8
  002e0	66 89 45 f4	 mov	 WORD PTR _i$[ebp], ax

; 137  :         p_dico = &dico3_lsf[shl (i, 2)];        move16 (); 

  002e4	6a 02		 push	 2
  002e6	0f b7 45 f4	 movzx	 eax, WORD PTR _i$[ebp]
  002ea	50		 push	 eax
  002eb	e8 00 00 00 00	 call	 _shl
  002f0	83 c4 08	 add	 esp, 8
  002f3	0f bf c8	 movsx	 ecx, ax
  002f6	8d 14 4d 00 00
	00 00		 lea	 edx, DWORD PTR _dico3_lsf[ecx*2]
  002fd	89 55 e8	 mov	 DWORD PTR _p_dico$[ebp], edx
  00300	e8 00 00 00 00	 call	 _move16

; 138  : 
; 139  :         test (); 

  00305	e8 00 00 00 00	 call	 _test

; 140  :         if (sign == 0)

  0030a	0f bf 45 d0	 movsx	 eax, WORD PTR _sign$[ebp]
  0030e	85 c0		 test	 eax, eax
  00310	0f 85 89 00 00
	00		 jne	 $LN5@D_plsf_5

; 141  :         {
; 142  :             lsf1_r[4] = *p_dico++;              move16 (); 

  00316	b8 02 00 00 00	 mov	 eax, 2
  0031b	c1 e0 02	 shl	 eax, 2
  0031e	8b 4d e8	 mov	 ecx, DWORD PTR _p_dico$[ebp]
  00321	66 8b 11	 mov	 dx, WORD PTR [ecx]
  00324	66 89 54 05 b4	 mov	 WORD PTR _lsf1_r$[ebp+eax], dx
  00329	8b 45 e8	 mov	 eax, DWORD PTR _p_dico$[ebp]
  0032c	83 c0 02	 add	 eax, 2
  0032f	89 45 e8	 mov	 DWORD PTR _p_dico$[ebp], eax
  00332	e8 00 00 00 00	 call	 _move16

; 143  :             lsf1_r[5] = *p_dico++;              move16 (); 

  00337	b8 02 00 00 00	 mov	 eax, 2
  0033c	6b c8 05	 imul	 ecx, eax, 5
  0033f	8b 55 e8	 mov	 edx, DWORD PTR _p_dico$[ebp]
  00342	66 8b 02	 mov	 ax, WORD PTR [edx]
  00345	66 89 44 0d b4	 mov	 WORD PTR _lsf1_r$[ebp+ecx], ax
  0034a	8b 4d e8	 mov	 ecx, DWORD PTR _p_dico$[ebp]
  0034d	83 c1 02	 add	 ecx, 2
  00350	89 4d e8	 mov	 DWORD PTR _p_dico$[ebp], ecx
  00353	e8 00 00 00 00	 call	 _move16

; 144  :             lsf2_r[4] = *p_dico++;              move16 (); 

  00358	b8 02 00 00 00	 mov	 eax, 2
  0035d	c1 e0 02	 shl	 eax, 2
  00360	8b 4d e8	 mov	 ecx, DWORD PTR _p_dico$[ebp]
  00363	66 8b 11	 mov	 dx, WORD PTR [ecx]
  00366	66 89 54 05 98	 mov	 WORD PTR _lsf2_r$[ebp+eax], dx
  0036b	8b 45 e8	 mov	 eax, DWORD PTR _p_dico$[ebp]
  0036e	83 c0 02	 add	 eax, 2
  00371	89 45 e8	 mov	 DWORD PTR _p_dico$[ebp], eax
  00374	e8 00 00 00 00	 call	 _move16

; 145  :             lsf2_r[5] = *p_dico++;              move16 (); 

  00379	b8 02 00 00 00	 mov	 eax, 2
  0037e	6b c8 05	 imul	 ecx, eax, 5
  00381	8b 55 e8	 mov	 edx, DWORD PTR _p_dico$[ebp]
  00384	66 8b 02	 mov	 ax, WORD PTR [edx]
  00387	66 89 44 0d 98	 mov	 WORD PTR _lsf2_r$[ebp+ecx], ax
  0038c	8b 4d e8	 mov	 ecx, DWORD PTR _p_dico$[ebp]
  0038f	83 c1 02	 add	 ecx, 2
  00392	89 4d e8	 mov	 DWORD PTR _p_dico$[ebp], ecx
  00395	e8 00 00 00 00	 call	 _move16

; 146  :         }
; 147  :         else

  0039a	e9 e0 00 00 00	 jmp	 $LN4@D_plsf_5
$LN5@D_plsf_5:

; 148  :         {
; 149  :             lsf1_r[4] = negate (*p_dico++);     move16 (); 

  0039f	8b 45 e8	 mov	 eax, DWORD PTR _p_dico$[ebp]
  003a2	66 8b 08	 mov	 cx, WORD PTR [eax]
  003a5	66 89 8d 9a fe
	ff ff		 mov	 WORD PTR tv226[ebp], cx
  003ac	8b 55 e8	 mov	 edx, DWORD PTR _p_dico$[ebp]
  003af	83 c2 02	 add	 edx, 2
  003b2	89 55 e8	 mov	 DWORD PTR _p_dico$[ebp], edx
  003b5	0f b7 85 9a fe
	ff ff		 movzx	 eax, WORD PTR tv226[ebp]
  003bc	50		 push	 eax
  003bd	e8 00 00 00 00	 call	 _negate
  003c2	83 c4 04	 add	 esp, 4
  003c5	b9 02 00 00 00	 mov	 ecx, 2
  003ca	c1 e1 02	 shl	 ecx, 2
  003cd	66 89 44 0d b4	 mov	 WORD PTR _lsf1_r$[ebp+ecx], ax
  003d2	e8 00 00 00 00	 call	 _move16

; 150  :             lsf1_r[5] = negate (*p_dico++);     move16 (); 

  003d7	8b 45 e8	 mov	 eax, DWORD PTR _p_dico$[ebp]
  003da	66 8b 08	 mov	 cx, WORD PTR [eax]
  003dd	66 89 8d 9a fe
	ff ff		 mov	 WORD PTR tv232[ebp], cx
  003e4	8b 55 e8	 mov	 edx, DWORD PTR _p_dico$[ebp]
  003e7	83 c2 02	 add	 edx, 2
  003ea	89 55 e8	 mov	 DWORD PTR _p_dico$[ebp], edx
  003ed	0f b7 85 9a fe
	ff ff		 movzx	 eax, WORD PTR tv232[ebp]
  003f4	50		 push	 eax
  003f5	e8 00 00 00 00	 call	 _negate
  003fa	83 c4 04	 add	 esp, 4
  003fd	b9 02 00 00 00	 mov	 ecx, 2
  00402	6b d1 05	 imul	 edx, ecx, 5
  00405	66 89 44 15 b4	 mov	 WORD PTR _lsf1_r$[ebp+edx], ax
  0040a	e8 00 00 00 00	 call	 _move16

; 151  :             lsf2_r[4] = negate (*p_dico++);     move16 (); 

  0040f	8b 45 e8	 mov	 eax, DWORD PTR _p_dico$[ebp]
  00412	66 8b 08	 mov	 cx, WORD PTR [eax]
  00415	66 89 8d 9a fe
	ff ff		 mov	 WORD PTR tv238[ebp], cx
  0041c	8b 55 e8	 mov	 edx, DWORD PTR _p_dico$[ebp]
  0041f	83 c2 02	 add	 edx, 2
  00422	89 55 e8	 mov	 DWORD PTR _p_dico$[ebp], edx
  00425	0f b7 85 9a fe
	ff ff		 movzx	 eax, WORD PTR tv238[ebp]
  0042c	50		 push	 eax
  0042d	e8 00 00 00 00	 call	 _negate
  00432	83 c4 04	 add	 esp, 4
  00435	b9 02 00 00 00	 mov	 ecx, 2
  0043a	c1 e1 02	 shl	 ecx, 2
  0043d	66 89 44 0d 98	 mov	 WORD PTR _lsf2_r$[ebp+ecx], ax
  00442	e8 00 00 00 00	 call	 _move16

; 152  :             lsf2_r[5] = negate (*p_dico++);     move16 (); 

  00447	8b 45 e8	 mov	 eax, DWORD PTR _p_dico$[ebp]
  0044a	66 8b 08	 mov	 cx, WORD PTR [eax]
  0044d	66 89 8d 9a fe
	ff ff		 mov	 WORD PTR tv244[ebp], cx
  00454	8b 55 e8	 mov	 edx, DWORD PTR _p_dico$[ebp]
  00457	83 c2 02	 add	 edx, 2
  0045a	89 55 e8	 mov	 DWORD PTR _p_dico$[ebp], edx
  0045d	0f b7 85 9a fe
	ff ff		 movzx	 eax, WORD PTR tv244[ebp]
  00464	50		 push	 eax
  00465	e8 00 00 00 00	 call	 _negate
  0046a	83 c4 04	 add	 esp, 4
  0046d	b9 02 00 00 00	 mov	 ecx, 2
  00472	6b d1 05	 imul	 edx, ecx, 5
  00475	66 89 44 15 98	 mov	 WORD PTR _lsf2_r$[ebp+edx], ax
  0047a	e8 00 00 00 00	 call	 _move16
$LN4@D_plsf_5:

; 153  :         }
; 154  : 
; 155  :         p_dico = &dico4_lsf[shl (indice[3], 2)];move16 (); 

  0047f	6a 02		 push	 2
  00481	b8 02 00 00 00	 mov	 eax, 2
  00486	6b c8 03	 imul	 ecx, eax, 3
  00489	8b 55 10	 mov	 edx, DWORD PTR _indice$[ebp]
  0048c	0f b7 04 0a	 movzx	 eax, WORD PTR [edx+ecx]
  00490	50		 push	 eax
  00491	e8 00 00 00 00	 call	 _shl
  00496	83 c4 08	 add	 esp, 8
  00499	0f bf c8	 movsx	 ecx, ax
  0049c	8d 14 4d 00 00
	00 00		 lea	 edx, DWORD PTR _dico4_lsf[ecx*2]
  004a3	89 55 e8	 mov	 DWORD PTR _p_dico$[ebp], edx
  004a6	e8 00 00 00 00	 call	 _move16

; 156  :         lsf1_r[6] = *p_dico++;                  move16 (); 

  004ab	b8 02 00 00 00	 mov	 eax, 2
  004b0	6b c8 06	 imul	 ecx, eax, 6
  004b3	8b 55 e8	 mov	 edx, DWORD PTR _p_dico$[ebp]
  004b6	66 8b 02	 mov	 ax, WORD PTR [edx]
  004b9	66 89 44 0d b4	 mov	 WORD PTR _lsf1_r$[ebp+ecx], ax
  004be	8b 4d e8	 mov	 ecx, DWORD PTR _p_dico$[ebp]
  004c1	83 c1 02	 add	 ecx, 2
  004c4	89 4d e8	 mov	 DWORD PTR _p_dico$[ebp], ecx
  004c7	e8 00 00 00 00	 call	 _move16

; 157  :         lsf1_r[7] = *p_dico++;                  move16 (); 

  004cc	b8 02 00 00 00	 mov	 eax, 2
  004d1	6b c8 07	 imul	 ecx, eax, 7
  004d4	8b 55 e8	 mov	 edx, DWORD PTR _p_dico$[ebp]
  004d7	66 8b 02	 mov	 ax, WORD PTR [edx]
  004da	66 89 44 0d b4	 mov	 WORD PTR _lsf1_r$[ebp+ecx], ax
  004df	8b 4d e8	 mov	 ecx, DWORD PTR _p_dico$[ebp]
  004e2	83 c1 02	 add	 ecx, 2
  004e5	89 4d e8	 mov	 DWORD PTR _p_dico$[ebp], ecx
  004e8	e8 00 00 00 00	 call	 _move16

; 158  :         lsf2_r[6] = *p_dico++;                  move16 (); 

  004ed	b8 02 00 00 00	 mov	 eax, 2
  004f2	6b c8 06	 imul	 ecx, eax, 6
  004f5	8b 55 e8	 mov	 edx, DWORD PTR _p_dico$[ebp]
  004f8	66 8b 02	 mov	 ax, WORD PTR [edx]
  004fb	66 89 44 0d 98	 mov	 WORD PTR _lsf2_r$[ebp+ecx], ax
  00500	8b 4d e8	 mov	 ecx, DWORD PTR _p_dico$[ebp]
  00503	83 c1 02	 add	 ecx, 2
  00506	89 4d e8	 mov	 DWORD PTR _p_dico$[ebp], ecx
  00509	e8 00 00 00 00	 call	 _move16

; 159  :         lsf2_r[7] = *p_dico++;                  move16 (); 

  0050e	b8 02 00 00 00	 mov	 eax, 2
  00513	6b c8 07	 imul	 ecx, eax, 7
  00516	8b 55 e8	 mov	 edx, DWORD PTR _p_dico$[ebp]
  00519	66 8b 02	 mov	 ax, WORD PTR [edx]
  0051c	66 89 44 0d 98	 mov	 WORD PTR _lsf2_r$[ebp+ecx], ax
  00521	8b 4d e8	 mov	 ecx, DWORD PTR _p_dico$[ebp]
  00524	83 c1 02	 add	 ecx, 2
  00527	89 4d e8	 mov	 DWORD PTR _p_dico$[ebp], ecx
  0052a	e8 00 00 00 00	 call	 _move16

; 160  : 
; 161  :         p_dico = &dico5_lsf[shl (indice[4], 2)];move16 (); 

  0052f	6a 02		 push	 2
  00531	b8 02 00 00 00	 mov	 eax, 2
  00536	c1 e0 02	 shl	 eax, 2
  00539	8b 4d 10	 mov	 ecx, DWORD PTR _indice$[ebp]
  0053c	0f b7 14 01	 movzx	 edx, WORD PTR [ecx+eax]
  00540	52		 push	 edx
  00541	e8 00 00 00 00	 call	 _shl
  00546	83 c4 08	 add	 esp, 8
  00549	98		 cwde
  0054a	8d 0c 45 00 00
	00 00		 lea	 ecx, DWORD PTR _dico5_lsf[eax*2]
  00551	89 4d e8	 mov	 DWORD PTR _p_dico$[ebp], ecx
  00554	e8 00 00 00 00	 call	 _move16

; 162  :         lsf1_r[8] = *p_dico++;                  move16 (); 

  00559	b8 02 00 00 00	 mov	 eax, 2
  0055e	c1 e0 03	 shl	 eax, 3
  00561	8b 4d e8	 mov	 ecx, DWORD PTR _p_dico$[ebp]
  00564	66 8b 11	 mov	 dx, WORD PTR [ecx]
  00567	66 89 54 05 b4	 mov	 WORD PTR _lsf1_r$[ebp+eax], dx
  0056c	8b 45 e8	 mov	 eax, DWORD PTR _p_dico$[ebp]
  0056f	83 c0 02	 add	 eax, 2
  00572	89 45 e8	 mov	 DWORD PTR _p_dico$[ebp], eax
  00575	e8 00 00 00 00	 call	 _move16

; 163  :         lsf1_r[9] = *p_dico++;                  move16 (); 

  0057a	b8 02 00 00 00	 mov	 eax, 2
  0057f	6b c8 09	 imul	 ecx, eax, 9
  00582	8b 55 e8	 mov	 edx, DWORD PTR _p_dico$[ebp]
  00585	66 8b 02	 mov	 ax, WORD PTR [edx]
  00588	66 89 44 0d b4	 mov	 WORD PTR _lsf1_r$[ebp+ecx], ax
  0058d	8b 4d e8	 mov	 ecx, DWORD PTR _p_dico$[ebp]
  00590	83 c1 02	 add	 ecx, 2
  00593	89 4d e8	 mov	 DWORD PTR _p_dico$[ebp], ecx
  00596	e8 00 00 00 00	 call	 _move16

; 164  :         lsf2_r[8] = *p_dico++;                  move16 (); 

  0059b	b8 02 00 00 00	 mov	 eax, 2
  005a0	c1 e0 03	 shl	 eax, 3
  005a3	8b 4d e8	 mov	 ecx, DWORD PTR _p_dico$[ebp]
  005a6	66 8b 11	 mov	 dx, WORD PTR [ecx]
  005a9	66 89 54 05 98	 mov	 WORD PTR _lsf2_r$[ebp+eax], dx
  005ae	8b 45 e8	 mov	 eax, DWORD PTR _p_dico$[ebp]
  005b1	83 c0 02	 add	 eax, 2
  005b4	89 45 e8	 mov	 DWORD PTR _p_dico$[ebp], eax
  005b7	e8 00 00 00 00	 call	 _move16

; 165  :         lsf2_r[9] = *p_dico++;                  move16 (); 

  005bc	b8 02 00 00 00	 mov	 eax, 2
  005c1	6b c8 09	 imul	 ecx, eax, 9
  005c4	8b 55 e8	 mov	 edx, DWORD PTR _p_dico$[ebp]
  005c7	66 8b 02	 mov	 ax, WORD PTR [edx]
  005ca	66 89 44 0d 98	 mov	 WORD PTR _lsf2_r$[ebp+ecx], ax
  005cf	8b 4d e8	 mov	 ecx, DWORD PTR _p_dico$[ebp]
  005d2	83 c1 02	 add	 ecx, 2
  005d5	89 4d e8	 mov	 DWORD PTR _p_dico$[ebp], ecx
  005d8	e8 00 00 00 00	 call	 _move16

; 166  : 
; 167  :         /* Compute quantized LSFs and update the past quantized residual */
; 168  :         for (i = 0; i < M; i++)

  005dd	33 c0		 xor	 eax, eax
  005df	66 89 45 f4	 mov	 WORD PTR _i$[ebp], ax
  005e3	eb 0c		 jmp	 SHORT $LN3@D_plsf_5
$LN2@D_plsf_5:
  005e5	66 8b 45 f4	 mov	 ax, WORD PTR _i$[ebp]
  005e9	66 83 c0 01	 add	 ax, 1
  005ed	66 89 45 f4	 mov	 WORD PTR _i$[ebp], ax
$LN3@D_plsf_5:
  005f1	0f bf 45 f4	 movsx	 eax, WORD PTR _i$[ebp]
  005f5	83 f8 0a	 cmp	 eax, 10			; 0000000aH
  005f8	0f 8d a4 00 00
	00		 jge	 $LN6@D_plsf_5

; 169  :         {
; 170  :             temp = add (mean_lsf[i], mult (st->past_r_q[i],
; 171  :                                            LSP_PRED_FAC_MR122));

  005fe	68 33 53 00 00	 push	 21299			; 00005333H
  00603	0f bf 45 f4	 movsx	 eax, WORD PTR _i$[ebp]
  00607	8b 4d 08	 mov	 ecx, DWORD PTR _st$[ebp]
  0060a	0f b7 14 41	 movzx	 edx, WORD PTR [ecx+eax*2]
  0060e	52		 push	 edx
  0060f	e8 00 00 00 00	 call	 _mult
  00614	83 c4 08	 add	 esp, 8
  00617	0f b7 c0	 movzx	 eax, ax
  0061a	50		 push	 eax
  0061b	0f bf 4d f4	 movsx	 ecx, WORD PTR _i$[ebp]
  0061f	0f b7 14 4d 00
	00 00 00	 movzx	 edx, WORD PTR _mean_lsf[ecx*2]
  00627	52		 push	 edx
  00628	e8 00 00 00 00	 call	 _add
  0062d	83 c4 08	 add	 esp, 8
  00630	66 89 45 dc	 mov	 WORD PTR _temp$[ebp], ax

; 172  :             lsf1_q[i] = add (lsf1_r[i], temp);

  00634	0f b7 45 dc	 movzx	 eax, WORD PTR _temp$[ebp]
  00638	50		 push	 eax
  00639	0f bf 4d f4	 movsx	 ecx, WORD PTR _i$[ebp]
  0063d	0f b7 54 4d b4	 movzx	 edx, WORD PTR _lsf1_r$[ebp+ecx*2]
  00642	52		 push	 edx
  00643	e8 00 00 00 00	 call	 _add
  00648	83 c4 08	 add	 esp, 8
  0064b	0f bf 4d f4	 movsx	 ecx, WORD PTR _i$[ebp]
  0064f	66 89 84 4d 7c
	ff ff ff	 mov	 WORD PTR _lsf1_q$[ebp+ecx*2], ax

; 173  :                                                 move16 (); 

  00657	e8 00 00 00 00	 call	 _move16

; 174  :             lsf2_q[i] = add (lsf2_r[i], temp);

  0065c	0f b7 45 dc	 movzx	 eax, WORD PTR _temp$[ebp]
  00660	50		 push	 eax
  00661	0f bf 4d f4	 movsx	 ecx, WORD PTR _i$[ebp]
  00665	0f b7 54 4d 98	 movzx	 edx, WORD PTR _lsf2_r$[ebp+ecx*2]
  0066a	52		 push	 edx
  0066b	e8 00 00 00 00	 call	 _add
  00670	83 c4 08	 add	 esp, 8
  00673	0f bf 4d f4	 movsx	 ecx, WORD PTR _i$[ebp]
  00677	66 89 84 4d 60
	ff ff ff	 mov	 WORD PTR _lsf2_q$[ebp+ecx*2], ax

; 175  :                                                 move16 (); 

  0067f	e8 00 00 00 00	 call	 _move16

; 176  :             st->past_r_q[i] = lsf2_r[i];        move16 (); 

  00684	0f bf 45 f4	 movsx	 eax, WORD PTR _i$[ebp]
  00688	0f bf 4d f4	 movsx	 ecx, WORD PTR _i$[ebp]
  0068c	8b 55 08	 mov	 edx, DWORD PTR _st$[ebp]
  0068f	66 8b 44 45 98	 mov	 ax, WORD PTR _lsf2_r$[ebp+eax*2]
  00694	66 89 04 4a	 mov	 WORD PTR [edx+ecx*2], ax
  00698	e8 00 00 00 00	 call	 _move16

; 177  :         }

  0069d	e9 43 ff ff ff	 jmp	 $LN2@D_plsf_5
$LN6@D_plsf_5:

; 178  :     }
; 179  : 
; 180  :     /* verification that LSFs have minimum distance of LSF_GAP Hz */
; 181  : 
; 182  :     Reorder_lsf (lsf1_q, LSF_GAP, M);

  006a2	6a 0a		 push	 10			; 0000000aH
  006a4	68 cd 00 00 00	 push	 205			; 000000cdH
  006a9	8d 85 7c ff ff
	ff		 lea	 eax, DWORD PTR _lsf1_q$[ebp]
  006af	50		 push	 eax
  006b0	e8 00 00 00 00	 call	 _Reorder_lsf
  006b5	83 c4 0c	 add	 esp, 12			; 0000000cH

; 183  :     Reorder_lsf (lsf2_q, LSF_GAP, M);

  006b8	6a 0a		 push	 10			; 0000000aH
  006ba	68 cd 00 00 00	 push	 205			; 000000cdH
  006bf	8d 85 60 ff ff
	ff		 lea	 eax, DWORD PTR _lsf2_q$[ebp]
  006c5	50		 push	 eax
  006c6	e8 00 00 00 00	 call	 _Reorder_lsf
  006cb	83 c4 0c	 add	 esp, 12			; 0000000cH

; 184  : 
; 185  :     Copy (lsf2_q, st->past_lsf_q, M);

  006ce	6a 0a		 push	 10			; 0000000aH
  006d0	8b 45 08	 mov	 eax, DWORD PTR _st$[ebp]
  006d3	83 c0 14	 add	 eax, 20			; 00000014H
  006d6	50		 push	 eax
  006d7	8d 8d 60 ff ff
	ff		 lea	 ecx, DWORD PTR _lsf2_q$[ebp]
  006dd	51		 push	 ecx
  006de	e8 00 00 00 00	 call	 _Copy
  006e3	83 c4 0c	 add	 esp, 12			; 0000000cH

; 186  : 
; 187  :     /*  convert LSFs to the cosine domain */
; 188  : 
; 189  :     Lsf_lsp (lsf1_q, lsp1_q, M);

  006e6	6a 0a		 push	 10			; 0000000aH
  006e8	8b 45 14	 mov	 eax, DWORD PTR _lsp1_q$[ebp]
  006eb	50		 push	 eax
  006ec	8d 8d 7c ff ff
	ff		 lea	 ecx, DWORD PTR _lsf1_q$[ebp]
  006f2	51		 push	 ecx
  006f3	e8 00 00 00 00	 call	 _Lsf_lsp
  006f8	83 c4 0c	 add	 esp, 12			; 0000000cH

; 190  :     Lsf_lsp (lsf2_q, lsp2_q, M);

  006fb	6a 0a		 push	 10			; 0000000aH
  006fd	8b 45 18	 mov	 eax, DWORD PTR _lsp2_q$[ebp]
  00700	50		 push	 eax
  00701	8d 8d 60 ff ff
	ff		 lea	 ecx, DWORD PTR _lsf2_q$[ebp]
  00707	51		 push	 ecx
  00708	e8 00 00 00 00	 call	 _Lsf_lsp
  0070d	83 c4 0c	 add	 esp, 12			; 0000000cH

; 191  : 
; 192  :     return 0;

  00710	33 c0		 xor	 eax, eax

; 193  : }

  00712	52		 push	 edx
  00713	8b cd		 mov	 ecx, ebp
  00715	50		 push	 eax
  00716	8d 15 00 00 00
	00		 lea	 edx, DWORD PTR $LN21@D_plsf_5
  0071c	e8 00 00 00 00	 call	 @_RTC_CheckStackVars@8
  00721	58		 pop	 eax
  00722	5a		 pop	 edx
  00723	5f		 pop	 edi
  00724	5e		 pop	 esi
  00725	5b		 pop	 ebx
  00726	8b 4d fc	 mov	 ecx, DWORD PTR __$ArrayPad$[ebp]
  00729	33 cd		 xor	 ecx, ebp
  0072b	e8 00 00 00 00	 call	 @__security_check_cookie@4
  00730	81 c4 68 01 00
	00		 add	 esp, 360		; 00000168H
  00736	3b ec		 cmp	 ebp, esp
  00738	e8 00 00 00 00	 call	 __RTC_CheckEsp
  0073d	8b e5		 mov	 esp, ebp
  0073f	5d		 pop	 ebp
  00740	c3		 ret	 0
  00741	8d 49 00	 npad	 3
$LN21@D_plsf_5:
  00744	04 00 00 00	 DD	 4
  00748	00 00 00 00	 DD	 $LN20@D_plsf_5
$LN20@D_plsf_5:
  0074c	b4 ff ff ff	 DD	 -76			; ffffffb4H
  00750	14 00 00 00	 DD	 20			; 00000014H
  00754	00 00 00 00	 DD	 $LN16@D_plsf_5
  00758	98 ff ff ff	 DD	 -104			; ffffff98H
  0075c	14 00 00 00	 DD	 20			; 00000014H
  00760	00 00 00 00	 DD	 $LN17@D_plsf_5
  00764	7c ff ff ff	 DD	 -132			; ffffff7cH
  00768	14 00 00 00	 DD	 20			; 00000014H
  0076c	00 00 00 00	 DD	 $LN18@D_plsf_5
  00770	60 ff ff ff	 DD	 -160			; ffffff60H
  00774	14 00 00 00	 DD	 20			; 00000014H
  00778	00 00 00 00	 DD	 $LN19@D_plsf_5
$LN19@D_plsf_5:
  0077c	6c		 DB	 108			; 0000006cH
  0077d	73		 DB	 115			; 00000073H
  0077e	66		 DB	 102			; 00000066H
  0077f	32		 DB	 50			; 00000032H
  00780	5f		 DB	 95			; 0000005fH
  00781	71		 DB	 113			; 00000071H
  00782	00		 DB	 0
$LN18@D_plsf_5:
  00783	6c		 DB	 108			; 0000006cH
  00784	73		 DB	 115			; 00000073H
  00785	66		 DB	 102			; 00000066H
  00786	31		 DB	 49			; 00000031H
  00787	5f		 DB	 95			; 0000005fH
  00788	71		 DB	 113			; 00000071H
  00789	00		 DB	 0
$LN17@D_plsf_5:
  0078a	6c		 DB	 108			; 0000006cH
  0078b	73		 DB	 115			; 00000073H
  0078c	66		 DB	 102			; 00000066H
  0078d	32		 DB	 50			; 00000032H
  0078e	5f		 DB	 95			; 0000005fH
  0078f	72		 DB	 114			; 00000072H
  00790	00		 DB	 0
$LN16@D_plsf_5:
  00791	6c		 DB	 108			; 0000006cH
  00792	73		 DB	 115			; 00000073H
  00793	66		 DB	 102			; 00000066H
  00794	31		 DB	 49			; 00000031H
  00795	5f		 DB	 95			; 0000005fH
  00796	72		 DB	 114			; 00000072H
  00797	00		 DB	 0
_D_plsf_5 ENDP
_TEXT	ENDS
END
