; Listing generated by Microsoft (R) Optimizing Compiler Version 18.00.40629.0 

	TITLE	E:\mywork\client\PC2.0TRUNK\PC2.0\third_party\libAMRPlayer\AMR\dec_gain.c
	.686P
	.XMM
	include listing.inc
	.model	flat

INCLUDELIB MSVCRTD
INCLUDELIB OLDNAMES

PUBLIC	_dec_gain_id
CONST	SEGMENT
_dec_gain_id DB	'@(#)$Id $$Id $', 00H
	ORG $+1
_table_gain_highrates DW 0241H
	DW	0296H
	DW	0f57cH
	DW	0c0aaH
	DW	0326H
	DW	072cH
	DW	0fb5fH
	DW	0e421H
	DW	0c25H
	DW	041cH
	DW	0f828H
	DW	0d0caH
	DW	01055H
	DW	056bH
	DW	0f9c0H
	DW	0da63H
	DW	0945H
	DW	0591H
	DW	0f9e8H
	DW	0db4eH
	DW	0cb0H
	DW	07c1H
	DW	0fbd2H
	DW	0e6d6H
	DW	0723H
	DW	0910H
	DW	0fcb8H
	DW	0ec40H
	DW	03adH
	DW	0cf2H
	DW	0fec7H
	DW	0f8a3H
	DW	092fH
	DW	0ba1H
	DW	0fe29H
	DW	0f4eaH
	DW	0e20H
	DW	0974H
	DW	0fcf7H
	DW	0edb7H
	DW	0d7bH
	DW	0c18H
	DW	0fe62H
	DW	0f646H
	DW	0b8bH
	DW	010cdH
	DW	048H
	DW	01b2H
	DW	0738H
	DW	01194H
	DW	08bH
	DW	0344H
	DW	0f2cH
	DW	01528H
	DW	019dH
	DW	09b4H
	DW	04a3H
	DW	01c2aH
	DW	0343H
	DW	013a6H
	DW	0c0bH
	DW	02328H
	DW	048bH
	DW	01b5aH
	DW	01cd8H
	DW	0373H
	DW	0f725H
	DW	0cab1H
	DW	0174aH
	DW	05e2H
	DW	0fa3aH
	DW	0dd3cH
	DW	01423H
	DW	0856H
	DW	0fc3dH
	DW	0e958H
	DW	01f08H
	DW	07d9H
	DW	0fbe4H
	DW	0e741H
	DW	0196bH
	DW	08caH
	DW	0fc8bH
	DW	0eb31H
	DW	01df6H
	DW	0ac0H
	DW	0fdb4H
	DW	0f22fH
	DW	01740H
	DW	0bc8H
	DW	0fe3cH
	DW	0f55cH
	DW	01322H
	DW	0eb4H
	DW	0ff83H
	DW	0fd11H
	DW	01b4dH
	DW	0e04H
	DW	0ff3cH
	DW	0fb67H
	DW	01feeH
	DW	0f8aH
	DW	0ffd5H
	DW	0fefcH
	DW	017b0H
	DW	01134H
	DW	06bH
	DW	0285H
	DW	01e1dH
	DW	013dfH
	DW	0140H
	DW	0788H
	DW	01593H
	DW	01785H
	DW	0239H
	DW	0d62H
	DW	01e59H
	DW	01bd6H
	DW	0332H
	DW	0133eH
	DW	017acH
	DW	01f02H
	DW	03d1H
	DW	016fdH
	DW	015daH
	DW	02cdfH
	DW	05f3H
	DW	023d4H
	DW	02955H
	DW	054cH
	DW	0f99fH
	DW	0d999H
	DW	02359H
	DW	063dH
	DW	0fa91H
	DW	0df44H
	DW	02642H
	DW	07f3H
	DW	0fbf7H
	DW	0e7b4H
	DW	022f2H
	DW	096fH
	DW	0fcf4H
	DW	0eda4H
	DW	02838H
	DW	0a18H
	DW	0fd57H
	DW	0effdH
	DW	024bfH
	DW	0aaeH
	DW	0fdabH
	DW	0f1f5H
	DW	021fcH
	DW	0c92H
	DW	0fe9cH
	DW	0f7a0H
	DW	0261dH
	DW	0d43H
	DW	0feebH
	DW	0f97bH
	DW	027c1H
	DW	0f34H
	DW	0ffb5H
	DW	0fe3aH
	DW	023d2H
	DW	011b0H
	DW	094H
	DW	037bH
	DW	027a8H
	DW	0138cH
	DW	0128H
	DW	06f5H
	DW	0239aH
	DW	01667H
	DW	01f1H
	DW	0bb1H
	DW	02904H
	DW	0187aH
	DW	0274H
	DW	0ec6H
	DW	0277eH
	DW	01dcfH
	DW	0397H
	DW	0159eH
	DW	0228cH
	DW	02217H
	DW	045dH
	DW	01a48H
	DW	022fcH
	DW	030d0H
	DW	0670H
	DW	026c1H
	DW	0327cH
	DW	03d0H
	DW	0f7b9H
	DW	0ce2fH
	DW	02cabH
	DW	06dbH
	DW	0fb1cH
	DW	0e28dH
	DW	02f6aH
	DW	0918H
	DW	0fcbdH
	DW	0ec60H
	DW	02c7cH
	DW	0940H
	DW	0fcd6H
	DW	0ecf8H
	DW	029ccH
	DW	0bf8H
	DW	0fe53H
	DW	0f5ecH
	DW	0302cH
	DW	0b2dH
	DW	0fdeeH
	DW	0f388H
	DW	02dcaH
	DW	0cffH
	DW	0fecdH
	DW	0f8c8H
	DW	02c06H
	DW	0e74H
	DW	0ff6aH
	DW	0fc78H
	DW	02a6dH
	DW	0113dH
	DW	06eH
	DW	0297H
	DW	02f32H
	DW	011b5H
	DW	096H
	DW	0386H
	DW	02c13H
	DW	01455H
	DW	0162H
	DW	0854H
	DW	02eb8H
	DW	018a1H
	DW	027dH
	DW	0efdH
	DW	02b9fH
	DW	01d6eH
	DW	0384H
	DW	0152cH
	DW	02f60H
	DW	02089H
	DW	0419H
	DW	018a8H
	DW	02ad9H
	DW	02a19H
	DW	0595H
	DW	0219cH
	DW	0283cH
	DW	043e0H
	DW	0857H
	DW	03235H
	DW	0364bH
	DW	0691H
	DW	0fadcH
	DW	0e10fH
	DW	03124H
	DW	07fdH
	DW	0fbfeH
	DW	0e7ddH
	DW	033d1H
	DW	0987H
	DW	0fd02H
	DW	0edfeH
	DW	036d1H
	DW	0badH
	DW	0fe2fH
	DW	0f50eH
	DW	0348cH
	DW	0c1aH
	DW	0fe63H
	DW	0f64eH
	DW	0306cH
	DW	0e4aH
	DW	0ff59H
	DW	0fc12H
	DW	034c6H
	DW	0ec4H
	DW	0ff89H
	DW	0fd37H
	DW	03250H
	DW	010b0H
	DW	03eH
	DW	0176H
	DW	034ddH
	DW	012fdH
	DW	0fdH
	DW	05f3H
	DW	0317bH
	DW	01551H
	DW	01a8H
	DW	09f8H
	DW	0361eH
	DW	017daH
	DW	024eH
	DW	0ddfH
	DW	032e7H
	DW	01953H
	DW	02a6H
	DW	0ff4H
	DW	034f5H
	DW	01e29H
	DW	03a9H
	DW	01607H
	DW	0329dH
	DW	0245fH
	DW	04bdH
	DW	01c88H
	DW	03592H
	DW	02d1fH
	DW	05fcH
	DW	02405H
	DW	0312fH
	DW	03b66H
	DW	0792H
	DW	02d93H
	DW	03b09H
	DW	0604H
	DW	0fa5bH
	DW	0de04H
	DW	03ae0H
	DW	091dH
	DW	0fcc0H
	DW	0ec71H
	DW	038bfH
	DW	09cfH
	DW	0fd2dH
	DW	0ef00H
	DW	03964H
	DW	0c7fH
	DW	0fe93H
	DW	0f76bH
	DW	03c16H
	DW	0de8H
	DW	0ff31H
	DW	0fb21H
	DW	03735H
	DW	0f78H
	DW	0ffceH
	DW	0fed4H
	DW	03afeH
	DW	0108cH
	DW	032H
	DW	012aH
	DW	037fcH
	DW	012d8H
	DW	0f2H
	DW	05aeH
	DW	039feH
	DW	0154bH
	DW	01a6H
	DW	09eeH
	DW	03bcaH
	DW	017c3H
	DW	0248H
	DW	0dbeH
	DW	037f9H
	DW	01ae8H
	DW	0300H
	DW	0120fH
	DW	03ad4H
	DW	01e09H
	DW	03a2H
	DW	015e2H
	DW	03846H
	DW	024d2H
	DW	04cfH
	DW	01cf5H
	DW	03c1bH
	DW	0260dH
	DW	0500H
	DW	01e1aH
	DW	039e8H
	DW	037bfH
	DW	0734H
	DW	02b5eH
	DW	03520H
	DW	0616bH
	DW	0a6dH
	DW	03ec3H
	DW	0400cH
	DW	07b1H
	DW	0fbc6H
	DW	0e68bH
	DW	041b1H
	DW	0b10H
	DW	0fddfH
	DW	0f32dH
	DW	03d61H
	DW	0b1bH
	DW	0fde5H
	DW	0f350H
	DW	03ee8H
	DW	0d08H
	DW	0fed1H
	DW	0f8dfH
	DW	04000H
	DW	0f7bH
	DW	0ffcfH
	DW	0fedaH
	DW	0422cH
	DW	011e3H
	DW	0a5H
	DW	03e0H
	DW	03d5fH
	DW	011f7H
	DW	0abH
	DW	0406H
	DW	03f5eH
	DW	01548H
	DW	01a5H
	DW	09e9H
	DW	041c0H
	DW	018eeH
	DW	028fH
	DW	0f69H
	DW	03d81H
	DW	01be5H
	DW	0335H
	DW	01350H
	DW	03fc6H
	DW	01d2dH
	DW	0378H
	DW	014dfH
	DW	040e3H
	DW	021b0H
	DW	044cH
	DW	019deH
	DW	04284H
	DW	028b2H
	DW	0563H
	DW	0206fH
	DW	03e21H
	DW	02e29H
	DW	061dH
	DW	024cfH
	DW	041eeH
	DW	03962H
	DW	075fH
	DW	02c60H
	DW	04083H
	DW	05186H
	DW	0966H
	DW	03893H
	DW	046deH
	DW	0823H
	DW	0fc19H
	DW	0e883H
	DW	04bc9H
	DW	0c6aH
	DW	0fe89H
	DW	0f72fH
	DW	04464H
	DW	0d62H
	DW	0fef8H
	DW	0f9cbH
	DW	04e56H
	DW	0fbbH
	DW	0ffe7H
	DW	0ff69H
	DW	04695H
	DW	01099H
	DW	036H
	DW	0146H
	DW	04a08H
	DW	013caH
	DW	013aH
	DW	0762H
	DW	0452fH
	DW	0151aH
	DW	0199H
	DW	099dH
	DW	04d7bH
	DW	01830H
	DW	0262H
	DW	0e5cH
	DW	0461eH
	DW	01b66H
	DW	031bH
	DW	012b0H
	DW	05346H
	DW	01ec5H
	DW	03c6H
	DW	016b8H
	DW	045f6H
	DW	02449H
	DW	04baH
	DW	01c73H
	DW	04ac8H
	DW	0244aH
	DW	04baH
	DW	01c74H
	DW	05025H
	DW	02c75H
	DW	05e6H
	DW	02381H
	DW	0469bH
	DW	03895H
	DW	074aH
	DW	02be2H
	DW	04e1fH
	DW	045daH
	DW	0881H
	DW	03334H
	DW	0499aH
	DW	07ffcH
	DW	0c00H
	DW	0483eH
_table_gain_lowrates DW 02a3dH
	DW	07051H
	DW	0b3fH
	DW	043b5H
	DW	05000H
	DW	0ae1H
	DW	0fdc6H
	DW	0f299H
	DW	04999H
	DW	019c2H
	DW	02bfH
	DW	0108bH
	DW	01851H
	DW	01cf5H
	DW	036cH
	DW	0149cH
	DW	04333H
	DW	028ccH
	DW	0567H
	DW	02085H
	DW	0547aH
	DW	04f5H
	DW	0f93dH
	DW	0d74aH
	DW	0528fH
	DW	01147H
	DW	071H
	DW	02abH
	DW	02c28H
	DW	0614H
	DW	0fa6aH
	DW	0de5fH
	DW	04a3dH
	DW	03214H
	DW	0696H
	DW	027a4H
	DW	043d7H
	DW	09c2H
	DW	0fd25H
	DW	0eed2H
	DW	045c2H
	DW	012e1H
	DW	0f4H
	DW	05c0H
	DW	0270aH
	DW	09c2H
	DW	0fd25H
	DW	0eed2H
	DW	0447aH
	DW	01eb8H
	DW	03c4H
	DW	016aaH
	DW	037aeH
	DW	075cH
	DW	0fb85H
	DW	0e505H
	DW	03e14H
	DW	0c51H
	DW	0fe7dH
	DW	0f6e9H
	DW	01a3dH
	DW	070aH
	DW	0fb43H
	DW	0e379H
	DW	0470aH
	DW	04ee1H
	DW	0935H
	DW	0376dH
	DW	04666H
	DW	0bd7H
	DW	0fe43H
	DW	0f58aH
	DW	04147H
	DW	016e1H
	DW	0210H
	DW	0c6dH
	DW	0228fH
	DW	0faeH
	DW	0ffe2H
	DW	0ff4cH
	DW	03e14H
	DW	0230aH
	DW	0486H
	DW	01b3cH
	DW	04666H
	DW	0570H
	DW	0f9c6H
	DW	0da81H
	DW	04147H
	DW	01000H
	DW	00H
	DW	00H
	DW	02000H
	DW	028fH
	DW	0f56cH
	DW	0c04fH
	DW	03b85H
	DW	03666H
	DW	0710H
	DW	02a84H
	DW	037aeH
	DW	0c28H
	DW	0fe6aH
	DW	0f674H
	DW	0370aH
	DW	0123dH
	DW	0c1H
	DW	048dH
	DW	0151eH
	DW	0a8fH
	DW	0fd9aH
	DW	0f18fH
	DW	0347aH
	DW	01999H
	DW	02b6H
	DW	01054H
	DW	030a3H
	DW	0385H
	DW	0f743H
	DW	0cb64H
	DW	030a3H
	DW	0a66H
	DW	0fd83H
	DW	0f107H
	DW	0eb8H
	DW	028fH
	DW	0f56cH
	DW	0c04fH
	DW	03999H
	DW	05bd7H
	DW	0a16H
	DW	03cb7H
	DW	04ae1H
	DW	0999H
	DW	0fd0dH
	DW	0ee3eH
	DW	04eb8H
	DW	013d7H
	DW	013eH
	DW	0779H
	DW	01ae1H
	DW	01000H
	DW	00H
	DW	00H
	DW	05000H
	DW	02170H
	DW	0441H
	DW	0199cH
	DW	04cccH
	DW	02e1H
	DW	0f61aH
	DW	0c469H
	DW	04a3dH
	DW	010a3H
	DW	03aH
	DW	015bH
	DW	01eb8H
	DW	0828H
	DW	0fc1dH
	DW	0e897H
	DW	02cccH
	DW	03000H
	DW	0657H
	DW	0262bH
	DW	03e14H
	DW	05c2H
	DW	0fa1aH
	DW	0dc7eH
	DW	03d70H
	DW	01214H
	DW	0b4H
	DW	043eH
	DW	023d7H
	DW	0599H
	DW	0f9f0H
	DW	0db83H
	DW	03eb8H
	DW	01b5cH
	DW	0319H
	DW	012a4H
	DW	039ebH
	DW	02e1H
	DW	0f61aH
	DW	0c469H
	DW	03ae1H
	DW	08ccH
	DW	0fc8cH
	DW	0eb37H
	DW	013d7H
	DW	04ccH
	DW	0f90cH
	DW	0d626H
	DW	033d7H
	DW	043aeH
	DW	0853H
	DW	0321bH
	DW	040a3H
	DW	091eH
	DW	0fcc1H
	DW	0ec76H
	DW	03ae1H
	DW	016b8H
	DW	0206H
	DW	0c2eH
	DW	0f5cH
	DW	0e66H
	DW	0ff64H
	DW	0fc56H
	DW	037aeH
	DW	02199H
	DW	0448H
	DW	019c6H
	DW	041ebH
	DW	030aH
	DW	0f66aH
	DW	0c64aH
	DW	03ae1H
	DW	0ee1H
	DW	0ff95H
	DW	0fd7aH
	DW	017aeH
	DW	0266H
	DW	0f50cH
	DW	0be11H
	DW	0247aH
	DW	02428H
	DW	04b4H
	DW	01c53H
	DW	033d7H
	DW	06e1H
	DW	0fb21H
	DW	0e2acH
	DW	033d7H
	DW	0dc2H
	DW	0ff21H
	DW	0fac1H
	DW	0999H
	DW	07aeH
	DW	0fbc4H
	DW	0e67fH
	DW	02cccH
	DW	01599H
	DW	01bbH
	DW	0a6cH
	DW	028f5H
	DW	02e1H
	DW	0f61aH
	DW	0c469H
	DW	02d70H
	DW	0c7aH
	DW	0fe91H
	DW	0f75cH
	DW	05c2H
	DW	030aH
	DW	0f66aH
	DW	0c64aH
_table_gain_MR475 DW 032cH
	DW	080H
	DW	021eH
	DW	08cH
	DW	0b39H
	DW	046fH
	DW	08daH
	DW	0d4aH
	DW	0813H
	DW	0233H
	DW	03185H
	DW	0287H
	DW	01024H
	DW	0706H
	DW	015e1H
	DW	014a5H
	DW	01e09H
	DW	0176H
	DW	0e97H
	DW	01b9H
	DW	02aa0H
	DW	0a4eH
	DW	02e1fH
	DW	09beH
	DW	0500aH
	DW	031dH
	DW	01462H
	DW	02a3H
	DW	01a44H
	DW	020a2H
	DW	014a2H
	DW	06a0H
	DW	05d0H
	DW	01acH
	DW	016faH
	DW	01c4H
	DW	014d4H
	DW	0fe8H
	DW	0dffH
	DW	04f4H
	DW	09a5H
	DW	0385H
	DW	03e16H
	DW	03edH
	DW	03a86H
	DW	0cc7H
	DW	0285bH
	DW	012faH
	DW	0e33H
	DW	07e5H
	DW	0a24H
	DW	0343H
	DW	03048H
	DW	0131cH
	DW	02faeH
	DW	06a8H
	DW	03478H
	DW	0644H
	DW	0239eH
	DW	0925H
	DW	0f80H
	DW	0602H
	DW	01567H
	DW	026d0H
	DW	0ed3H
	DW	01a1H
	DW	054fH
	DW	019eH
	DW	0e38H
	DW	0621H
	DW	01f3bH
	DW	0dd5H
	DW	02c8dH
	DW	0285H
	DW	02168H
	DW	027bH
	DW	0fd8H
	DW	0561H
	DW	040e0H
	DW	017ecH
	DW	02c9cH
	DW	02bcH
	DW	07d7H
	DW	025fH
	DW	0307fH
	DW	062aH
	DW	02b6fH
	DW	0122eH
	DW	03570H
	DW	06acH
	DW	02ed6H
	DW	04cdH
	DW	01f3cH
	DW	01c81H
	DW	033afH
	DW	01653H
	DW	097cH
	DW	0487H
	DW	0819H
	DW	0795H
	DW	0184aH
	DW	017e9H
	DW	0ddaH
	DW	070cH
	DW	022ddH
	DW	070aH
	DW	021e7H
	DW	062cH
	DW	0366fH
	DW	0df8H
	DW	03401H
	DW	0185dH
	DW	017feH
	DW	046aH
	DW	0176aH
	DW	06c6H
	DW	0373dH
	DW	01236H
	DW	02c07H
	DW	0cf9H
	DW	02fc2H
	DW	060fH
	DW	0366bH
	DW	0bc7H
	DW	013d9H
	DW	028e0H
	DW	024e4H
	DW	01a32H
	DW	0699H
	DW	02abH
	DW	059cH
	DW	051aH
	DW	01c2cH
	DW	0f5dH
	DW	0ff2H
	DW	0a99H
	DW	01e71H
	DW	02c0H
	DW	03adeH
	DW	0322H
	DW	0189bH
	DW	0145cH
	DW	010f1H
	DW	014edH
	DW	01a14H
	DW	021dH
	DW	017aeH
	DW	0272H
	DW	03553H
	DW	0e74H
	DW	02ceaH
	DW	0968H
	DW	03f1cH
	DW	02ccH
	DW	02f91H
	DW	02efH
	DW	01f81H
	DW	02ce1H
	DW	018aaH
	DW	08d0H
	DW	01172H
	DW	01f0H
	DW	01c7dH
	DW	020bH
	DW	027e5H
	DW	0ef9H
	DW	020caH
	DW	0bddH
	DW	020d3H
	DW	03c6H
	DW	03794H
	DW	0758H
	DW	021ffH
	DW	01521H
	DW	0400bH
	DW	012ffH
	DW	01cfcH
	DW	07bbH
	DW	017c9H
	DW	04ceH
	DW	0249bH
	DW	0112eH
	DW	038deH
	DW	0d23H
	DW	034f7H
	DW	0b39H
	DW	0336bH
	DW	05b9H
	DW	0159eH
	DW	068eH
	DW	03352H
	DW	039b3H
	DW	01caaH
	DW	0258H
	DW	0526H
	DW	0224H
	DW	0109cH
	DW	0dd3H
	DW	0273cH
	DW	093cH
	DW	0295bH
	DW	026eH
	DW	03320H
	DW	029dH
	DW	0372eH
	DW	0dc6H
	DW	013afH
	DW	02638H
	DW	03beaH
	DW	026bH
	DW	0c2bH
	DW	024eH
	DW	0403aH
	DW	0bc5H
	DW	03cb6H
	DW	01048H
	DW	03cb1H
	DW	064bH
	DW	03c2dH
	DW	04ccH
	DW	03e97H
	DW	02453H
	DW	01d6eH
	DW	01370H
	DW	07c6H
	DW	04bdH
	DW	02cb7H
	DW	0485H
	DW	030e0H
	DW	0158fH
	DW	02503H
	DW	0a54H
	DW	01e24H
	DW	07f2H
	DW	033e0H
	DW	08bfH
	DW	03e8bH
	DW	013e5H
	DW	01f82H
	DW	01a69H
	DW	02763H
	DW	0585H
	DW	0138aH
	DW	092bH
	DW	030ebH
	DW	01757H
	DW	03b16H
	DW	0b53H
	DW	04758H
	DW	08f1H
	DW	03dd3H
	DW	09dfH
	DW	03f89H
	DW	0280eH
	DW	0393bH
	DW	02c37H
	DW	0705H
	DW	0151H
	DW	0c2bH
	DW	018dH
	DW	0db6H
	DW	0b70H
	DW	011f0H
	DW	0a6eH
	DW	01d5fH
	DW	0274H
	DW	02c97H
	DW	0290H
	DW	0173aH
	DW	0983H
	DW	01990H
	DW	01cc7H
	DW	0202eH
	DW	033dH
	DW	0fa0H
	DW	035fH
	DW	02730H
	DW	09bcH
	DW	03eb9H
	DW	0ddfH
	DW	0471cH
	DW	041eH
	DW	017d7H
	DW	05aeH
	DW	016fcH
	DW	01edcH
	DW	04940H
	DW	0d8cH
	DW	0748H
	DW	0220H
	DW	023eeH
	DW	02abH
	DW	02d67H
	DW	01040H
	DW	011f2H
	DW	066cH
	DW	0c56H
	DW	0485H
	DW	03e51H
	DW	0a00H
	DW	0303dH
	DW	0e95H
	DW	0440cH
	DW	0148cH
	DW	017daH
	DW	07d4H
	DW	0b65H
	DW	06ceH
	DW	04053H
	DW	01489H
	DW	04193H
	DW	0690H
	DW	04335H
	DW	06dfH
	DW	012a5H
	DW	0c9fH
	DW	01cdaH
	DW	01793H
	DW	03806H
	DW	0271cH
	DW	0fc3H
	DW	01baH
	DW	01062H
	DW	01caH
	DW	023feH
	DW	08c2H
	DW	01d03H
	DW	01079H
	DW	0323cH
	DW	0321H
	DW	02bb2H
	DW	0339H
	DW	03168H
	DW	0824H
	DW	0329cH
	DW	0199aH
	DW	02521H
	DW	03e4H
	DW	019e5H
	DW	03d9H
	DW	02929H
	DW	09c6H
	DW	03bb9H
	DW	0138eH
	DW	0313aH
	DW	0807H
	DW	03c7cH
	DW	0675H
	DW	03f42H
	DW	01b09H
	DW	03797H
	DW	0169eH
	DW	0a42H
	DW	033cH
	DW	015efH
	DW	0696H
	DW	0355fH
	DW	01692H
	DW	0e54H
	DW	0612H
	DW	02c31H
	DW	0a49H
	DW	0262aH
	DW	05b3H
	DW	036b3H
	DW	0127dH
	DW	03e19H
	DW	01893H
	DW	01886H
	DW	074eH
	DW	01ee6H
	DW	08edH
	DW	04252H
	DW	011dbH
	DW	040c0H
	DW	0f09H
	DW	03b90H
	DW	0907H
	DW	03e97H
	DW	0cacH
	DW	0387bH
	DW	04590H
	DW	02e47H
	DW	0acbH
	DW	07bdH
	DW	057fH
	DW	0578H
	DW	036cH
	DW	010efH
	DW	0ddbH
	DW	01127H
	DW	01072H
	DW	0151dH
	DW	02a8H
	DW	04435H
	DW	030dH
	DW	01965H
	DW	013feH
	DW	01f9bH
	DW	01dfdH
	DW	01cbbH
	DW	031aH
	DW	0208dH
	DW	049eH
	DW	03ac1H
	DW	0c58H
	DW	03a50H
	DW	0bdfH
	DW	04fc5H
	DW	0370H
	DW	038d1H
	DW	0354H
	DW	03031H
	DW	03974H
	DW	01af8H
	DW	0780H
	DW	01081H
	DW	03a5H
	DW	0201aH
	DW	043fH
	DW	029a3H
	DW	0ff4H
	DW	02762H
	DW	011b5H
	DW	0aafH
	DW	0348H
	DW	050b1H
	DW	0439H
	DW	04147H
	DW	0174eH
	DW	03e01H
	DW	011e2H
	DW	02a77H
	DW	0a0eH
	DW	0ebdH
	DW	048eH
	DW	038b7H
	DW	0fccH
	DW	050dbH
	DW	0a43H
	DW	03b73H
	DW	0aaeH
	DW	03baaH
	DW	088aH
	DW	01871H
	DW	0c9aH
	DW	03345H
	DW	04c18H
	DW	01c1cH
	DW	03a2H
	DW	099eH
	DW	0652H
	DW	011a3H
	DW	0c14H
	DW	0361cH
	DW	010b5H
	DW	028dcH
	DW	0341H
	DW	043bbH
	DW	032aH
	DW	041fbH
	DW	08f1H
	DW	03cbaH
	DW	02019H
	DW	03523H
	DW	0694H
	DW	0c7dH
	DW	072aH
	DW	03e4cH
	DW	0b04H
	DW	03dc4H
	DW	014cfH
	DW	0426eH
	DW	0986H
	DW	04194H
	DW	052eH
	DW	03d37H
	DW	01fdcH
	DW	02dceH
	DW	0216cH
	DW	0eb2H
	DW	0805H
	DW	0255bH
	DW	0525H
	DW	034f9H
	DW	01a86H
	DW	02fc3H
	DW	0790H
	DW	01ff4H
	DW	0ddeH
	DW	033e7H
	DW	06f2H
	DW	03fabH
	DW	019c7H
	DW	03fa3H
	DW	01e4eH
	DW	02149H
	DW	09f7H
	DW	01c39H
	DW	0a55H
	DW	0475dH
	DW	01d41H
	DW	041f5H
	DW	08c8H
	DW	045daH
	DW	0b44H
	DW	04371H
	DW	0d00H
	DW	024c9H
	DW	04ec2H
	DW	02b22H
	DW	02080H
	DW	0506H
	DW	026cH
	DW	0597H
	DW	0247H
	DW	01769H
	DW	08f1H
	DW	0f8aH
	DW	0e2aH
	DW	01418H
	DW	02f0H
	DW	03461H
	DW	033eH
	DW	015b1H
	DW	0b2cH
	DW	02df4H
	DW	01714H
	DW	029f1H
	DW	0230H
	DW	01546H
	DW	0234H
	DW	03409H
	DW	0bc0H
	DW	02eaaH
	DW	0e63H
	DW	04dafH
	DW	031eH
	DW	02661H
	DW	02d8H
	DW	0355fH
	DW	0222cH
	DW	01cdfH
	DW	0bedH
	DW	09d3H
	DW	030aH
	DW	017a2H
	DW	0341H
	DW	01945H
	DW	013d2H
	DW	02071H
	DW	099fH
	DW	017fdH
	DW	0749H
	DW	03bccH
	DW	04eeH
	DW	03848H
	DW	011c3H
	DW	0355fH
	DW	011a3H
	DW	0c41H
	DW	0ba7H
	DW	09afH
	DW	04ebH
	DW	03af0H
	DW	01227H
	DW	03c16H
	DW	0a2fH
	DW	0389cH
	DW	0958H
	DW	030aeH
	DW	09e9H
	DW	01d73H
	DW	0b85H
	DW	0326dH
	DW	02f1cH
	DW	0155cH
	DW	02acH
	DW	0c45H
	DW	02d2H
	DW	013d9H
	DW	04faH
	DW	031bcH
	DW	01068H
	DW	03bc6H
	DW	02a9H
	DW	01e8bH
	DW	0250H
	DW	01986H
	DW	07e5H
	DW	0405eH
	DW	02221H
	DW	03434H
	DW	0372H
	DW	01515H
	DW	0383H
	DW	03940H
	DW	0882H
	DW	03995H
	DW	01083H
	DW	037beH
	DW	0512H
	DW	03669H
	DW	07edH
	DW	03c75H
	DW	01d3aH
	DW	03dc7H
	DW	011dcH
	DW	09d9H
	DW	07ddH
	DW	013c6H
	DW	070cH
	DW	01427H
	DW	019b6H
	DW	01bdaH
	DW	0e0dH
	DW	02aa8H
	DW	064bH
	DW	02dd1H
	DW	06acH
	DW	04207H
	DW	0d7fH
	DW	03f8cH
	DW	019f0H
	DW	0245aH
	DW	03efH
	DW	02499H
	DW	083aH
	DW	04aeeH
	DW	013adH
	DW	03099H
	DW	010adH
	DW	03e2fH
	DW	0534H
	DW	03bfdH
	DW	0db8H
	DW	02e7aH
	DW	0373dH
	DW	03ee5H
	DW	01ac6H
	DW	07daH
	DW	02e1H
	DW	0ec3H
	DW	035dH
	DW	02cbeH
	DW	0b40H
	DW	0decH
	DW	0dd4H
	DW	02361H
	DW	04d9H
	DW	03067H
	DW	0380H
	DW	02162H
	DW	01215H
	DW	02d29H
	DW	01690H
	DW	01fc1H
	DW	024dH
	DW	0201aH
	DW	024cH
	DW	04928H
	DW	0eabH
	DW	032adH
	DW	0c4dH
	DW	03d71H
	DW	02f6H
	DW	040faH
	DW	02f2H
	DW	03b76H
	DW	02b82H
	DW	03dffH
	DW	08a0H
	DW	01241H
	DW	0262H
	DW	027eaH
	DW	02a6H
	DW	03b99H
	DW	01032H
	DW	01661H
	DW	0cffH
	DW	020b9H
	DW	0686H
	DW	04d96H
	DW	0911H
	DW	03c5aH
	DW	01587H
	DW	036e6H
	DW	01569H
	DW	01660H
	DW	0b48H
	DW	01d9cH
	DW	0542H
	DW	03830H
	DW	014cdH
	DW	03f6cH
	DW	0f6eH
	DW	03b0eH
	DW	0ea0H
	DW	03bcaH
	DW	059bH
	DW	03905H
	DW	0fe6H
	DW	0300dH
	DW	03d50H
	DW	01dc1H
	DW	06a3H
	DW	087aH
	DW	0374H
	DW	0116bH
	DW	011d7H
	DW	046aeH
	DW	0ceaH
	DW	031c6H
	DW	032fH
	DW	03a4eH
	DW	038bH
	DW	03aa8H
	DW	010b9H
	DW	03c9eH
	DW	020b0H
	DW	0464aH
	DW	043fH
	DW	0936H
	DW	0361H
	DW	03f99H
	DW	0ecbH
	DW	03d3fH
	DW	011f4H
	DW	03fe4H
	DW	05feH
	DW	040c8H
	DW	08a2H
	DW	041c1H
	DW	025e1H
	DW	03e39H
	DW	011a1H
	DW	0ccdH
	DW	043dH
	DW	025abH
	DW	088bH
	DW	02ec5H
	DW	017b4H
	DW	023efH
	DW	0116eH
	DW	022fbH
	DW	065dH
	DW	02831H
	DW	0bf6H
	DW	04061H
	DW	01423H
	DW	03c6aH
	DW	01b9aH
	DW	0356eH
	DW	09efH
	DW	01499H
	DW	08e5H
	DW	0416aH
	DW	01845H
	DW	0410fH
	DW	0d50H
	DW	04f50H
	DW	0d23H
	DW	04900H
	DW	07c1H
	DW	0375cH
	DW	03243H
	DW	03b32H
	DW	03d57H
	DW	01179H
	DW	03fcH
	DW	0691H
	DW	0376H
	DW	010d7H
	DW	010cdH
	DW	022f8H
	DW	0e49H
	DW	01705H
	DW	047bH
	DW	02d7fH
	DW	05acH
	DW	03e0eH
	DW	08b3H
	DW	011e6H
	DW	019f4H
	DW	01b11H
	DW	04b5H
	DW	0184cH
	DW	031fH
	DW	0307fH
	DW	0d51H
	DW	03e60H
	DW	0f25H
	DW	04d93H
	DW	083dH
	DW	025d9H
	DW	085dH
	DW	03996H
	DW	0227eH
	DW	03890H
	DW	0a27H
	DW	0719H
	DW	04d6H
	DW	01e5bH
	DW	032dH
	DW	04a87H
	DW	0113aH
	DW	015b2H
	DW	0810H
	DW	0e67H
	DW	0b1cH
	DW	0441bH
	DW	08d0H
	DW	04139H
	DW	01186H
	DW	03f47H
	DW	0150cH
	DW	01f5cH
	DW	0acbH
	DW	0d4dH
	DW	0847H
	DW	04412H
	DW	01565H
	DW	03582H
	DW	0ae2H
	DW	04da7H
	DW	0aa0H
	DW	0238aH
	DW	0f28H
	DW	046fcH
	DW	012e1H
	DW	043b8H
	DW	02fafH
	DW	013fcH
	DW	03e4H
	DW	01347H
	DW	03dcH
	DW	026a0H
	DW	0c09H
	DW	0177eH
	DW	014fbH
	DW	03e09H
	DW	0683H
	DW	020d5H
	DW	049fH
	DW	03aefH
	DW	093eH
	DW	04d41H
	DW	01b5aH
	DW	02ebbH
	DW	061aH
	DW	01c6fH
	DW	0468H
	DW	041dbH
	DW	05fcH
	DW	03d92H
	DW	01505H
	DW	03974H
	DW	0811H
	DW	04e89H
	DW	086bH
	DW	04306H
	DW	02035H
	DW	045f7H
	DW	018aeH
	DW	0155bH
	DW	05e0H
	DW	01004H
	DW	0a0eH
	DW	0440dH
	DW	01a9aH
	DW	01629H
	DW	0b48H
	DW	040fcH
	DW	0d36H
	DW	0230fH
	DW	0727H
	DW	04ebfH
	DW	01281H
	DW	04c5eH
	DW	01c7eH
	DW	01a02H
	DW	0addH
	DW	02cd0H
	DW	0cf9H
	DW	04bc5H
	DW	013beH
	DW	049beH
	DW	01272H
	DW	04037H
	DW	0945H
	DW	04fceH
	DW	01122H
	DW	02c59H
	DW	0679eH
	DW	02d49H
	DW	0bfcH
	DW	0b32H
	DW	061eH
	DW	013f4H
	DW	042eH
	DW	0258eH
	DW	01333H
	DW	0134bH
	DW	0dd0H
	DW	01d75H
	DW	036eH
	DW	050edH
	DW	0353H
	DW	01b1aH
	DW	0112bH
	DW	0419fH
	DW	01e35H
	DW	02799H
	DW	03fbH
	DW	02675H
	DW	03c4H
	DW	03c86H
	DW	0f73H
	DW	03c63H
	DW	0d66H
	DW	049afH
	DW	03d6H
	DW	04e98H
	DW	03c3H
	DW	041ecH
	DW	03257H
	DW	037feH
	DW	01068H
	DW	019c7H
	DW	04c4H
	DW	02406H
	DW	032eH
	DW	0422eH
	DW	0140eH
	DW	0161dH
	DW	01322H
	DW	01570H
	DW	0706H
	DW	04f22H
	DW	0f7aH
	DW	0426dH
	DW	01822H
	DW	04609H
	DW	01729H
	DW	02495H
	DW	0d5cH
	DW	01d32H
	DW	07b3H
	DW	04c51H
	DW	01439H
	DW	04a3bH
	DW	0bbeH
	DW	04046H
	DW	0eccH
	DW	03ec6H
	DW	093fH
	DW	021d8H
	DW	0ab7H
	DW	024e5H
	DW	066f6H
	DW	02a68H
	DW	0507H
	DW	0de3H
	DW	03f1H
	DW	015e6H
	DW	0e26H
	DW	04bfdH
	DW	01588H
	DW	030a5H
	DW	031dH
	DW	0509aH
	DW	038fH
	DW	03c43H
	DW	0bfaH
	DW	0428dH
	DW	02823H
	DW	049c3H
	DW	0a49H
	DW	0f49H
	DW	04f4H
	DW	04c3fH
	DW	0d2bH
	DW	04684H
	DW	0146eH
	DW	04b5bH
	DW	068eH
	DW	04c34H
	DW	0c64H
	DW	04698H
	DW	02a02H
	DW	040f1H
	DW	01abdH
	DW	0c3eH
	DW	08faH
	DW	02a75H
	DW	0985H
	DW	03cdcH
	DW	01b01H
	DW	03135H
	DW	0d35H
	DW	02b6cH
	DW	0ce1H
	DW	0417aH
	DW	0978H
	DW	049a5H
	DW	01a3bH
	DW	04313H
	DW	0269fH
	DW	031c7H
	DW	0a2dH
	DW	022e9H
	DW	0c44H
	DW	04a59H
	DW	01e54H
	DW	047abH
	DW	0f28H
	DW	04ffbH
	DW	0e62H
	DW	04c92H
	DW	0d34H
	DW	032f4H
	DW	04badH
	DW	0291eH
	DW	05a54H
CONST	ENDS
PUBLIC	_Dec_gain
EXTRN	_gc_pred:PROC
EXTRN	_gc_pred_update:PROC
EXTRN	_add:PROC
EXTRN	_sub:PROC
EXTRN	_shl:PROC
EXTRN	_L_mult:PROC
EXTRN	_extract_h:PROC
EXTRN	_extract_l:PROC
EXTRN	_round:PROC
EXTRN	_L_shl:PROC
EXTRN	_L_shr:PROC
EXTRN	_shr_r:PROC
EXTRN	_L_deposit_l:PROC
EXTRN	_Mpy_32_16:PROC
EXTRN	_move16:PROC
EXTRN	_test:PROC
EXTRN	_Pow2:PROC
EXTRN	_Log2:PROC
EXTRN	@_RTC_CheckStackVars@8:PROC
EXTRN	__RTC_CheckEsp:PROC
EXTRN	__RTC_InitBase:PROC
EXTRN	__RTC_Shutdown:PROC
;	COMDAT rtc$TMZ
rtc$TMZ	SEGMENT
__RTC_Shutdown.rtc$TMZ DD FLAT:__RTC_Shutdown
rtc$TMZ	ENDS
;	COMDAT rtc$IMZ
rtc$IMZ	SEGMENT
__RTC_InitBase.rtc$IMZ DD FLAT:__RTC_InitBase
rtc$IMZ	ENDS
; Function compile flags: /Odtp /RTCsu /ZI
; File e:\mywork\client\pc2.0trunk\pc2.0\third_party\libamrplayer\amr\dec_gain.c
;	COMDAT _Dec_gain
_TEXT	SEGMENT
_L_tmp$ = -92						; size = 4
_g_code$ = -80						; size = 2
_qua_ener_MR122$ = -68					; size = 2
_qua_ener$ = -56					; size = 2
_exp$ = -44						; size = 2
_gcode0$ = -32						; size = 2
_frac$ = -20						; size = 2
_p$ = -8						; size = 4
_pred_state$ = 8					; size = 4
_mode$ = 12						; size = 4
_index$ = 16						; size = 2
_code$ = 20						; size = 4
_evenSubfr$ = 24					; size = 2
_gain_pit$ = 28						; size = 4
_gain_cod$ = 32						; size = 4
_Dec_gain PROC						; COMDAT

; 72   : {

  00000	55		 push	 ebp
  00001	8b ec		 mov	 ebp, esp
  00003	81 ec 20 01 00
	00		 sub	 esp, 288		; 00000120H
  00009	53		 push	 ebx
  0000a	56		 push	 esi
  0000b	57		 push	 edi
  0000c	8d bd e0 fe ff
	ff		 lea	 edi, DWORD PTR [ebp-288]
  00012	b9 48 00 00 00	 mov	 ecx, 72			; 00000048H
  00017	b8 cc cc cc cc	 mov	 eax, -858993460		; ccccccccH
  0001c	f3 ab		 rep stosd

; 73   :     const Word16 *p;
; 74   :     Word16 frac, gcode0, exp, qua_ener, qua_ener_MR122;
; 75   :     Word16 g_code;
; 76   :     Word32 L_tmp;
; 77   :     
; 78   :     /* Read the quantized gains (table depends on mode) */
; 79   :     index = shl (index, 2);

  0001e	6a 02		 push	 2
  00020	0f b7 45 10	 movzx	 eax, WORD PTR _index$[ebp]
  00024	50		 push	 eax
  00025	e8 00 00 00 00	 call	 _shl
  0002a	83 c4 08	 add	 esp, 8
  0002d	66 89 45 10	 mov	 WORD PTR _index$[ebp], ax

; 80   :     
; 81   :     test(); test(); test();

  00031	e8 00 00 00 00	 call	 _test
  00036	e8 00 00 00 00	 call	 _test
  0003b	e8 00 00 00 00	 call	 _test

; 82   :     if (    sub (mode, MR102) == 0
; 83   :          || sub (mode, MR74) == 0
; 84   :          || sub (mode, MR67) == 0)

  00040	6a 06		 push	 6
  00042	0f b7 45 0c	 movzx	 eax, WORD PTR _mode$[ebp]
  00046	50		 push	 eax
  00047	e8 00 00 00 00	 call	 _sub
  0004c	83 c4 08	 add	 esp, 8
  0004f	0f bf c8	 movsx	 ecx, ax
  00052	85 c9		 test	 ecx, ecx
  00054	74 2c		 je	 SHORT $LN4@Dec_gain
  00056	6a 04		 push	 4
  00058	0f b7 45 0c	 movzx	 eax, WORD PTR _mode$[ebp]
  0005c	50		 push	 eax
  0005d	e8 00 00 00 00	 call	 _sub
  00062	83 c4 08	 add	 esp, 8
  00065	0f bf c8	 movsx	 ecx, ax
  00068	85 c9		 test	 ecx, ecx
  0006a	74 16		 je	 SHORT $LN4@Dec_gain
  0006c	6a 03		 push	 3
  0006e	0f b7 45 0c	 movzx	 eax, WORD PTR _mode$[ebp]
  00072	50		 push	 eax
  00073	e8 00 00 00 00	 call	 _sub
  00078	83 c4 08	 add	 esp, 8
  0007b	0f bf c8	 movsx	 ecx, ax
  0007e	85 c9		 test	 ecx, ecx
  00080	75 71		 jne	 SHORT $LN5@Dec_gain
$LN4@Dec_gain:

; 85   :     {
; 86   :         p = &table_gain_highrates[index];                  move16 ();

  00082	0f bf 45 10	 movsx	 eax, WORD PTR _index$[ebp]
  00086	8d 0c 45 00 00
	00 00		 lea	 ecx, DWORD PTR _table_gain_highrates[eax*2]
  0008d	89 4d f8	 mov	 DWORD PTR _p$[ebp], ecx
  00090	e8 00 00 00 00	 call	 _move16

; 87   :         
; 88   :         *gain_pit = *p++;                                  move16 ();

  00095	8b 45 1c	 mov	 eax, DWORD PTR _gain_pit$[ebp]
  00098	8b 4d f8	 mov	 ecx, DWORD PTR _p$[ebp]
  0009b	66 8b 11	 mov	 dx, WORD PTR [ecx]
  0009e	66 89 10	 mov	 WORD PTR [eax], dx
  000a1	8b 45 f8	 mov	 eax, DWORD PTR _p$[ebp]
  000a4	83 c0 02	 add	 eax, 2
  000a7	89 45 f8	 mov	 DWORD PTR _p$[ebp], eax
  000aa	e8 00 00 00 00	 call	 _move16

; 89   :         g_code = *p++;                                     move16 ();

  000af	8b 45 f8	 mov	 eax, DWORD PTR _p$[ebp]
  000b2	66 8b 08	 mov	 cx, WORD PTR [eax]
  000b5	66 89 4d b0	 mov	 WORD PTR _g_code$[ebp], cx
  000b9	8b 55 f8	 mov	 edx, DWORD PTR _p$[ebp]
  000bc	83 c2 02	 add	 edx, 2
  000bf	89 55 f8	 mov	 DWORD PTR _p$[ebp], edx
  000c2	e8 00 00 00 00	 call	 _move16

; 90   :         qua_ener_MR122 = *p++;                             move16 ();

  000c7	8b 45 f8	 mov	 eax, DWORD PTR _p$[ebp]
  000ca	66 8b 08	 mov	 cx, WORD PTR [eax]
  000cd	66 89 4d bc	 mov	 WORD PTR _qua_ener_MR122$[ebp], cx
  000d1	8b 55 f8	 mov	 edx, DWORD PTR _p$[ebp]
  000d4	83 c2 02	 add	 edx, 2
  000d7	89 55 f8	 mov	 DWORD PTR _p$[ebp], edx
  000da	e8 00 00 00 00	 call	 _move16

; 91   :         qua_ener = *p;                                     move16 ();

  000df	8b 45 f8	 mov	 eax, DWORD PTR _p$[ebp]
  000e2	66 8b 08	 mov	 cx, WORD PTR [eax]
  000e5	66 89 4d c8	 mov	 WORD PTR _qua_ener$[ebp], cx
  000e9	e8 00 00 00 00	 call	 _move16

; 92   :     }
; 93   :     else

  000ee	e9 9c 01 00 00	 jmp	 $LN3@Dec_gain
$LN5@Dec_gain:

; 94   :     {
; 95   :         test();

  000f3	e8 00 00 00 00	 call	 _test

; 96   :         if (sub (mode, MR475) == 0)

  000f8	6a 00		 push	 0
  000fa	0f b7 45 0c	 movzx	 eax, WORD PTR _mode$[ebp]
  000fe	50		 push	 eax
  000ff	e8 00 00 00 00	 call	 _sub
  00104	83 c4 08	 add	 esp, 8
  00107	0f bf c8	 movsx	 ecx, ax
  0010a	85 c9		 test	 ecx, ecx
  0010c	0f 85 11 01 00
	00		 jne	 $LN2@Dec_gain

; 97   :         {
; 98   :             index = add (index, shl(sub(1, evenSubfr), 1));

  00112	6a 01		 push	 1
  00114	0f b7 45 18	 movzx	 eax, WORD PTR _evenSubfr$[ebp]
  00118	50		 push	 eax
  00119	6a 01		 push	 1
  0011b	e8 00 00 00 00	 call	 _sub
  00120	83 c4 08	 add	 esp, 8
  00123	0f b7 c8	 movzx	 ecx, ax
  00126	51		 push	 ecx
  00127	e8 00 00 00 00	 call	 _shl
  0012c	83 c4 08	 add	 esp, 8
  0012f	0f b7 d0	 movzx	 edx, ax
  00132	52		 push	 edx
  00133	0f b7 45 10	 movzx	 eax, WORD PTR _index$[ebp]
  00137	50		 push	 eax
  00138	e8 00 00 00 00	 call	 _add
  0013d	83 c4 08	 add	 esp, 8
  00140	66 89 45 10	 mov	 WORD PTR _index$[ebp], ax

; 99   :             p = &table_gain_MR475[index];                  move16 ();

  00144	0f bf 45 10	 movsx	 eax, WORD PTR _index$[ebp]
  00148	8d 0c 45 00 00
	00 00		 lea	 ecx, DWORD PTR _table_gain_MR475[eax*2]
  0014f	89 4d f8	 mov	 DWORD PTR _p$[ebp], ecx
  00152	e8 00 00 00 00	 call	 _move16

; 100  :             
; 101  :             *gain_pit = *p++;                              move16 ();

  00157	8b 45 1c	 mov	 eax, DWORD PTR _gain_pit$[ebp]
  0015a	8b 4d f8	 mov	 ecx, DWORD PTR _p$[ebp]
  0015d	66 8b 11	 mov	 dx, WORD PTR [ecx]
  00160	66 89 10	 mov	 WORD PTR [eax], dx
  00163	8b 45 f8	 mov	 eax, DWORD PTR _p$[ebp]
  00166	83 c0 02	 add	 eax, 2
  00169	89 45 f8	 mov	 DWORD PTR _p$[ebp], eax
  0016c	e8 00 00 00 00	 call	 _move16

; 102  :             g_code = *p++;                                 move16 ();

  00171	8b 45 f8	 mov	 eax, DWORD PTR _p$[ebp]
  00174	66 8b 08	 mov	 cx, WORD PTR [eax]
  00177	66 89 4d b0	 mov	 WORD PTR _g_code$[ebp], cx
  0017b	8b 55 f8	 mov	 edx, DWORD PTR _p$[ebp]
  0017e	83 c2 02	 add	 edx, 2
  00181	89 55 f8	 mov	 DWORD PTR _p$[ebp], edx
  00184	e8 00 00 00 00	 call	 _move16

; 103  :             
; 104  :             /*---------------------------------------------------------*
; 105  :              *  calculate predictor update values (not stored in 4.75  *
; 106  :              *  quantizer table to save space):                        *
; 107  :              *  ~~~~~~~~~~~~~~~~~~~~~~~~~~~~~~~~~~~~~~~~~~~~~~~~~~~~~  *
; 108  :              *                                                         *
; 109  :              *   qua_ener       = log2(g)                              *
; 110  :              *   qua_ener_MR122 = 20*log10(g)                          *
; 111  :              *---------------------------------------------------------*/
; 112  : 
; 113  :             /* Log2(x Q12) = log2(x) + 12 */
; 114  :             Log2 (L_deposit_l (g_code), &exp, &frac); 

  00189	8d 45 ec	 lea	 eax, DWORD PTR _frac$[ebp]
  0018c	50		 push	 eax
  0018d	8d 4d d4	 lea	 ecx, DWORD PTR _exp$[ebp]
  00190	51		 push	 ecx
  00191	0f b7 55 b0	 movzx	 edx, WORD PTR _g_code$[ebp]
  00195	52		 push	 edx
  00196	e8 00 00 00 00	 call	 _L_deposit_l
  0019b	83 c4 04	 add	 esp, 4
  0019e	50		 push	 eax
  0019f	e8 00 00 00 00	 call	 _Log2
  001a4	83 c4 0c	 add	 esp, 12			; 0000000cH

; 115  :             exp = sub(exp, 12);

  001a7	6a 0c		 push	 12			; 0000000cH
  001a9	0f b7 45 d4	 movzx	 eax, WORD PTR _exp$[ebp]
  001ad	50		 push	 eax
  001ae	e8 00 00 00 00	 call	 _sub
  001b3	83 c4 08	 add	 esp, 8
  001b6	66 89 45 d4	 mov	 WORD PTR _exp$[ebp], ax

; 116  :     
; 117  :             qua_ener_MR122 = add (shr_r (frac, 5), shl (exp, 10));

  001ba	6a 0a		 push	 10			; 0000000aH
  001bc	0f b7 45 d4	 movzx	 eax, WORD PTR _exp$[ebp]
  001c0	50		 push	 eax
  001c1	e8 00 00 00 00	 call	 _shl
  001c6	83 c4 08	 add	 esp, 8
  001c9	0f b7 c8	 movzx	 ecx, ax
  001cc	51		 push	 ecx
  001cd	6a 05		 push	 5
  001cf	0f b7 55 ec	 movzx	 edx, WORD PTR _frac$[ebp]
  001d3	52		 push	 edx
  001d4	e8 00 00 00 00	 call	 _shr_r
  001d9	83 c4 08	 add	 esp, 8
  001dc	0f b7 c0	 movzx	 eax, ax
  001df	50		 push	 eax
  001e0	e8 00 00 00 00	 call	 _add
  001e5	83 c4 08	 add	 esp, 8
  001e8	66 89 45 bc	 mov	 WORD PTR _qua_ener_MR122$[ebp], ax

; 118  :     
; 119  :             /* 24660 Q12 ~= 6.0206 = 20*log10(2) */
; 120  :             L_tmp = Mpy_32_16(exp, frac, 24660);

  001ec	68 54 60 00 00	 push	 24660			; 00006054H
  001f1	0f b7 45 ec	 movzx	 eax, WORD PTR _frac$[ebp]
  001f5	50		 push	 eax
  001f6	0f b7 4d d4	 movzx	 ecx, WORD PTR _exp$[ebp]
  001fa	51		 push	 ecx
  001fb	e8 00 00 00 00	 call	 _Mpy_32_16
  00200	83 c4 0c	 add	 esp, 12			; 0000000cH
  00203	89 45 a4	 mov	 DWORD PTR _L_tmp$[ebp], eax

; 121  :             qua_ener = round (L_shl (L_tmp, 13)); /* Q12 * Q0 = Q13 -> Q10 */

  00206	6a 0d		 push	 13			; 0000000dH
  00208	8b 45 a4	 mov	 eax, DWORD PTR _L_tmp$[ebp]
  0020b	50		 push	 eax
  0020c	e8 00 00 00 00	 call	 _L_shl
  00211	83 c4 08	 add	 esp, 8
  00214	50		 push	 eax
  00215	e8 00 00 00 00	 call	 _round
  0021a	83 c4 04	 add	 esp, 4
  0021d	66 89 45 c8	 mov	 WORD PTR _qua_ener$[ebp], ax

; 122  :         }
; 123  :         else

  00221	eb 6c		 jmp	 SHORT $LN3@Dec_gain
$LN2@Dec_gain:

; 124  :         {
; 125  :             p = &table_gain_lowrates[index];                move16 ();

  00223	0f bf 45 10	 movsx	 eax, WORD PTR _index$[ebp]
  00227	8d 0c 45 00 00
	00 00		 lea	 ecx, DWORD PTR _table_gain_lowrates[eax*2]
  0022e	89 4d f8	 mov	 DWORD PTR _p$[ebp], ecx
  00231	e8 00 00 00 00	 call	 _move16

; 126  :             
; 127  :             *gain_pit = *p++;                               move16 ();

  00236	8b 45 1c	 mov	 eax, DWORD PTR _gain_pit$[ebp]
  00239	8b 4d f8	 mov	 ecx, DWORD PTR _p$[ebp]
  0023c	66 8b 11	 mov	 dx, WORD PTR [ecx]
  0023f	66 89 10	 mov	 WORD PTR [eax], dx
  00242	8b 45 f8	 mov	 eax, DWORD PTR _p$[ebp]
  00245	83 c0 02	 add	 eax, 2
  00248	89 45 f8	 mov	 DWORD PTR _p$[ebp], eax
  0024b	e8 00 00 00 00	 call	 _move16

; 128  :             g_code = *p++;                                  move16 ();

  00250	8b 45 f8	 mov	 eax, DWORD PTR _p$[ebp]
  00253	66 8b 08	 mov	 cx, WORD PTR [eax]
  00256	66 89 4d b0	 mov	 WORD PTR _g_code$[ebp], cx
  0025a	8b 55 f8	 mov	 edx, DWORD PTR _p$[ebp]
  0025d	83 c2 02	 add	 edx, 2
  00260	89 55 f8	 mov	 DWORD PTR _p$[ebp], edx
  00263	e8 00 00 00 00	 call	 _move16

; 129  :             qua_ener_MR122 = *p++;                          move16 ();

  00268	8b 45 f8	 mov	 eax, DWORD PTR _p$[ebp]
  0026b	66 8b 08	 mov	 cx, WORD PTR [eax]
  0026e	66 89 4d bc	 mov	 WORD PTR _qua_ener_MR122$[ebp], cx
  00272	8b 55 f8	 mov	 edx, DWORD PTR _p$[ebp]
  00275	83 c2 02	 add	 edx, 2
  00278	89 55 f8	 mov	 DWORD PTR _p$[ebp], edx
  0027b	e8 00 00 00 00	 call	 _move16

; 130  :             qua_ener = *p;                                  move16 ();

  00280	8b 45 f8	 mov	 eax, DWORD PTR _p$[ebp]
  00283	66 8b 08	 mov	 cx, WORD PTR [eax]
  00286	66 89 4d c8	 mov	 WORD PTR _qua_ener$[ebp], cx
  0028a	e8 00 00 00 00	 call	 _move16
$LN3@Dec_gain:

; 131  :         }
; 132  :     }
; 133  :     
; 134  :     /*-------------------------------------------------------------------*
; 135  :      *  predict codebook gain                                            *
; 136  :      *  ~~~~~~~~~~~~~~~~~~~~~                                            *
; 137  :      *  gc0     = Pow2(int(d)+frac(d))                                   *
; 138  :      *          = 2^exp + 2^frac                                         *
; 139  :      *                                                                   *
; 140  :      *  gcode0 (Q14) = 2^14*2^frac = gc0 * 2^(14-exp)                    *
; 141  :      *-------------------------------------------------------------------*/
; 142  : 
; 143  :     gc_pred(pred_state, mode, code, &exp, &frac, NULL, NULL);

  0028f	6a 00		 push	 0
  00291	6a 00		 push	 0
  00293	8d 45 ec	 lea	 eax, DWORD PTR _frac$[ebp]
  00296	50		 push	 eax
  00297	8d 4d d4	 lea	 ecx, DWORD PTR _exp$[ebp]
  0029a	51		 push	 ecx
  0029b	8b 55 14	 mov	 edx, DWORD PTR _code$[ebp]
  0029e	52		 push	 edx
  0029f	8b 45 0c	 mov	 eax, DWORD PTR _mode$[ebp]
  002a2	50		 push	 eax
  002a3	8b 4d 08	 mov	 ecx, DWORD PTR _pred_state$[ebp]
  002a6	51		 push	 ecx
  002a7	e8 00 00 00 00	 call	 _gc_pred
  002ac	83 c4 1c	 add	 esp, 28			; 0000001cH

; 144  : 
; 145  :     gcode0 = extract_l(Pow2(14, frac));

  002af	0f b7 45 ec	 movzx	 eax, WORD PTR _frac$[ebp]
  002b3	50		 push	 eax
  002b4	6a 0e		 push	 14			; 0000000eH
  002b6	e8 00 00 00 00	 call	 _Pow2
  002bb	83 c4 08	 add	 esp, 8
  002be	50		 push	 eax
  002bf	e8 00 00 00 00	 call	 _extract_l
  002c4	83 c4 04	 add	 esp, 4
  002c7	66 89 45 e0	 mov	 WORD PTR _gcode0$[ebp], ax

; 146  : 
; 147  :     /*------------------------------------------------------------------*
; 148  :      *  read quantized gains, update table of past quantized energies   *
; 149  :      *  ~~~~~~~~~~~~~~~~~~~~~~~~~~~~~~~~~~~~~~~~~~~~~~~~~~~~~~~~~~~~~   *
; 150  :      *  st->past_qua_en(Q10) = 20 * Log10(g_fac) / constant             *
; 151  :      *                       = Log2(g_fac)                              *
; 152  :      *                       = qua_ener                                 *
; 153  :      *                                           constant = 20*Log10(2) *
; 154  :      *------------------------------------------------------------------*/
; 155  : 
; 156  :     L_tmp = L_mult(g_code, gcode0);

  002cb	0f b7 45 e0	 movzx	 eax, WORD PTR _gcode0$[ebp]
  002cf	50		 push	 eax
  002d0	0f b7 4d b0	 movzx	 ecx, WORD PTR _g_code$[ebp]
  002d4	51		 push	 ecx
  002d5	e8 00 00 00 00	 call	 _L_mult
  002da	83 c4 08	 add	 esp, 8
  002dd	89 45 a4	 mov	 DWORD PTR _L_tmp$[ebp], eax

; 157  :     L_tmp = L_shr(L_tmp, sub(10, exp));

  002e0	0f b7 45 d4	 movzx	 eax, WORD PTR _exp$[ebp]
  002e4	50		 push	 eax
  002e5	6a 0a		 push	 10			; 0000000aH
  002e7	e8 00 00 00 00	 call	 _sub
  002ec	83 c4 08	 add	 esp, 8
  002ef	0f b7 c8	 movzx	 ecx, ax
  002f2	51		 push	 ecx
  002f3	8b 55 a4	 mov	 edx, DWORD PTR _L_tmp$[ebp]
  002f6	52		 push	 edx
  002f7	e8 00 00 00 00	 call	 _L_shr
  002fc	83 c4 08	 add	 esp, 8
  002ff	89 45 a4	 mov	 DWORD PTR _L_tmp$[ebp], eax

; 158  :     *gain_cod = extract_h(L_tmp);

  00302	8b 45 a4	 mov	 eax, DWORD PTR _L_tmp$[ebp]
  00305	50		 push	 eax
  00306	e8 00 00 00 00	 call	 _extract_h
  0030b	83 c4 04	 add	 esp, 4
  0030e	8b 4d 20	 mov	 ecx, DWORD PTR _gain_cod$[ebp]
  00311	66 89 01	 mov	 WORD PTR [ecx], ax

; 159  : 
; 160  :     /* update table of past quantized energies */
; 161  : 
; 162  :     gc_pred_update(pred_state, qua_ener_MR122, qua_ener);

  00314	0f b7 45 c8	 movzx	 eax, WORD PTR _qua_ener$[ebp]
  00318	50		 push	 eax
  00319	0f b7 4d bc	 movzx	 ecx, WORD PTR _qua_ener_MR122$[ebp]
  0031d	51		 push	 ecx
  0031e	8b 55 08	 mov	 edx, DWORD PTR _pred_state$[ebp]
  00321	52		 push	 edx
  00322	e8 00 00 00 00	 call	 _gc_pred_update
  00327	83 c4 0c	 add	 esp, 12			; 0000000cH

; 163  : 
; 164  :     return;
; 165  : }

  0032a	52		 push	 edx
  0032b	8b cd		 mov	 ecx, ebp
  0032d	50		 push	 eax
  0032e	8d 15 00 00 00
	00		 lea	 edx, DWORD PTR $LN11@Dec_gain
  00334	e8 00 00 00 00	 call	 @_RTC_CheckStackVars@8
  00339	58		 pop	 eax
  0033a	5a		 pop	 edx
  0033b	5f		 pop	 edi
  0033c	5e		 pop	 esi
  0033d	5b		 pop	 ebx
  0033e	81 c4 20 01 00
	00		 add	 esp, 288		; 00000120H
  00344	3b ec		 cmp	 ebp, esp
  00346	e8 00 00 00 00	 call	 __RTC_CheckEsp
  0034b	8b e5		 mov	 esp, ebp
  0034d	5d		 pop	 ebp
  0034e	c3		 ret	 0
  0034f	90		 npad	 1
$LN11@Dec_gain:
  00350	02 00 00 00	 DD	 2
  00354	00 00 00 00	 DD	 $LN10@Dec_gain
$LN10@Dec_gain:
  00358	ec ff ff ff	 DD	 -20			; ffffffecH
  0035c	02 00 00 00	 DD	 2
  00360	00 00 00 00	 DD	 $LN8@Dec_gain
  00364	d4 ff ff ff	 DD	 -44			; ffffffd4H
  00368	02 00 00 00	 DD	 2
  0036c	00 00 00 00	 DD	 $LN9@Dec_gain
$LN9@Dec_gain:
  00370	65		 DB	 101			; 00000065H
  00371	78		 DB	 120			; 00000078H
  00372	70		 DB	 112			; 00000070H
  00373	00		 DB	 0
$LN8@Dec_gain:
  00374	66		 DB	 102			; 00000066H
  00375	72		 DB	 114			; 00000072H
  00376	61		 DB	 97			; 00000061H
  00377	63		 DB	 99			; 00000063H
  00378	00		 DB	 0
_Dec_gain ENDP
_TEXT	ENDS
END
