; Listing generated by Microsoft (R) Optimizing Compiler Version 18.00.40629.0 

	TITLE	E:\mywork\client\PC2.0TRUNK\PC2.0\third_party\libAMRPlayer\AMR\n_proc.c
	.686P
	.XMM
	include listing.inc
	.model	flat

INCLUDELIB MSVCRTD
INCLUDELIB OLDNAMES

PUBLIC	_proc_head
PUBLIC	??_C@_0BNL@DMNKNGGB@?6?$CK?$CK?$CK?$CK?$CK?$CK?$CK?$CK?$CK?$CK?$CK?$CK?$CK?$CK?$CK?$CK?$CK?$CK?$CK?$CK?$CK?$CK?$CK?$CK?$CK?$CK?$CK?$CK?$CK?$CK?$CK@ ; `string'
EXTRN	__imp____iob_func:PROC
EXTRN	__imp__fprintf:PROC
EXTRN	__RTC_CheckEsp:PROC
EXTRN	__RTC_InitBase:PROC
EXTRN	__RTC_Shutdown:PROC
;	COMDAT rtc$TMZ
rtc$TMZ	SEGMENT
__RTC_Shutdown.rtc$TMZ DD FLAT:__RTC_Shutdown
rtc$TMZ	ENDS
;	COMDAT rtc$IMZ
rtc$IMZ	SEGMENT
__RTC_InitBase.rtc$IMZ DD FLAT:__RTC_InitBase
rtc$IMZ	ENDS
;	COMDAT ??_C@_0BNL@DMNKNGGB@?6?$CK?$CK?$CK?$CK?$CK?$CK?$CK?$CK?$CK?$CK?$CK?$CK?$CK?$CK?$CK?$CK?$CK?$CK?$CK?$CK?$CK?$CK?$CK?$CK?$CK?$CK?$CK?$CK?$CK?$CK?$CK@
CONST	SEGMENT
??_C@_0BNL@DMNKNGGB@?6?$CK?$CK?$CK?$CK?$CK?$CK?$CK?$CK?$CK?$CK?$CK?$CK?$CK?$CK?$CK?$CK?$CK?$CK?$CK?$CK?$CK?$CK?$CK?$CK?$CK?$CK?$CK?$CK?$CK?$CK?$CK@ DB 0aH
	DB	'*************************************************************'
	DB	'*', 0aH, 0aH, '     European digital cellular telecommunicati'
	DB	'ons system', 0aH, '           4750 ... 12200 bits/s speech co'
	DB	'dec for', 0aH, '         Adaptive Multi-Rate speech traffic c'
	DB	'hannels', 0aH, 0aH, '     Bit-Exact C Simulation Code - %s', 0aH
	DB	0aH, '     R98:   Version 7.6.0  ', 0aH, '     R99:   Version '
	DB	'3.3.0  ', 0aH, '     REL-4: Version 4.1.0   December 12, 2001'
	DB	0aH, '     REL-5: Version 5.1.0   March 26, 2003', 0aH, '*****'
	DB	'*********************************************************', 0aH
	DB	0aH, 00H					; `string'
CONST	ENDS
; Function compile flags: /Odtp /RTCsu /ZI
; File e:\mywork\client\pc2.0trunk\pc2.0\third_party\libamrplayer\amr\n_proc.c
;	COMDAT _proc_head
_TEXT	SEGMENT
_mes$ = 8						; size = 4
_proc_head PROC						; COMDAT

; 6    : {

  00000	55		 push	 ebp
  00001	8b ec		 mov	 ebp, esp
  00003	81 ec c0 00 00
	00		 sub	 esp, 192		; 000000c0H
  00009	53		 push	 ebx
  0000a	56		 push	 esi
  0000b	57		 push	 edi
  0000c	8d bd 40 ff ff
	ff		 lea	 edi, DWORD PTR [ebp-192]
  00012	b9 30 00 00 00	 mov	 ecx, 48			; 00000030H
  00017	b8 cc cc cc cc	 mov	 eax, -858993460		; ccccccccH
  0001c	f3 ab		 rep stosd

; 7    :     fprintf(stderr,"\n\
; 8    : **************************************************************\n\
; 9    : \n\
; 10   :      European digital cellular telecommunications system\n\
; 11   :            4750 ... 12200 bits/s speech codec for\n\
; 12   :          Adaptive Multi-Rate speech traffic channels\n\
; 13   : \n\
; 14   :      Bit-Exact C Simulation Code - %s\n\
; 15   : \n\
; 16   :      R98:   Version 7.6.0  \n\
; 17   :      R99:   Version 3.3.0  \n\
; 18   :      REL-4: Version 4.1.0   December 12, 2001\n\
; 19   :      REL-5: Version 5.1.0   March 26, 2003\n\
; 20   : **************************************************************\n\n",
; 21   :             mes);

  0001e	8b f4		 mov	 esi, esp
  00020	8b 45 08	 mov	 eax, DWORD PTR _mes$[ebp]
  00023	50		 push	 eax
  00024	68 00 00 00 00	 push	 OFFSET ??_C@_0BNL@DMNKNGGB@?6?$CK?$CK?$CK?$CK?$CK?$CK?$CK?$CK?$CK?$CK?$CK?$CK?$CK?$CK?$CK?$CK?$CK?$CK?$CK?$CK?$CK?$CK?$CK?$CK?$CK?$CK?$CK?$CK?$CK?$CK?$CK@
  00029	8b fc		 mov	 edi, esp
  0002b	ff 15 00 00 00
	00		 call	 DWORD PTR __imp____iob_func
  00031	3b fc		 cmp	 edi, esp
  00033	e8 00 00 00 00	 call	 __RTC_CheckEsp
  00038	b9 20 00 00 00	 mov	 ecx, 32			; 00000020H
  0003d	d1 e1		 shl	 ecx, 1
  0003f	03 c1		 add	 eax, ecx
  00041	50		 push	 eax
  00042	ff 15 00 00 00
	00		 call	 DWORD PTR __imp__fprintf
  00048	83 c4 0c	 add	 esp, 12			; 0000000cH
  0004b	3b f4		 cmp	 esi, esp
  0004d	e8 00 00 00 00	 call	 __RTC_CheckEsp

; 22   : 
; 23   : }

  00052	5f		 pop	 edi
  00053	5e		 pop	 esi
  00054	5b		 pop	 ebx
  00055	81 c4 c0 00 00
	00		 add	 esp, 192		; 000000c0H
  0005b	3b ec		 cmp	 ebp, esp
  0005d	e8 00 00 00 00	 call	 __RTC_CheckEsp
  00062	8b e5		 mov	 esp, ebp
  00064	5d		 pop	 ebp
  00065	c3		 ret	 0
_proc_head ENDP
_TEXT	ENDS
END
