; Listing generated by Microsoft (R) Optimizing Compiler Version 18.00.40629.0 

	TITLE	E:\mywork\client\PC2.0TRUNK\PC2.0\third_party\libAMRPlayer\AMR\q_plsf_3.c
	.686P
	.XMM
	include listing.inc
	.model	flat

INCLUDELIB MSVCRTD
INCLUDELIB OLDNAMES

PUBLIC	_q_plsf_3_id
_DATA	SEGMENT
_past_rq_init DW 0fefeH
	DW	0fec2H
	DW	0fe49H
	DW	0fd86H
	DW	0fd70H
	DW	0fcfbH
	DW	0fd39H
	DW	0fe0aH
	DW	0fef4H
	DW	0ff3fH
	DW	0fffeH
	DW	07dH
	DW	07aH
	DW	0ffd9H
	DW	0fff7H
	DW	069H
	DW	081H
	DW	011bH
	DW	0174H
	DW	023fH
	DW	0feebH
	DW	0febcH
	DW	0ff3bH
	DW	0fe19H
	DW	0fe43H
	DW	0fe96H
	DW	0fedcH
	DW	0ffe5H
	DW	0b1H
	DW	021fH
	DW	0156H
	DW	0205H
	DW	0204H
	DW	082H
	DW	01bH
	DW	0ff98H
	DW	0ff88H
	DW	0ff74H
	DW	0ffb6H
	DW	0ffc8H
	DW	0fdccH
	DW	0fc51H
	DW	0fa10H
	DW	0fc3bH
	DW	0fcd2H
	DW	0fdf2H
	DW	0febeH
	DW	0fffeH
	DW	09fH
	DW	0291H
	DW	0fec8H
	DW	0fee4H
	DW	0fe7eH
	DW	0fdabH
	DW	0fe13H
	DW	0fdf2H
	DW	0fe5eH
	DW	0ff1bH
	DW	069H
	DW	01c1H
	DW	0fdd3H
	DW	0fc9aH
	DW	0fbcdH
	DW	0fc69H
	DW	0fc4aH
	DW	0fd10H
	DW	0fd3bH
	DW	0fec4H
	DW	03eH
	DW	01e6H
	DW	0fec6H
	DW	0ff41H
	DW	0ff35H
	DW	0feb6H
	DW	0ff60H
	DW	0ff99H
	DW	0ffcdH
	DW	083H
	DW	0152H
	DW	0203H
_mean_lsf DW	060aH
	DW	08e0H
	DW	0ec2H
	DW	01570H
	DW	01b3cH
	DW	020beH
	DW	0273fH
	DW	02bddH
	DW	031deH
	DW	03592H
_pred_fac DW	02554H
	DW	02a11H
	DW	0311bH
	DW	033ecH
	DW	0382dH
	DW	02d83H
	DW	0295cH
	DW	02627H
	DW	02191H
	DW	01954H
_dico1_lsf DW	06H
	DW	052H
	DW	0ff7dH
	DW	09aH
	DW	0ffc8H
	DW	0fd21H
	DW	0b7H
	DW	0ffbfH
	DW	0fef7H
	DW	09H
	DW	0ff2eH
	DW	0fe97H
	DW	071H
	DW	02ceH
	DW	0719H
	DW	03f2H
	DW	04beH
	DW	0625H
	DW	0359H
	DW	0535H
	DW	08e4H
	DW	033bH
	DW	0620H
	DW	078dH
	DW	02cdH
	DW	07c5H
	DW	089eH
	DW	0346H
	DW	0494H
	DW	071fH
	DW	02d1H
	DW	03e8H
	DW	086aH
	DW	011eH
	DW	01dcH
	DW	05e5H
	DW	0ff09H
	DW	0fdedH
	DW	0e6H
	DW	093H
	DW	0ffaeH
	DW	0239H
	DW	01aH
	DW	0ff4fH
	DW	0fc50H
	DW	0ffe5H
	DW	0feefH
	DW	02b4H
	DW	0ff5cH
	DW	0fef8H
	DW	0ff49H
	DW	0e0H
	DW	0316H
	DW	040fH
	DW	0383H
	DW	03b2H
	DW	0259H
	DW	01e5H
	DW	0303H
	DW	047eH
	DW	020cH
	DW	02a5H
	DW	0387H
	DW	0ff74H
	DW	0177H
	DW	030aH
	DW	019aH
	DW	02a4H
	DW	01adH
	DW	012dH
	DW	0212H
	DW	03f1H
	DW	02cfH
	DW	0286H
	DW	026H
	DW	0e2H
	DW	016fH
	DW	028H
	DW	091H
	DW	0ffd3H
	DW	0fe07H
	DW	0122H
	DW	079H
	DW	0ff87H
	DW	012eH
	DW	07fH
	DW	0a6H
	DW	0ff84H
	DW	0fe81H
	DW	0fc44H
	DW	0fe9aH
	DW	0fe39H
	DW	0fc2fH
	DW	02cbH
	DW	036eH
	DW	037eH
	DW	03d2H
	DW	039bH
	DW	0d3H
	DW	01ddH
	DW	0110H
	DW	040H
	DW	0bcH
	DW	0ffb2H
	DW	011H
	DW	0ff71H
	DW	0ffbfH
	DW	026H
	DW	0283H
	DW	024aH
	DW	026dH
	DW	0ff7aH
	DW	0fe56H
	DW	0fd75H
	DW	015bH
	DW	0221H
	DW	0b04H
	DW	04a4H
	DW	0aa6H
	DW	098aH
	DW	08eH
	DW	0ffb0H
	DW	06c7H
	DW	011bH
	DW	082H
	DW	01cdH
	DW	0fefaH
	DW	0fe71H
	DW	0fb87H
	DW	0fe65H
	DW	09bH
	DW	01aeH
	DW	0149H
	DW	0177H
	DW	030bH
	DW	035H
	DW	0ff1eH
	DW	0ff75H
	DW	0ff7fH
	DW	0ff14H
	DW	0692H
	DW	011dH
	DW	02e8H
	DW	052fH
	DW	02e2H
	DW	02b9H
	DW	0680H
	DW	0138H
	DW	0199H
	DW	010aH
	DW	0145H
	DW	02d0H
	DW	087H
	DW	01H
	DW	0ddH
	DW	01c5H
	DW	08H
	DW	0cbH
	DW	091H
	DW	012bH
	DW	0280H
	DW	02f8H
	DW	01dH
	DW	01d4H
	DW	027eH
	DW	067H
	DW	01adH
	DW	017bH
	DW	01a4H
	DW	03baH
	DW	03a4H
	DW	052eH
	DW	04baH
	DW	04eaH
	DW	02c0H
	DW	03f4H
	DW	0480H
	DW	0ff5aH
	DW	0fe44H
	DW	0fef6H
	DW	0fec4H
	DW	0ff7eH
	DW	0fe88H
	DW	0bfH
	DW	047fH
	DW	0770H
	DW	0ff10H
	DW	0fde1H
	DW	0fb14H
	DW	0ff90H
	DW	010cH
	DW	04b7H
	DW	046H
	DW	0426H
	DW	062fH
	DW	0116H
	DW	0550H
	DW	0626H
	DW	0fefeH
	DW	0fef0H
	DW	0fd00H
	DW	013H
	DW	0233H
	DW	08c0H
	DW	0fffdH
	DW	0fef7H
	DW	087H
	DW	0fed9H
	DW	0fdb1H
	DW	0fe7cH
	DW	08cH
	DW	0162H
	DW	0ff32H
	DW	0fefcH
	DW	0fe08H
	DW	0fce5H
	DW	0fe4fH
	DW	0fd32H
	DW	0fad9H
	DW	06dH
	DW	014bH
	DW	03c2H
	DW	0fe53H
	DW	0ffa9H
	DW	028cH
	DW	0fed8H
	DW	01aaH
	DW	03fbH
	DW	0ff11H
	DW	0307H
	DW	0353H
	DW	01e9H
	DW	0536H
	DW	0431H
	DW	0feb2H
	DW	0feb4H
	DW	019H
	DW	021fH
	DW	04b6H
	DW	070fH
	DW	0146H
	DW	03dH
	DW	02d7H
	DW	0242H
	DW	0351H
	DW	057dH
	DW	0ff30H
	DW	0feebH
	DW	0149H
	DW	0ff68H
	DW	040H
	DW	029dH
	DW	0fe4eH
	DW	0fd5aH
	DW	0fd29H
	DW	0fe3aH
	DW	0ffb9H
	DW	0fbH
	DW	025dH
	DW	01e0H
	DW	0feH
	DW	0fe1eH
	DW	0bH
	DW	03e4H
	DW	0fedfH
	DW	018bH
	DW	01e6H
	DW	02d2H
	DW	0419H
	DW	05a0H
	DW	0ffe2H
	DW	0fec4H
	DW	0fceeH
	DW	0ff96H
	DW	0ff8dH
	DW	0fd95H
	DW	035dH
	DW	05c2H
	DW	0584H
	DW	041fH
	DW	0556H
	DW	04a0H
	DW	032cH
	DW	04d5H
	DW	039dH
	DW	02aH
	DW	0ff05H
	DW	0fdc0H
	DW	0156H
	DW	08dH
	DW	0fe3aH
	DW	0ff58H
	DW	0ffb0H
	DW	054fH
	DW	0feaaH
	DW	0fd70H
	DW	0f91dH
	DW	064H
	DW	0335H
	DW	02d5H
	DW	03deH
	DW	02ebH
	DW	0320H
	DW	014cH
	DW	01b8H
	DW	0238H
	DW	0297H
	DW	017bH
	DW	0354H
	DW	070H
	DW	0a5H
	DW	0fe8fH
	DW	0255H
	DW	038eH
	DW	011aH
	DW	0fff8H
	DW	0342H
	DW	0501H
	DW	0fea0H
	DW	023cH
	DW	02b7H
	DW	01ceH
	DW	08c6H
	DW	070eH
	DW	0159H
	DW	0beH
	DW	055eH
	DW	01a0H
	DW	0393H
	DW	0876H
	DW	0a8H
	DW	0ffaeH
	DW	0118H
	DW	0fdfcH
	DW	0fe42H
	DW	0348H
	DW	02fH
	DW	0215H
	DW	02cH
	DW	0fe96H
	DW	0fd39H
	DW	0fb89H
	DW	016H
	DW	0c1H
	DW	05c0H
	DW	0ffabH
	DW	0e9H
	DW	0715H
	DW	0ffc2H
	DW	0243H
	DW	05e0H
	DW	0226H
	DW	03b0H
	DW	06d5H
	DW	02d3H
	DW	028aH
	DW	047cH
	DW	03ccH
	DW	0374H
	DW	0573H
	DW	0fe57H
	DW	0283H
	DW	00H
	DW	03e8H
	DW	03b8H
	DW	044aH
	DW	0f9H
	DW	05a6H
	DW	02a0H
	DW	0feb2H
	DW	0ffa9H
	DW	087cH
	DW	0fdd6H
	DW	075aH
	DW	0a70H
	DW	08cH
	DW	0722H
	DW	073dH
	DW	0398H
	DW	06d5H
	DW	0a1eH
	DW	0434H
	DW	078dH
	DW	07f6H
	DW	0ff77H
	DW	0fe45H
	DW	0f9edH
	DW	04f5H
	DW	0496H
	DW	01d4H
	DW	0fe13H
	DW	0ff86H
	DW	05f1H
	DW	0fe3dH
	DW	0409H
	DW	04beH
	DW	01e2H
	DW	069fH
	DW	045eH
	DW	032fH
	DW	0289H
	DW	0180H
	DW	0fe42H
	DW	0fd4cH
	DW	06bH
	DW	0fec1H
	DW	0fda3H
	DW	0ff8aH
	DW	0ff31H
	DW	0fe07H
	DW	020dH
	DW	0fe2cH
	DW	0fff4H
	DW	0ab0H
	DW	04bH
	DW	078eH
	DW	0519H
	DW	0370H
	DW	0936H
	DW	08dbH
	DW	0505H
	DW	0627H
	DW	07d4H
	DW	0ffd0H
	DW	0fed0H
	DW	0fb5eH
	DW	0fe4dH
	DW	0fe33H
	DW	0ff05H
	DW	0fe92H
	DW	0fe6cH
	DW	0fdddH
	DW	0fedfH
	DW	0fda3H
	DW	0fdabH
	DW	0fde6H
	DW	0fcd6H
	DW	0ff5bH
	DW	0ff88H
	DW	03H
	DW	0164H
	DW	027fH
	DW	04d9H
	DW	05deH
	DW	060H
	DW	0b1H
	DW	02eeH
	DW	0fe4dH
	DW	0fdb7H
	DW	0fb6aH
	DW	0fe9cH
	DW	06dH
	DW	0ffb1H
	DW	0fe1bH
	DW	0120H
	DW	07d5H
	DW	09H
	DW	045cH
	DW	02dbH
	DW	0370H
	DW	0856H
	DW	03b2H
	DW	0fef7H
	DW	0631H
	DW	0429H
	DW	0485H
	DW	04baH
	DW	034bH
	DW	0fe0eH
	DW	0fd64H
	DW	01afH
	DW	0176H
	DW	0141H
	DW	0ff1bH
	DW	05a0H
	DW	0835H
	DW	0565H
	DW	01c1H
	DW	01cdH
	DW	0483H
	DW	0ff97H
	DW	027H
	DW	0fe80H
	DW	0fef9H
	DW	016fH
	DW	0b6H
	DW	0fe8dH
	DW	0fd6cH
	DW	0305H
	DW	0ff44H
	DW	047fH
	DW	03cbH
	DW	0535H
	DW	0660H
	DW	059bH
	DW	0306H
	DW	04f3H
	DW	04c5H
	DW	0fe1eH
	DW	0fcc0H
	DW	0fa2fH
	DW	0ff13H
	DW	0ff2eH
	DW	035cH
	DW	037aH
	DW	064fH
	DW	0428H
	DW	01d8H
	DW	0426H
	DW	04a8H
	DW	0b9H
	DW	0435H
	DW	03ddH
	DW	0fdc8H
	DW	0fc20H
	DW	0f958H
	DW	0fe3fH
	DW	0fc7aH
	DW	0f805H
	DW	0ff72H
	DW	0fe87H
	DW	0fe36H
	DW	0ff2eH
	DW	0fdd6H
	DW	0fbfbH
	DW	0fff5H
	DW	046dH
	DW	08d9H
	DW	0feb7H
	DW	0fd5dH
	DW	0fc83H
	DW	0ff06H
	DW	0291H
	DW	04a3H
	DW	0207H
	DW	05e6H
	DW	06f3H
	DW	0208H
	DW	021bH
	DW	057bH
	DW	020fH
	DW	058dH
	DW	0516H
	DW	0fdcdH
	DW	0fc99H
	DW	0fb20H
	DW	0ff6dH
	DW	0fe31H
	DW	036fH
	DW	0ffb4H
	DW	091eH
	DW	0b18H
	DW	0233H
	DW	0a0dH
	DW	0951H
	DW	0278H
	DW	0786H
	DW	0b68H
	DW	02cfH
	DW	07e7H
	DW	0730H
	DW	0fddfH
	DW	0fd2dH
	DW	0454H
	DW	081H
	DW	0ff83H
	DW	0374H
	DW	0589H
	DW	0660H
	DW	039dH
	DW	0ffa2H
	DW	061eH
	DW	06d7H
	DW	0feabH
	DW	05fdH
	DW	060fH
	DW	024fH
	DW	018bH
	DW	0feeeH
	DW	0ffb4H
	DW	03d5H
	DW	0b0fH
	DW	099H
	DW	0ba9H
	DW	0734H
	DW	0408H
	DW	0a05H
	DW	0abdH
	DW	05e4H
	DW	0b10H
	DW	0757H
	DW	0317H
	DW	04afH
	DW	021aH
	DW	0ff42H
	DW	0fe3bH
	DW	05d1H
	DW	0feeaH
	DW	0fddcH
	DW	0486H
	DW	0ff0bH
	DW	0795H
	DW	07fcH
	DW	0400H
	DW	0618H
	DW	0672H
	DW	0200H
	DW	0fdH
	DW	01d2H
	DW	0ffc2H
	DW	0febdH
	DW	047fH
	DW	0fe27H
	DW	0fe88H
	DW	01fbH
	DW	0fe4fH
	DW	0564H
	DW	0872H
	DW	0383H
	DW	0797H
	DW	05a5H
	DW	086H
	DW	02c0H
	DW	01b8H
	DW	01ccH
	DW	020dH
	DW	0ffe4H
	DW	0fe3eH
	DW	0117H
	DW	053aH
	DW	00H
	DW	03cbH
	DW	0fcH
	DW	0fe43H
	DW	0fd8dH
	DW	0fc21H
	DW	0fea4H
	DW	0fda6H
	DW	0fa70H
	DW	018eH
	DW	02c8H
	DW	0678H
	DW	0ff95H
	DW	013aH
	DW	0ff4eH
	DW	05dH
	DW	08b2H
	DW	08beH
	DW	0206H
	DW	0351H
	DW	0290H
	DW	0fe32H
	DW	0fd39H
	DW	0fe41H
	DW	0aeH
	DW	0ffdeH
	DW	04a7H
	DW	0ff89H
	DW	02aH
	DW	03edH
	DW	0fe8cH
	DW	0112H
	DW	02f6H
	DW	040cH
	DW	0930H
	DW	072eH
	DW	02a3H
	DW	06bcH
	DW	05daH
	DW	01aeH
	DW	0506H
	DW	0855H
	DW	0ff7fH
	DW	0fe49H
	DW	00H
	DW	0fe8bH
	DW	0320H
	DW	0860H
	DW	06H
	DW	0633H
	DW	09aeH
	DW	01deH
	DW	0254H
	DW	0850H
	DW	0fe54H
	DW	0fd20H
	DW	05e1H
	DW	0181H
	DW	0b2H
	DW	03d4H
	DW	08bH
	DW	01c1H
	DW	04c9H
	DW	0fdf2H
	DW	0fcb6H
	DW	0fc2aH
	DW	091H
	DW	0612H
	DW	04daH
	DW	026fH
	DW	05a8H
	DW	0290H
	DW	015dH
	DW	03f8H
	DW	05caH
	DW	01fH
	DW	0fee8H
	DW	019fH
	DW	0fec4H
	DW	02d4H
	DW	0669H
	DW	0168H
	DW	0422H
	DW	022cH
	DW	0fe4cH
	DW	0fe9aH
	DW	04b1H
	DW	0fe9dH
	DW	0463H
	DW	0793H
	DW	0191H
	DW	0630H
	DW	08c8H
	DW	0fdf1H
	DW	0fc0cH
	DW	0163H
	DW	0e9H
	DW	0eeH
	DW	08b9H
	DW	0fddaH
	DW	0fc7fH
	DW	0fd81H
	DW	0fe93H
	DW	0fe0bH
	DW	07a5H
	DW	0185H
	DW	0744H
	DW	0655H
	DW	0a2H
	DW	046cH
	DW	04f0H
	DW	0ff13H
	DW	0496H
	DW	056eH
	DW	0fd80H
	DW	0fe65H
	DW	074H
	DW	0ff1cH
	DW	069eH
	DW	08faH
	DW	0667H
	DW	088aH
	DW	08dbH
	DW	0232H
	DW	04f9H
	DW	0a62H
	DW	0143H
	DW	0152H
	DW	06eeH
	DW	0242H
	DW	0453H
	DW	0354H
	DW	016H
	DW	0252H
	DW	03a6H
	DW	0ff71H
	DW	02ceH
	DW	01beH
_dico2_lsf DW	032H
	DW	047H
	DW	0fff7H
	DW	0feaeH
	DW	0fd46H
	DW	0fa81H
	DW	066H
	DW	0ff76H
	DW	0fcccH
	DW	0fecaH
	DW	0fe2bH
	DW	0fb85H
	DW	019eH
	DW	043H
	DW	0fef5H
	DW	0424H
	DW	032eH
	DW	05a1H
	DW	060cH
	DW	0550H
	DW	04f8H
	DW	06daH
	DW	0767H
	DW	067dH
	DW	07e3H
	DW	0855H
	DW	071cH
	DW	0710H
	DW	090eH
	DW	0735H
	DW	0284H
	DW	0ffa3H
	DW	01c6H
	DW	035aH
	DW	0149H
	DW	0ff78H
	DW	01e9H
	DW	0fefeH
	DW	0ff80H
	DW	0ff3aH
	DW	0fd17H
	DW	0ffd7H
	DW	0ffccH
	DW	0fef7H
	DW	0fc27H
	DW	015aH
	DW	089H
	DW	01dfH
	DW	0f933H
	DW	0fd14H
	DW	0fd54H
	DW	0fb75H
	DW	0f943H
	DW	0fe91H
	DW	0fc81H
	DW	0fb87H
	DW	0fcf0H
	DW	0fe18H
	DW	0fc4eH
	DW	0fc38H
	DW	0ffabH
	DW	0fe7aH
	DW	0fd2bH
	DW	0d7H
	DW	0feacH
	DW	0ff55H
	DW	03fcH
	DW	0394H
	DW	07b1H
	DW	0234H
	DW	0b3H
	DW	02eaH
	DW	0296H
	DW	03d1H
	DW	06c6H
	DW	0377H
	DW	026eH
	DW	0392H
	DW	03abH
	DW	0358H
	DW	048dH
	DW	0135H
	DW	02b0H
	DW	0323H
	DW	0395H
	DW	0a1H
	DW	023aH
	DW	076H
	DW	0ffecH
	DW	0fee5H
	DW	0fcd0H
	DW	0ffd6H
	DW	0ccH
	DW	0fb34H
	DW	0febbH
	DW	0fe32H
	DW	0fc3dH
	DW	0ff36H
	DW	0ff71H
	DW	0fc24H
	DW	0fe1cH
	DW	0fe97H
	DW	0fd42H
	DW	0fc2eH
	DW	0fe23H
	DW	0fed2H
	DW	0fceaH
	DW	0fb5cH
	DW	0ff9cH
	DW	0fceeH
	DW	0fbc0H
	DW	0fbe2H
	DW	0fc4dH
	DW	0f96cH
	DW	0ff36H
	DW	0fcb5H
	DW	0fcf2H
	DW	0fbf1H
	DW	0fa9eH
	DW	0fc7bH
	DW	0fd90H
	DW	0ff92H
	DW	0ffabH
	DW	0164H
	DW	0d5H
	DW	0fff6H
	DW	0fe13H
	DW	016cH
	DW	0306H
	DW	01a9H
	DW	0336H
	DW	01dfH
	DW	0ffadH
	DW	022dH
	DW	0208H
	DW	0fc20H
	DW	0f9e8H
	DW	0fdc4H
	DW	0fda5H
	DW	0fd1bH
	DW	0ffe6H
	DW	0fe0aH
	DW	0fd82H
	DW	0fc79H
	DW	0d1H
	DW	0132H
	DW	093H
	DW	0fec4H
	DW	0fdafH
	DW	0fdacH
	DW	0ffabH
	DW	0ff2dH
	DW	0ff1fH
	DW	0fc6aH
	DW	0fdefH
	DW	075H
	DW	0e9H
	DW	0fe49H
	DW	0fd1eH
	DW	044dH
	DW	02efH
	DW	0279H
	DW	05b1H
	DW	06b4H
	DW	05e7H
	DW	06e5H
	DW	05b1H
	DW	038eH
	DW	0462H
	DW	0484H
	DW	0351H
	DW	054aH
	DW	0364H
	DW	01d6H
	DW	0fc99H
	DW	0fb82H
	DW	0f8fcH
	DW	0fc99H
	DW	0fca3H
	DW	0fc20H
	DW	0ff8aH
	DW	09bH
	DW	0d4H
	DW	0fbe5H
	DW	0fcafH
	DW	0fda2H
	DW	0fba3H
	DW	0f8c7H
	DW	0f542H
	DW	0fc05H
	DW	0fa6dH
	DW	0f8b3H
	DW	0172H
	DW	0ff48H
	DW	0fe62H
	DW	03bfH
	DW	01edH
	DW	068H
	DW	03beH
	DW	040fH
	DW	021fH
	DW	09aH
	DW	028dH
	DW	0c9H
	DW	04e1H
	DW	01fbH
	DW	096H
	DW	0297H
	DW	01f7H
	DW	0e6H
	DW	026fH
	DW	0309H
	DW	02a3H
	DW	0293H
	DW	058H
	DW	0ff92H
	DW	034bH
	DW	0f4H
	DW	0e0H
	DW	017eH
	DW	021dH
	DW	012eH
	DW	02d4H
	DW	01b1H
	DW	029aH
	DW	048eH
	DW	02deH
	DW	0155H
	DW	0ff76H
	DW	014H
	DW	0fe73H
	DW	0fb61H
	DW	0fe58H
	DW	0ffd2H
	DW	0febfH
	DW	0fea0H
	DW	0ff84H
	DW	0535H
	DW	03fdH
	DW	0438H
	DW	0106H
	DW	016eH
	DW	02d3H
	DW	039aH
	DW	011bH
	DW	0fdd9H
	DW	01fH
	DW	0fd84H
	DW	0fd9dH
	DW	0fd4fH
	DW	0fd47H
	DW	0fe61H
	DW	0fc48H
	DW	0fcf5H
	DW	0ff37H
	DW	0facfH
	DW	0fdaaH
	DW	0fe99H
	DW	0fc47H
	DW	0fafbH
	DW	0a6H
	DW	01edH
	DW	0131H
	DW	0ddH
	DW	034eH
	DW	02bfH
	DW	0262H
	DW	0348H
	DW	03a8H
	DW	0306H
	DW	0fd2dH
	DW	0fad4H
	DW	0fb13H
	DW	0fe9bH
	DW	0fbffH
	DW	0fa94H
	DW	0fbb8H
	DW	0faa0H
	DW	0fe93H
	DW	0fa78H
	DW	0f8a7H
	DW	0fda0H
	DW	0f8faH
	DW	0f941H
	DW	0fd5eH
	DW	0fddfH
	DW	0fb6bH
	DW	0fd41H
	DW	02a6H
	DW	0312H
	DW	094H
	DW	0ff85H
	DW	02b8H
	DW	0508H
	DW	0284H
	DW	015eH
	DW	0fff6H
	DW	019eH
	DW	0266H
	DW	0fH
	DW	089H
	DW	0158H
	DW	0ff2dH
	DW	0fcd2H
	DW	0fa18H
	DW	0fccdH
	DW	0fe79H
	DW	0fc5eH
	DW	0fdb4H
	DW	02fH
	DW	0fdb1H
	DW	0fc7eH
	DW	0fc73H
	DW	0fbb7H
	DW	0ff5dH
	DW	0fb08H
	DW	0fb71H
	DW	0ff63H
	DW	0fa48H
	DW	0fa0bH
	DW	0fe7bH
	DW	0fb06H
	DW	0fb5cH
	DW	0fd90H
	DW	029fH
	DW	0d5H
	DW	01c6H
	DW	07cH
	DW	0feeeH
	DW	0fdf3H
	DW	0fd27H
	DW	0fe10H
	DW	0ff68H
	DW	0fac0H
	DW	07aH
	DW	087H
	DW	0f4a7H
	DW	0fdb3H
	DW	0fe76H
	DW	0f940H
	DW	01b9H
	DW	0ffceH
	DW	05c4H
	DW	0388H
	DW	0313H
	DW	013cH
	DW	0ecH
	DW	0fe48H
	DW	0fea5H
	DW	0d9H
	DW	019dH
	DW	0fc71H
	DW	0fc6bH
	DW	079H
	DW	0fe39H
	DW	0fc5cH
	DW	0caH
	DW	0ffa4H
	DW	0fe2fH
	DW	0fe89H
	DW	01e8H
	DW	0186H
	DW	01daH
	DW	036cH
	DW	02d9H
	DW	013cH
	DW	0f8e9H
	DW	0fae0H
	DW	0fd63H
	DW	057H
	DW	03c2H
	DW	01b0H
	DW	0233H
	DW	0ff07H
	DW	0fbdeH
	DW	0faH
	DW	011dH
	DW	0451H
	DW	0475H
	DW	01abH
	DW	02b8H
	DW	0fbf2H
	DW	0f980H
	DW	0f9d2H
	DW	0fc4cH
	DW	015aH
	DW	0a0H
	DW	0fecbH
	DW	0fef0H
	DW	0fca6H
	DW	029eH
	DW	0270H
	DW	04e2H
	DW	0fc50H
	DW	0fe68H
	DW	0fd66H
	DW	0fda2H
	DW	0fec0H
	DW	0fe80H
	DW	0fe14H
	DW	0e6H
	DW	041H
	DW	014eH
	DW	0ffceH
	DW	0fff0H
	DW	0fff0H
	DW	0fd4eH
	DW	0fa8bH
	DW	06ffH
	DW	06b4H
	DW	0577H
	DW	09aeH
	DW	080fH
	DW	057cH
	DW	04ddH
	DW	05bfH
	DW	0592H
	DW	0fe82H
	DW	0fbf3H
	DW	0fffeH
	DW	0adH
	DW	0fe72H
	DW	0479H
	DW	05d3H
	DW	07e8H
	DW	0709H
	DW	0304H
	DW	04faH
	DW	05e2H
	DW	0595H
	DW	06c7H
	DW	07d1H
	DW	0437H
	DW	04c2H
	DW	04f9H
	DW	0fb7eH
	DW	0f8c5H
	DW	0facfH
	DW	0fcd8H
	DW	0fb93H
	DW	0fbb8H
	DW	0fe3dH
	DW	0fbf7H
	DW	0f946H
	DW	041H
	DW	0242H
	DW	0ffacH
	DW	0fa3cH
	DW	0f67eH
	DW	0f90eH
	DW	0fd03H
	DW	0faaaH
	DW	0fe12H
	DW	0ff26H
	DW	0fdaeH
	DW	0fc5dH
	DW	0151H
	DW	0ff14H
	DW	0232H
	DW	0935H
	DW	0a66H
	DW	0792H
	DW	05d1H
	DW	04fcH
	DW	036aH
	DW	0bdH
	DW	0166H
	DW	0176H
	DW	0fa11H
	DW	0f717H
	DW	0f6d6H
	DW	0fc39H
	DW	0fb09H
	DW	0f7d1H
	DW	0fd8cH
	DW	0fb5cH
	DW	0f9faH
	DW	067dH
	DW	0413H
	DW	0222H
	DW	0235H
	DW	0425H
	DW	02dcH
	DW	0ffc0H
	DW	0fcbcH
	DW	0fe4eH
	DW	0fe4cH
	DW	0ffa0H
	DW	0cbH
	DW	0436H
	DW	04c0H
	DW	0664H
	DW	038bH
	DW	05feH
	DW	03daH
	DW	0146H
	DW	03c5H
	DW	034dH
	DW	08eH
	DW	0ffacH
	DW	0c5H
	DW	01d6H
	DW	094bH
	DW	0622H
	DW	046dH
	DW	01d6H
	DW	04beH
	DW	018bH
	DW	0560H
	DW	04b0H
	DW	0465H
	DW	0412H
	DW	015cH
	DW	0fde1H
	DW	0fb2eH
	DW	0fe88H
	DW	0ff29H
	DW	0ff4bH
	DW	01e1H
	DW	0f865H
	DW	0f9abH
	DW	0ff2eH
	DW	0fd12H
	DW	0fb5fH
	DW	0186H
	DW	01dH
	DW	0fe71H
	DW	01bH
	DW	0334H
	DW	04d4H
	DW	02f3H
	DW	02b7H
	DW	03d3H
	DW	0199H
	DW	0ff52H
	DW	04adH
	DW	040bH
	DW	0390H
	DW	054cH
	DW	0736H
	DW	0fc20H
	DW	0fa63H
	DW	01e4H
	DW	0fa33H
	DW	0f95cH
	DW	0d0H
	DW	0fe64H
	DW	04b4H
	DW	0598H
	DW	0fef1H
	DW	0380H
	DW	0478H
	DW	0fe60H
	DW	06f1H
	DW	059aH
	DW	0f960H
	DW	0f5acH
	DW	0ff34H
	DW	0f903H
	DW	0f9f1H
	DW	0409H
	DW	0f988H
	DW	0f9e9H
	DW	0517H
	DW	0fb1bH
	DW	0f9cbH
	DW	0439H
	DW	0fd63H
	DW	0fbb9H
	DW	0ffbeH
	DW	0fd56H
	DW	0140H
	DW	0fea7H
	DW	0293H
	DW	0131H
	DW	042dH
	DW	0faf4H
	DW	0fcdcH
	DW	0ffedH
	DW	0f99dH
	DW	0faf5H
	DW	01dH
	DW	0f96dH
	DW	0fe0fH
	DW	047H
	DW	0fee1H
	DW	0fff9H
	DW	0ff9cH
	DW	0fe12H
	DW	0fc3eH
	DW	0ff13H
	DW	0354H
	DW	0759H
	DW	06ccH
	DW	0fb3fH
	DW	0fa95H
	DW	0e3H
	DW	0fd6cH
	DW	012eH
	DW	0175H
	DW	060H
	DW	043fH
	DW	04e9H
	DW	0fbceH
	DW	0f97bH
	DW	0a0H
	DW	01e5H
	DW	081cH
	DW	0706H
	DW	0fc5aH
	DW	0ff24H
	DW	0228H
	DW	0fdacH
	DW	0fd9cH
	DW	0edH
	DW	0150H
	DW	06b8H
	DW	036fH
	DW	0283H
	DW	0275H
	DW	01b2H
	DW	04f3H
	DW	020aH
	DW	0661H
	DW	0fH
	DW	0f4H
	DW	0fe47H
	DW	05c3H
	DW	02cdH
	DW	0b8H
	DW	071bH
	DW	0636H
	DW	06adH
	DW	03dcH
	DW	0105H
	DW	03a9H
	DW	082dH
	DW	0929H
	DW	05f0H
	DW	085bH
	DW	0742H
	DW	0646H
	DW	0fdbfH
	DW	0fdbdH
	DW	0fb4dH
	DW	0fc44H
	DW	087H
	DW	0fe18H
	DW	0fe30H
	DW	033H
	DW	0feaeH
	DW	0fd8bH
	DW	0fea4H
	DW	0fd2dH
	DW	047aH
	DW	0819H
	DW	05a2H
	DW	0890H
	DW	05baH
	DW	038fH
	DW	0fa5cH
	DW	0f9dcH
	DW	0f71aH
	DW	0578H
	DW	02c6H
	DW	0511H
	DW	0537H
	DW	0279H
	DW	03a0H
	DW	059aH
	DW	0892H
	DW	0a22H
	DW	0976H
	DW	089cH
	DW	0759H
	DW	03d6H
	DW	08c2H
	DW	073eH
	DW	017cH
	DW	0318H
	DW	0479H
	DW	0ffc1H
	DW	0fde5H
	DW	019eH
	DW	0ff04H
	DW	0fc3cH
	DW	0fec6H
	DW	0fb13H
	DW	0fd55H
	DW	0fcf4H
	DW	0fcc1H
	DW	0fdf2H
	DW	0fc13H
	DW	0f97eH
	DW	0fb91H
	DW	0fe58H
	DW	0f9b5H
	DW	0fe3cH
	DW	0fed5H
	DW	04f4H
	DW	0418H
	DW	0282H
	DW	047bH
	DW	0355H
	DW	0358H
	DW	0fd5dH
	DW	0feb0H
	DW	08bH
	DW	08dcH
	DW	053fH
	DW	058aH
	DW	01dH
	DW	0300H
	DW	031dH
	DW	0fb38H
	DW	01a7H
	DW	0234H
	DW	0fadaH
	DW	0fbc6H
	DW	0f5H
	DW	0faeaH
	DW	0fcd4H
	DW	023dH
	DW	0faeeH
	DW	0f9afH
	DW	0286H
	DW	0fc38H
	DW	0342H
	DW	02d3H
	DW	03e1H
	DW	0674H
	DW	07ebH
	DW	0ff41H
	DW	0fccfH
	DW	01b0H
	DW	0296H
	DW	03cH
	DW	0c6H
	DW	0272H
	DW	03e5H
	DW	0532H
	DW	0670H
	DW	07abH
	DW	0509H
	DW	0f9c3H
	DW	0ffa3H
	DW	0ffd3H
	DW	0fbc0H
	DW	025H
	DW	0ffacH
	DW	0675H
	DW	0a2fH
	DW	0921H
	DW	0429H
	DW	07f8H
	DW	0949H
	DW	0473H
	DW	0916H
	DW	0846H
	DW	035bH
	DW	0165H
	DW	05e6H
	DW	0298H
	DW	04cbH
	DW	044bH
	DW	01dfH
	DW	0550H
	DW	0390H
	DW	0769H
	DW	06daH
	DW	07e3H
	DW	0490H
	DW	0775H
	DW	06f8H
	DW	018fH
	DW	022H
	DW	0100H
	DW	0fdafH
	DW	0fed0H
	DW	0fbe3H
	DW	0223H
	DW	069eH
	DW	057fH
	DW	0287H
	DW	0ff9dH
	DW	0feabH
	DW	05d4H
	DW	066fH
	DW	04a6H
	DW	026H
	DW	0fd7cH
	DW	0ff2cH
	DW	018bH
	DW	034eH
	DW	0deH
	DW	0fd40H
	DW	0fd03H
	DW	0fd34H
	DW	0fd2cH
	DW	0f854H
	DW	0f50cH
	DW	0ff6aH
	DW	0123H
	DW	0ffaeH
	DW	04d1H
	DW	05b3H
	DW	03efH
	DW	0ff74H
	DW	0ff65H
	DW	099H
	DW	01b7H
	DW	0129H
	DW	0620H
	DW	0fa07H
	DW	0fe66H
	DW	0fd84H
	DW	0600H
	DW	01c7H
	DW	0ff13H
	DW	0fad0H
	DW	0ff75H
	DW	0fefcH
	DW	0213H
	DW	022aH
	DW	0364H
	DW	010dH
	DW	04f0H
	DW	025eH
	DW	0ff17H
	DW	0373H
	DW	01cfH
	DW	02e6H
	DW	0258H
	DW	0ff88H
	DW	0ffb7H
	DW	01a5H
	DW	0d4H
	DW	0fe49H
	DW	0ffc6H
	DW	0324H
	DW	0fafaH
	DW	0fb27H
	DW	02d8H
	DW	0126H
	DW	0fe16H
	DW	032H
	DW	0fdb1H
	DW	0fc77H
	DW	0fb1aH
	DW	02aH
	DW	0fd51H
	DW	093H
	DW	0ffe7H
	DW	0111H
	DW	0254H
	DW	0fec9H
	DW	04bdH
	DW	0259H
	DW	0fd0eH
	DW	0351H
	DW	0248H
	DW	01adH
	DW	025fH
	DW	024bH
	DW	0fda6H
	DW	0ff5aH
	DW	01cdH
	DW	0fce4H
	DW	0fcc9H
	DW	0309H
	DW	0564H
	DW	038eH
	DW	06dbH
	DW	077H
	DW	0589H
	DW	03ccH
	DW	0ff25H
	DW	0fc90H
	DW	0f9c4H
	DW	0fbe7H
	DW	0fc0eH
	DW	01b6H
	DW	0fd37H
	DW	0fa9dH
	DW	04eH
	DW	00H
	DW	0fe41H
	DW	0fb65H
	DW	0fb90H
	DW	0fad9H
	DW	0f9dbH
	DW	08c8H
	DW	06e7H
	DW	051dH
	DW	03b2H
	DW	062fH
	DW	0598H
	DW	047eH
	DW	01e2H
	DW	01b4H
	DW	0fe2bH
	DW	0fbacH
	DW	026aH
	DW	0fe41H
	DW	0fc3aH
	DW	0440H
	DW	0fb1cH
	DW	0fa15H
	DW	0ff8eH
	DW	0fbb0H
	DW	0f828H
	DW	0fdbdH
	DW	0d2H
	DW	0265H
	DW	01f1H
	DW	0f849H
	DW	0fa63H
	DW	0282H
	DW	0fb0bH
	DW	0fca8H
	DW	03f3H
	DW	0f992H
	DW	0fb5fH
	DW	0427H
	DW	0f9edH
	DW	0fd60H
	DW	04b4H
	DW	0f964H
	DW	0fba6H
	DW	026fH
	DW	0fc2dH
	DW	0fad2H
	DW	0fb03H
	DW	021bH
	DW	0ff6dH
	DW	037eH
	DW	0fab6H
	DW	0fc7fH
	DW	0fe4eH
	DW	0378H
	DW	01dbH
	DW	01acH
	DW	099H
	DW	0fe80H
	DW	0152H
	DW	0fa2cH
	DW	0fe01H
	DW	0167H
	DW	0fc32H
	DW	0fba5H
	DW	0fe2aH
	DW	069H
	DW	0fddaH
	DW	02a5H
	DW	0fc57H
	DW	0fb87H
	DW	036dH
	DW	017cH
	DW	0fefcH
	DW	0d2H
	DW	0695H
	DW	039cH
	DW	04e8H
	DW	06efH
	DW	04a6H
	DW	0447H
	DW	058bH
	DW	0277H
	DW	0215H
	DW	0273H
	DW	012bH
	DW	0fea5H
	DW	0fe65H
	DW	0fdeaH
	DW	0287H
	DW	0fd76H
	DW	01dH
	DW	0fdadH
	DW	0fe86H
	DW	0faa9H
	DW	061bH
	DW	057aH
	DW	0461H
	DW	05b9H
	DW	0441H
	DW	0582H
	DW	0288H
	DW	0f7d0H
	DW	0fbbeH
	DW	0fffaH
	DW	0137H
	DW	0ff3eH
	DW	0fc9bH
	DW	0fd81H
	DW	0fcc1H
	DW	01a0H
	DW	0fb76H
	DW	0fb38H
	DW	0545H
	DW	0fb21H
	DW	0fc53H
	DW	0715H
	DW	0f76fH
	DW	0f83dH
	DW	01c5H
	DW	0fd95H
	DW	0faa9H
	DW	0fc44H
	DW	0f9baH
	DW	0f84cH
	DW	0fa1dH
	DW	0fb69H
	DW	0fbdfH
	DW	0fbb0H
	DW	0fe87H
	DW	0259H
	DW	0c9H
	DW	0754H
	DW	0339H
	DW	0176H
	DW	0fe52H
	DW	0fad5H
	DW	01dH
	DW	0fa8bH
	DW	0fb1fH
	DW	0facdH
	DW	0fc11H
	DW	0fa20H
	DW	03c0H
	DW	0fa87H
	DW	0f827H
	DW	0c5H
	DW	0fa9dH
	DW	0f863H
	DW	0ff14H
	DW	0fbcbH
	DW	07bH
	DW	01a6H
	DW	0267H
	DW	04f5H
	DW	0222H
	DW	0feceH
	DW	05f6H
	DW	0388H
	DW	04aaH
	DW	06fcH
	DW	0499H
	DW	0fd8eH
	DW	0fc8cH
	DW	0fa0aH
	DW	0c7H
	DW	02feH
	DW	05e0H
	DW	0fbd7H
	DW	035eH
	DW	0c5H
	DW	0fbf6H
	DW	0f913H
	DW	0fc89H
	DW	0fce0H
	DW	091H
	DW	0257H
	DW	0fb92H
	DW	0fdf9H
	DW	0272H
	DW	0fb4bH
	DW	0f87aH
	DW	01f4H
	DW	0fc72H
	DW	0fbefH
	DW	0fa8dH
	DW	0fa3cH
	DW	0f9e1H
	DW	0fc37H
	DW	0fdf5H
	DW	034aH
	DW	022H
	DW	0702H
	DW	0286H
	DW	035eH
	DW	0fb49H
	DW	0f8a0H
	DW	0fc16H
	DW	0ffb2H
	DW	0fff7H
	DW	0fd60H
	DW	0414H
	DW	02f7H
	DW	050H
	DW	0fda8H
	DW	0473H
	DW	03fbH
	DW	039H
	DW	07d0H
	DW	058eH
	DW	0fcbfH
	DW	0586H
	DW	0461H
	DW	0fb4eH
	DW	065eH
	DW	04ecH
	DW	0fe33H
	DW	058cH
	DW	04dcH
	DW	0601H
	DW	03cfH
	DW	0fdH
	DW	0fee5H
	DW	0144H
	DW	0fe99H
	DW	0257H
	DW	0ff3dH
	DW	06aH
	DW	024cH
	DW	03eH
	DW	0fdb5H
	DW	0fd0bH
	DW	0285H
	DW	0cdH
	DW	033H
	DW	04b1H
	DW	02f6H
	DW	0fb47H
	DW	02a1H
	DW	0fe7aH
	DW	0fd90H
	DW	062dH
	DW	03adH
	DW	0ff69H
	DW	03ffH
	DW	02dfH
	DW	0b04H
	DW	0515H
	DW	02b2H
	DW	0fed2H
	DW	020cH
	DW	0ff9dH
	DW	0fc7cH
	DW	0f9ccH
	DW	0fb5bH
	DW	043cH
	DW	0fbH
	DW	0eeH
	DW	07deH
	DW	0700H
	DW	03f2H
	DW	04ddH
	DW	0661H
	DW	06cdH
	DW	0fb35H
	DW	0f9fcH
	DW	0fb48H
	DW	0fd93H
	DW	01c8H
	DW	0ff93H
	DW	028H
	DW	0ffbfH
	DW	0314H
	DW	0fcdbH
	DW	0fd45H
	DW	0fabaH
	DW	0fdb9H
	DW	0388H
	DW	0340H
	DW	0fcdfH
	DW	0214H
	DW	0252H
	DW	07b4H
	DW	0580H
	DW	0547H
	DW	0fb67H
	DW	0f8a8H
	DW	0f7beH
	DW	0fcfbH
	DW	0238H
	DW	03b4H
	DW	0fc09H
	DW	0437H
	DW	04ecH
	DW	0fba9H
	DW	01e2H
	DW	0ff7eH
	DW	06f2H
	DW	0414H
	DW	030cH
	DW	0fa2dH
	DW	0f5H
	DW	0390H
	DW	0fec4H
	DW	0fb8bH
	DW	0fc6bH
	DW	0fde8H
	DW	0fa5eH
	DW	0f6d6H
	DW	0fcefH
	DW	0f9f6H
	DW	0f83cH
	DW	0f82dH
	DW	0101H
	DW	038dH
	DW	0f8c7H
	DW	0fd87H
	DW	0fb47H
	DW	0f9feH
	DW	0f882H
	DW	0fbe2H
	DW	0646H
	DW	08bfH
	DW	0628H
	DW	0fdc9H
	DW	0fa24H
	DW	0f9f8H
	DW	0fb01H
	DW	0c3H
	DW	0559H
	DW	0fccfH
	DW	0125H
	DW	04c3H
	DW	0fdf3H
	DW	0276H
	DW	04adH
	DW	0f95eH
	DW	0f687H
	DW	0f8d0H
	DW	0fed1H
	DW	02dbH
	DW	02ebH
	DW	0fb6fH
	DW	0ff05H
	DW	010dH
	DW	0fc4aH
	DW	0ffb5H
	DW	0694H
	DW	0fb62H
	DW	0fe3bH
	DW	03edH
	DW	0f9c1H
	DW	0249H
	DW	017aH
	DW	0f7e5H
	DW	0fdc5H
	DW	0fe55H
	DW	0fdefH
	DW	0fb79H
	DW	0fb6dH
	DW	0fee5H
	DW	0ff33H
	DW	0fdccH
	DW	0fce4H
	DW	04deH
	DW	02cdH
	DW	08e5H
	DW	039fH
	DW	021bH
	DW	0fe3aH
	DW	022fH
	DW	01b8H
	DW	0fd33H
	DW	05b4H
	DW	064fH
	DW	0fbfaH
	DW	041cH
	DW	064aH
	DW	0fb6fH
	DW	0ff76H
	DW	034fH
	DW	0e2H
	DW	027H
	DW	0fd9cH
	DW	0fb1dH
	DW	0ff96H
	DW	0fd27H
	DW	0fd75H
	DW	03c8H
	DW	0516H
	DW	0fd36H
	DW	0fd84H
	DW	06bfH
	DW	0161H
	DW	042dH
	DW	019aH
	DW	0fce2H
	DW	0ff64H
	DW	044bH
	DW	0fdc2H
	DW	0396H
	DW	01beH
	DW	0fae2H
	DW	03f4H
	DW	01d2H
	DW	0580H
	DW	0637H
	DW	02fdH
	DW	0595H
	DW	0564H
	DW	06ddH
	DW	079dH
	DW	07a4H
	DW	094aH
	DW	062aH
	DW	07ffH
	DW	0864H
	DW	0394H
	DW	062H
	DW	0fff9H
	DW	0765H
	DW	058aH
	DW	085dH
	DW	015cH
	DW	057dH
	DW	062bH
	DW	098H
	DW	046eH
	DW	0709H
	DW	0fef5H
	DW	09aH
	DW	0573H
	DW	0fb72H
	DW	01d5H
	DW	041eH
	DW	0fb8aH
	DW	0fe6bH
	DW	0fbcfH
	DW	0fac3H
	DW	0f728H
	DW	0f9d3H
	DW	0fe94H
	DW	0365H
	DW	06aaH
	DW	0fb76H
	DW	0225H
	DW	060eH
	DW	0fb37H
	DW	0f874H
	DW	0f97eH
	DW	0fa33H
	DW	0f847H
	DW	0f7f9H
	DW	0f941H
	DW	0fc76H
	DW	0ff9eH
	DW	0f897H
	DW	0e9H
	DW	05d4H
	DW	037cH
	DW	06cH
	DW	0feb5H
	DW	0f940H
	DW	0fb6eH
	DW	0f95cH
	DW	0fbdcH
	DW	07bcH
	DW	06feH
	DW	0fbd2H
	DW	0f933H
	DW	0f88bH
	DW	0fff5H
	DW	0603H
	DW	0525H
	DW	0f9c0H
	DW	05eH
	DW	01f1H
	DW	01a5H
	DW	01bbH
	DW	0ff3bH
	DW	0f9d6H
	DW	0fea3H
	DW	0fc1eH
	DW	0fda9H
	DW	0fde5H
	DW	0474H
	DW	0fc3bH
	DW	0fa75H
	DW	0ff7fH
	DW	0fac3H
	DW	0afH
	DW	0fe41H
	DW	0fe89H
	DW	051fH
	DW	0807H
	DW	0fe8dH
	DW	0fd76H
	DW	0fecdH
	DW	0fbcfH
	DW	025dH
	DW	016dH
	DW	0f7f7H
	DW	0ff8fH
	DW	01aeH
	DW	028cH
	DW	0392H
	DW	03c7H
	DW	0fc0cH
	DW	0f9ceH
	DW	0f6edH
	DW	05e1H
	DW	04e0H
	DW	022fH
	DW	0106H
	DW	0fe1aH
	DW	0fe6fH
	DW	0f941H
	DW	053eH
	DW	060aH
	DW	032H
	DW	038H
	DW	01b0H
	DW	0feb6H
	DW	077H
	DW	0fda4H
	DW	0fa13H
	DW	0fbc8H
	DW	0fcd6H
	DW	03b2H
	DW	0467H
	DW	041fH
	DW	0fa88H
	DW	0f959H
	DW	0f950H
	DW	0fb0aH
	DW	0fd40H
	DW	0fadbH
	DW	0327H
	DW	071dH
	DW	0477H
	DW	0ac8H
	DW	0646H
	DW	087bH
	DW	0460H
	DW	0199H
	DW	0ff6aH
	DW	0ff6dH
	DW	0194H
	DW	03bfH
	DW	0987H
	DW	0777H
	DW	088dH
	DW	0fc76H
	DW	0ff73H
	DW	0fc9eH
	DW	0fc78H
	DW	0ff72H
	DW	0fe36H
	DW	0fdd3H
	DW	0fd3cH
	DW	0f971H
	DW	0fcc2H
	DW	0fa69H
	DW	0f9d1H
	DW	0f8ceH
	DW	0fabeH
	DW	0fbc2H
	DW	0f9bcH
	DW	0fef0H
	DW	0393H
	DW	0fb54H
	DW	0304H
	DW	0420H
	DW	0fd82H
	DW	0fb2eH
	DW	0f897H
	DW	0fe0cH
	DW	0ffafH
	DW	0fccaH
	DW	0faf7H
	DW	0f9b3H
	DW	0fd21H
	DW	0ff8bH
	DW	0311H
	DW	0a8H
	DW	0fbbeH
	DW	046dH
	DW	039aH
	DW	0fbb8H
	DW	0fd16H
	DW	0568H
	DW	011fH
	DW	0fdddH
	DW	0fbd9H
	DW	0faa0H
	DW	0f767H
	DW	0fb4cH
	DW	0f780H
	DW	0f9deH
	DW	0f923H
	DW	0fa19H
	DW	0f73fH
	DW	0fcfdH
	DW	0f937H
	DW	044bH
	DW	033eH
	DW	0f9ccH
	DW	02d4H
	DW	04dbH
	DW	0f9faH
	DW	02b5H
	DW	0325H
	DW	0f966H
	DW	0ff10H
	DW	0681H
	DW	0f95cH
	DW	0fffcH
	DW	0fd64H
	DW	0865H
	DW	0330H
	DW	0412H
	DW	0fcceH
	DW	0f8cfH
	DW	016H
	DW	0fd04H
	DW	0fe05H
	DW	01c1H
	DW	0fb81H
	DW	0fd97H
	DW	0121H
	DW	0fcb5H
	DW	0f9c4H
	DW	0ff10H
	DW	01f2H
	DW	0ff16H
	DW	0fd6fH
	DW	0fd10H
	DW	01e0H
	DW	068eH
	DW	0fec1H
	DW	0fe1fH
	DW	0c1H
	DW	0fcd5H
	DW	0abH
	DW	0ff89H
	DW	0f7b0H
	DW	0ff36H
	DW	0fcb0H
	DW	06b5H
	DW	0474H
	DW	06a4H
_dico3_lsf DW	043H
	DW	0ffefH
	DW	042H
	DW	0fff4H
	DW	0f966H
	DW	0fdbbH
	DW	0ff98H
	DW	0fef0H
	DW	0fbccH
	DW	0fb5eH
	DW	0f8cbH
	DW	0fe88H
	DW	0fb8cH
	DW	0fc62H
	DW	0fe5cH
	DW	0ffc6H
	DW	0fefdH
	DW	0fd70H
	DW	0fb92H
	DW	0fdd7H
	DW	06fcH
	DW	04cbH
	DW	01c7H
	DW	081H
	DW	01ceH
	DW	01b9H
	DW	0ff10H
	DW	0fdf0H
	DW	0348H
	DW	0202H
	DW	082H
	DW	0ffb5H
	DW	045aH
	DW	026fH
	DW	099H
	DW	0d8H
	DW	042cH
	DW	0234H
	DW	0fffaH
	DW	0feecH
	DW	045fH
	DW	02d7H
	DW	0beH
	DW	0ffbcH
	DW	02c0H
	DW	0132H
	DW	077H
	DW	0fef8H
	DW	0149H
	DW	03dH
	DW	0ff9cH
	DW	09cH
	DW	016cH
	DW	07bH
	DW	0b7H
	DW	0ff30H
	DW	0ff55H
	DW	0ff85H
	DW	0dcH
	DW	0ffbfH
	DW	0feceH
	DW	0ffc2H
	DW	0192H
	DW	011H
	DW	0fd6cH
	DW	0fc56H
	DW	0fef6H
	DW	00H
	DW	0181H
	DW	0ebH
	DW	0114H
	DW	011dH
	DW	0140H
	DW	010cH
	DW	0feb0H
	DW	0ff38H
	DW	0fd2cH
	DW	011H
	DW	0ffacH
	DW	017dH
	DW	0fde0H
	DW	01adH
	DW	01eeH
	DW	0207H
	DW	0ff8bH
	DW	0120H
	DW	0130H
	DW	0149H
	DW	0283H
	DW	09dH
	DW	02bdH
	DW	01fcH
	DW	04b0H
	DW	0271H
	DW	031cH
	DW	0260H
	DW	03e6H
	DW	01a5H
	DW	01ecH
	DW	0278H
	DW	04b4H
	DW	030cH
	DW	01beH
	DW	084H
	DW	04e9H
	DW	034cH
	DW	0223H
	DW	01c1H
	DW	033dH
	DW	0292H
	DW	021dH
	DW	01d6H
	DW	046cH
	DW	04eaH
	DW	0396H
	DW	027fH
	DW	0223H
	DW	033H
	DW	01a7H
	DW	0117H
	DW	09H
	DW	0188H
	DW	053H
	DW	05eH
	DW	021eH
	DW	021fH
	DW	0e5H
	DW	0ff6dH
	DW	0ff3aH
	DW	081H
	DW	0c2H
	DW	0ff47H
	DW	0fca1H
	DW	0fad7H
	DW	0fed2H
	DW	01eH
	DW	0fdabH
	DW	0fd8bH
	DW	0ffedH
	DW	072H
	DW	0fc7cH
	DW	0fbc7H
	DW	01d2H
	DW	0161H
	DW	0fa35H
	DW	0f9dbH
	DW	0fH
	DW	0ff71H
	DW	0f954H
	DW	0f7f5H
	DW	0fd11H
	DW	0c4H
	DW	0f8acH
	DW	0f7edH
	DW	0fd7eH
	DW	0fefeH
	DW	0f6e1H
	DW	0fa42H
	DW	0fe3eH
	DW	0fdccH
	DW	0fdb8H
	DW	0ff46H
	DW	0fc98H
	DW	0fe62H
	DW	0f8f3H
	DW	0fc24H
	DW	0fb9bH
	DW	0fae2H
	DW	0fd2aH
	DW	0fb97H
	DW	01cH
	DW	0a9H
	DW	0fbf1H
	DW	0fca0H
	DW	0fd32H
	DW	0ff0aH
	DW	01e4H
	DW	024H
	DW	0ff17H
	DW	0ffcfH
	DW	0109H
	DW	043H
	DW	0121H
	DW	01d3H
	DW	0b2H
	DW	021fH
	DW	032aH
	DW	021cH
	DW	054H
	DW	011aH
	DW	02a0H
	DW	02bfH
	DW	0fc31H
	DW	0fcf7H
	DW	081H
	DW	011fH
	DW	0fc56H
	DW	0ff1dH
	DW	03bbH
	DW	0253H
	DW	0f9afH
	DW	0fedfH
	DW	0344H
	DW	0289H
	DW	0f8c9H
	DW	0ff29H
	DW	0452H
	DW	02ceH
	DW	0f80eH
	DW	0fbc3H
	DW	028aH
	DW	01b8H
	DW	0f7cbH
	DW	0fdefH
	DW	038bH
	DW	023fH
	DW	0f825H
	DW	0feb0H
	DW	029eH
	DW	0ccH
	DW	0f6abH
	DW	0fd4cH
	DW	0168H
	DW	089H
	DW	0f794H
	DW	0f764H
	DW	0fff7H
	DW	0118H
	DW	0fef6H
	DW	077H
	DW	027H
	DW	0c1H
	DW	04eH
	DW	0ffc5H
	DW	0ff88H
	DW	0e2H
	DW	0fc31H
	DW	0fca6H
	DW	0fcf3H
	DW	0fbb9H
	DW	0fd95H
	DW	0fe63H
	DW	0fe3dH
	DW	0fcb6H
	DW	0fb40H
	DW	0fad7H
	DW	0fcd3H
	DW	0fc8dH
	DW	0faa0H
	DW	0f9b1H
	DW	0fe76H
	DW	0fe54H
	DW	0fd1fH
	DW	0fba7H
	DW	0fddbH
	DW	0fceaH
	DW	0fc90H
	DW	0fc31H
	DW	0fc39H
	DW	0fd7eH
	DW	0fc27H
	DW	0fc8aH
	DW	0fb07H
	DW	0faafH
	DW	0fe27H
	DW	0fcdcH
	DW	0fa87H
	DW	0fa81H
	DW	0a0H
	DW	0fef7H
	DW	0fc69H
	DW	0feedH
	DW	0ff08H
	DW	0ff06H
	DW	0fd32H
	DW	0fe84H
	DW	061H
	DW	0ff99H
	DW	0fe89H
	DW	0ff1bH
	DW	0fe61H
	DW	0ff3fH
	DW	0ff79H
	DW	0fdd5H
	DW	0274H
	DW	0169H
	DW	077H
	DW	0d8H
	DW	0243H
	DW	016cH
	DW	0187H
	DW	0d1H
	DW	027aH
	DW	020aH
	DW	0ff66H
	DW	0ff6cH
	DW	020eH
	DW	0185H
	DW	0aaH
	DW	021H
	DW	069H
	DW	010bH
	DW	040H
	DW	017cH
	DW	0fa21H
	DW	0fc18H
	DW	0ffe2H
	DW	0fe8fH
	DW	0fbd2H
	DW	03aH
	DW	0287H
	DW	0dfH
	DW	0fa10H
	DW	0feddH
	DW	026dH
	DW	0133H
	DW	0fa05H
	DW	09cH
	DW	02faH
	DW	0194H
	DW	0f813H
	DW	08dH
	DW	02deH
	DW	01f3H
	DW	0f8c7H
	DW	0fd76H
	DW	0132H
	DW	0200H
	DW	0ff45H
	DW	0ff98H
	DW	0ffc5H
	DW	01b6H
	DW	086H
	DW	0ff1aH
	DW	09cH
	DW	0ff46H
	DW	0ffc3H
	DW	0fefcH
	DW	0fff0H
	DW	0aH
	DW	0fdc7H
	DW	0fffdH
	DW	0fe5bH
	DW	0fed7H
	DW	0f943H
	DW	0fdf7H
	DW	0fea6H
	DW	0b2H
	DW	0faaeH
	DW	0ffc5H
	DW	0ffd4H
	DW	09dH
	DW	0f79eH
	DW	0fe33H
	DW	0fe2aH
	DW	0fea3H
	DW	0f786H
	DW	0ffffH
	DW	0fe8fH
	DW	0ff87H
	DW	0f9d5H
	DW	0fe8bH
	DW	0fc7cH
	DW	0fc09H
	DW	0fba3H
	DW	0fdb1H
	DW	0fd9bH
	DW	0fcf0H
	DW	0fdcfH
	DW	07aH
	DW	0ffb5H
	DW	0fe3fH
	DW	0fffcH
	DW	0ff55H
	DW	0ff85H
	DW	0fe8cH
	DW	0c0H
	DW	0a8H
	DW	0ffb4H
	DW	0ff7cH
	DW	0fcH
	DW	0ff95H
	DW	0154H
	DW	0d2H
	DW	0188H
	DW	01fdH
	DW	0110H
	DW	0b5H
	DW	0ff93H
	DW	091H
	DW	0daH
	DW	077H
	DW	0fe60H
	DW	0fef9H
	DW	01e5H
	DW	0109H
	DW	0ff4bH
	DW	0fff8H
	DW	0fee2H
	DW	0e2H
	DW	0ff0cH
	DW	0ff26H
	DW	045H
	DW	0fedeH
	DW	0ff62H
	DW	0bfH
	DW	0ffffH
	DW	0ffc0H
	DW	0fdb0H
	DW	0ffa6H
	DW	0d5H
	DW	0ffa0H
	DW	0ffH
	DW	01b3H
	DW	0b2H
	DW	0ffb0H
	DW	0fe8fH
	DW	0ffeeH
	DW	0ffdfH
	DW	0ffb0H
	DW	0ffd6H
	DW	019fH
	DW	08cH
	DW	0ff22H
	DW	0477H
	DW	028bH
	DW	0289H
	DW	0149H
	DW	02ffH
	DW	022cH
	DW	0f9H
	DW	0ebH
	DW	03b4H
	DW	019dH
	DW	01baH
	DW	0117H
	DW	08dH
	DW	0153H
	DW	0164H
	DW	022dH
	DW	0fe2aH
	DW	0ff56H
	DW	063H
	DW	0edH
	DW	0fdc7H
	DW	0fce0H
	DW	0160H
	DW	0235H
	DW	011aH
	DW	01d9H
	DW	01d6H
	DW	014cH
	DW	0ff39H
	DW	0fd4eH
	DW	0fafcH
	DW	0fc6bH
	DW	0ff3fH
	DW	0fe56H
	DW	0fce0H
	DW	0fb9eH
	DW	0ffe6H
	DW	0fe8dH
	DW	0fe16H
	DW	0ff3fH
	DW	027dH
	DW	0253H
	DW	0207H
	DW	014aH
	DW	0198H
	DW	0ff8dH
	DW	04fH
	DW	0cH
	DW	01ddH
	DW	057H
	DW	0ff99H
	DW	0fe88H
	DW	0fd66H
	DW	0fea5H
	DW	0feebH
	DW	0feddH
	DW	0fe02H
	DW	0fe1fH
	DW	0a9H
	DW	0129H
	DW	0fcc3H
	DW	0fd1eH
	DW	0ff33H
	DW	0ff55H
	DW	0fec0H
	DW	0fde4H
	DW	0148H
	DW	011bH
	DW	0fca5H
	DW	0fc42H
	DW	01baH
	DW	0fffeH
	DW	022cH
	DW	02aeH
	DW	082H
	DW	038H
	DW	0567H
	DW	03f4H
	DW	02f3H
	DW	01abH
	DW	0264H
	DW	02e5H
	DW	0274H
	DW	0229H
	DW	0feadH
	DW	0fce4H
	DW	086H
	DW	0115H
	DW	0fd87H
	DW	0fbc3H
	DW	0fffeH
	DW	0ff0aH
	DW	0fc90H
	DW	0fbf5H
	DW	0f9b9H
	DW	0fbd8H
	DW	0fc1eH
	DW	0fe26H
	DW	0fb8eH
	DW	0fe18H
	DW	0fe62H
	DW	0fce5H
	DW	049H
	DW	0ff32H
	DW	0fff8H
	DW	0ff75H
	DW	01b7H
	DW	0ccH
	DW	0ff50H
	DW	0fdbeH
	DW	017H
	DW	083H
	DW	0fef3H
	DW	0fd0bH
	DW	0ff41H
	DW	0f5H
	DW	0ff93H
	DW	0feaeH
	DW	070H
	DW	013cH
	DW	078H
	DW	0fe6aH
	DW	0ff8aH
	DW	0263H
	DW	0ff4cH
	DW	0ff46H
	DW	0fd7bH
	DW	073H
	DW	0ff53H
	DW	022H
	DW	0fdfaH
	DW	0fe17H
	DW	0ff69H
	DW	03dH
	DW	0fdb9H
	DW	0fcb4H
	DW	0dcH
	DW	0ff76H
	DW	0fd57H
	DW	0fc04H
	DW	0187H
	DW	0ffefH
	DW	0fdaaH
	DW	0febfH
	DW	09dH
	DW	0fed9H
	DW	081H
	DW	09bH
	DW	0fc62H
	DW	0fc95H
	DW	0fc25H
	DW	011dH
	DW	0f1H
	DW	0ffadH
	DW	0ff83H
	DW	0ff83H
	DW	026cH
	DW	0255H
	DW	01b0H
	DW	05cH
	DW	0189H
	DW	04eH
	DW	0199H
	DW	03dH
	DW	0fe77H
	DW	0fd1dH
	DW	0fe63H
	DW	0fd14H
	DW	053H
	DW	036H
	DW	0169H
	DW	01bH
	DW	0fbc4H
	DW	082H
	DW	0feafH
	DW	0fd4aH
	DW	0f9e3H
	DW	0129H
	DW	013eH
	DW	0ffedH
	DW	0f8afH
	DW	024H
	DW	033H
	DW	0fec3H
	DW	0f6edH
	DW	0ff0aH
	DW	0e7H
	DW	0ffacH
	DW	0f6feH
	DW	0fcf1H
	DW	028H
	DW	0ff4dH
	DW	0f747H
	DW	0fc5eH
	DW	0fe26H
	DW	0fe32H
	DW	0fd0eH
	DW	0ffaaH
	DW	0fee0H
	DW	0fd8eH
	DW	0f695H
	DW	0fe39H
	DW	0ffc1H
	DW	0abH
	DW	0fbb5H
	DW	0fbbaH
	DW	0ffe6H
	DW	0ff71H
	DW	0fb57H
	DW	0fe39H
	DW	0fe6aH
	DW	0fe83H
	DW	0fda3H
	DW	0ff2eH
	DW	0ffa0H
	DW	0ffcdH
	DW	0fdbcH
	DW	0fe24H
	DW	0feecH
	DW	0fff1H
	DW	0fb55H
	DW	0fd86H
	DW	0fb4dH
	DW	0fc8fH
	DW	0fe86H
	DW	0ff23H
	DW	0fd63H
	DW	0fc48H
	DW	0252H
	DW	0b2H
	DW	0fe6dH
	DW	0fd5cH
	DW	02fbH
	DW	0147H
	DW	0259H
	DW	0122H
	DW	0acH
	DW	012cH
	DW	0cbH
	DW	09dH
	DW	0ffc8H
	DW	0feb0H
	DW	0164H
	DW	018H
	DW	0ff1cH
	DW	0fed8H
	DW	0fefdH
	DW	0ffe3H
	DW	0ff46H
	DW	0107H
	DW	01a0H
	DW	0eH
	DW	0fe9fH
	DW	0175H
	DW	0fff4H
	DW	0ff28H
	DW	0101H
	DW	060H
	DW	0aeH
	DW	039H
	DW	0fa0aH
	DW	0fd98H
	DW	0fc46H
	DW	0fe0dH
	DW	0fe0fH
	DW	0ff68H
	DW	0feb3H
	DW	07dH
	DW	069H
	DW	0c8H
	DW	0b3H
	DW	0ff9fH
	DW	0feb5H
	DW	0ff20H
	DW	02fdH
	DW	02b9H
	DW	02f8H
	DW	0100H
	DW	012dH
	DW	03bH
	DW	01c7H
	DW	0ffabH
	DW	0ccH
	DW	0120H
	DW	0fdfeH
	DW	0f0H
	DW	0fbH
	DW	0ff93H
	DW	0100H
	DW	01a1H
	DW	0ffdeH
	DW	0fe63H
	DW	065H
	DW	01aeH
	DW	0180H
	DW	09cH
	DW	0ffe1H
	DW	0fff6H
	DW	0ceH
	DW	01aaH
	DW	024dH
	DW	091H
	DW	08fH
	DW	047H
	DW	0328H
	DW	038aH
	DW	014dH
	DW	015dH
	DW	03daH
	DW	03aaH
	DW	024dH
	DW	014bH
	DW	0514H
	DW	0338H
	DW	0bbH
	DW	01fdH
	DW	0426H
	DW	028dH
	DW	017bH
	DW	01d2H
	DW	05b6H
	DW	03a9H
	DW	0191H
	DW	0112H
	DW	0313H
	DW	035dH
	DW	0109H
	DW	02H
	DW	0261H
	DW	0229H
	DW	01cH
	DW	0131H
	DW	039eH
	DW	0154H
	DW	06aH
	DW	0182H
	DW	0f1H
	DW	0fef5H
	DW	0ff6dH
	DW	0e1H
	DW	0ff4eH
	DW	0fdeaH
	DW	015bH
	DW	01f6H
	DW	0fd7dH
	DW	0fe83H
	DW	018dH
	DW	01eH
	DW	0fd75H
	DW	0fd23H
	DW	0fe4dH
	DW	018eH
	DW	0fe69H
	DW	0fd2aH
	DW	0fe1cH
	DW	0ff08H
	DW	0fcebH
	DW	0fc6eH
	DW	0fe4aH
	DW	0fe24H
	DW	0fe0eH
	DW	0fe7aH
	DW	04bH
	DW	0fed9H
	DW	0fc3cH
	DW	0fdb2H
	DW	0fda2H
	DW	096H
	DW	0ff87H
	DW	0ffcfH
	DW	0ff65H
	DW	0ffb2H
	DW	03a7H
	DW	0226H
	DW	0185H
	DW	026H
	DW	0febfH
	DW	07fH
	DW	01a8H
	DW	013bH
	DW	0fee3H
	DW	0ff8fH
	DW	011bH
	DW	0103H
	DW	0292H
	DW	0cbH
	DW	0142H
	DW	01e6H
	DW	0387H
	DW	01f9H
	DW	02ecH
	DW	01a1H
	DW	0263H
	DW	01a7H
	DW	022bH
	DW	0200H
	DW	0efH
	DW	0ffadH
	DW	0fdbeH
	DW	0ffedH
	DW	0feadH
	DW	0fd25H
	DW	015dH
	DW	0dH
	DW	0fc5aH
	DW	0fa89H
	DW	0ff8eH
	DW	0fe98H
	DW	06bH
	DW	02b4H
	DW	0b6H
	DW	05aH
	DW	0fb25H
	DW	0f9feH
	DW	0f9f1H
	DW	0fd2bH
	DW	0fdc8H
	DW	0fc79H
	DW	0faadH
	DW	0fdf3H
	DW	0fdfbH
	DW	0fcabH
	DW	0fca3H
	DW	0fc14H
	DW	0ff58H
	DW	0fd4eH
	DW	0fcbdH
	DW	03fH
	DW	0ff77H
	DW	0fdd4H
	DW	0fdddH
	DW	090H
	DW	0fee2H
	DW	0fccfH
	DW	01e5H
	DW	013fH
	DW	0ff6dH
	DW	0fe68H
	DW	020eH
	DW	0f6H
	DW	0fea5H
	DW	0fe4eH
	DW	0129H
	DW	0ffe4H
	DW	0fedeH
	DW	0fe29H
	DW	0fbaaH
	DW	0fafbH
	DW	0fe34H
	DW	0fe99H
	DW	0fc24H
	DW	0fce6H
	DW	0543H
	DW	0513H
	DW	02b2H
	DW	020bH
	DW	04c0H
	DW	042cH
	DW	0446H
	DW	02f5H
	DW	0339H
	DW	0474H
	DW	02f0H
	DW	01eeH
	DW	04e4H
	DW	0555H
	DW	04abH
	DW	0382H
	DW	0209H
	DW	041dH
	DW	0214H
	DW	01b0H
	DW	0feb2H
	DW	0ff28H
	DW	0fec7H
	DW	0fef9H
	DW	0ff60H
	DW	034H
	DW	0fe28H
	DW	0ff65H
	DW	07fH
	DW	088H
	DW	0fe84H
	DW	02cH
	DW	0353H
	DW	019aH
	DW	0ff5eH
	DW	0fe17H
	DW	07bH
	DW	0ff01H
	DW	0fce4H
	DW	0fd65H
	DW	0442H
	DW	0395H
	DW	0315H
	DW	01edH
	DW	0575H
	DW	04adH
	DW	022eH
	DW	0caH
	DW	0ffcdH
	DW	0ff8aH
	DW	0feaaH
	DW	0fd43H
	DW	053H
	DW	06cH
	DW	0ffd6H
	DW	0fe47H
	DW	03dH
	DW	05fH
	DW	011fH
	DW	0100H
	DW	0ffe5H
	DW	059H
	DW	020cH
	DW	0213H
	DW	015fH
	DW	0e3H
	DW	0250H
	DW	0221H
	DW	02b9H
	DW	09bH
	DW	0ff5cH
	DW	0133H
	DW	027eH
	DW	0112H
	DW	0fe17H
	DW	0ffceH
	DW	02f2H
	DW	0f0H
	DW	0ff5aH
	DW	0ff84H
	DW	0ff8cH
	DW	0fdbdH
	DW	0fb44H
	DW	0ffc1H
	DW	0beH
	DW	0fed9H
	DW	0fbf0H
	DW	0faf0H
	DW	093H
	DW	0fe88H
	DW	0ff4fH
	DW	0ff8fH
	DW	0349H
	DW	04d9H
	DW	041bH
	DW	029cH
	DW	02H
	DW	0125H
	DW	0227H
	DW	0130H
	DW	0fbb8H
	DW	0fc47H
	DW	0ff08H
	DW	0178H
	DW	0fd12H
	DW	0fc3bH
	DW	057H
	DW	0204H
	DW	0feedH
	DW	0fdfcH
	DW	02b1H
	DW	0187H
	DW	0fe85H
	DW	0fd7dH
	DW	036cH
	DW	0252H
	DW	0fe7aH
	DW	0fc0bH
	DW	0fd7bH
	DW	023dH
	DW	0ff95H
	DW	0fdc8H
	DW	0fd4fH
	DW	0fcc6H
	DW	0fbffH
	DW	0ffe5H
	DW	0feb8H
	DW	0ff35H
	DW	035dH
	DW	02edH
	DW	0224H
	DW	0e9H
	DW	0f984H
	DW	0fbedH
	DW	01c3H
	DW	06cH
	DW	0fd6cH
	DW	0fd94H
	DW	01aeH
	DW	0ecH
	DW	015H
	DW	0fe74H
	DW	0fb7aH
	DW	0fd89H
	DW	055cH
	DW	0512H
	DW	03c7H
	DW	0241H
	DW	0465H
	DW	0465H
	DW	024dH
	DW	01c6H
	DW	0febdH
	DW	0fc9fH
	DW	0fe2dH
	DW	099H
	DW	0fe2cH
	DW	0fd45H
	DW	0fcdcH
	DW	0fe03H
	DW	0fe78H
	DW	0fd32H
	DW	0ff34H
	DW	0ffddH
	DW	0fda5H
	DW	0fbbbH
	DW	0fdc9H
	DW	0ff5eH
	DW	0fe07H
	DW	0fc14H
	DW	0ff9aH
	DW	015eH
	DW	0dbH
	DW	0e0H
	DW	01a7H
	DW	0fcH
	DW	018bH
	DW	024fH
	DW	0260H
	DW	016bH
	DW	0fd16H
	DW	0ffa0H
	DW	0175H
	DW	0acH
	DW	0abH
	DW	0127H
	DW	02caH
	DW	0153H
	DW	0e9H
	DW	04dH
	DW	06bH
	DW	0115H
	DW	09dH
	DW	099H
	DW	0fe0dH
	DW	0fe9cH
	DW	060bH
	DW	0431H
	DW	0240H
	DW	01eeH
	DW	0fedcH
	DW	0feadH
	DW	0fe08H
	DW	0fdb0H
	DW	0fc79H
	DW	0ffb8H
	DW	0fd95H
	DW	0fe1fH
	DW	0f9c6H
	DW	0fba3H
	DW	0fdc9H
	DW	0ff02H
	DW	0fce7H
	DW	0fe05H
	DW	0fdccH
	DW	0feddH
	DW	0fe14H
	DW	0fdecH
	DW	01f6H
	DW	0230H
	DW	0fe82H
	DW	01abH
	DW	0258H
	DW	0e6H
	DW	0ff1dH
	DW	01ddH
	DW	0fbH
	DW	04bH
	DW	011dH
	DW	034aH
	DW	032dH
	DW	01dcH
	DW	0fae2H
	DW	0facbH
	DW	0baH
	DW	0179H
	DW	0fdb5H
	DW	0fc6bH
	DW	0283H
	DW	017dH
	DW	0fb5eH
	DW	0fdd7H
	DW	019bH
	DW	052H
	DW	0fb99H
	DW	0fcccH
	DW	0ff52H
	DW	0fde4H
	DW	0fda4H
	DW	077H
	DW	021fH
	DW	0cdH
	DW	0fe84H
	DW	0291H
	DW	038dH
	DW	0237H
	DW	070H
	DW	0fed6H
	DW	0fe8aH
	DW	072H
	DW	0fca7H
	DW	0ff05H
	DW	038H
	DW	09fH
	DW	0191H
	DW	0159H
	DW	0ffdeH
	DW	0ff74H
	DW	0ff91H
	DW	0fda1H
	DW	029H
	DW	0266H
	DW	0163H
	DW	0ff8eH
	DW	0ffb3H
	DW	01daH
	DW	0242H
	DW	038H
	DW	05aaH
	DW	039cH
	DW	044aH
	DW	058cH
	DW	02e5H
	DW	0190H
	DW	0f6H
	DW	016H
	DW	024cH
	DW	0139H
	DW	0ff87H
	DW	0147H
	DW	033fH
	DW	01d8H
	DW	0fb8eH
	DW	0fda0H
	DW	0358H
	DW	0228H
	DW	0fb27H
	DW	0fbd0H
	DW	027eH
	DW	0258H
	DW	0fe9aH
	DW	0feH
	DW	0feb3H
	DW	0fed1H
	DW	0fd7aH
	DW	02e3H
	DW	0166H
	DW	04aH
	DW	04caH
	DW	0687H
	DW	04c5H
	DW	0351H
	DW	08c1H
	DW	0658H
	DW	03d7H
	DW	027cH
	DW	0731H
	DW	05c5H
	DW	02edH
	DW	0180H
	DW	015eH
	DW	0107H
	DW	057H
	DW	080H
	DW	0f892H
	DW	0fc53H
	DW	0ff70H
	DW	0ffc0H
	DW	0f93aH
	DW	0ff01H
	DW	0120H
	DW	0ffe1H
	DW	0f5acH
	DW	0fb2aH
	DW	016eH
	DW	0ebH
	DW	0f995H
	DW	0fbbcH
	DW	0fac0H
	DW	0fed0H
	DW	0fde3H
	DW	0fbcdH
	DW	0fba4H
	DW	07bH
	DW	0fb66H
	DW	0ff04H
	DW	0fcd0H
	DW	0ff4cH
	DW	0fc08H
	DW	0215H
	DW	0235H
	DW	0e9H
	DW	0fe19H
	DW	0fe52H
	DW	0ff44H
	DW	014eH
	DW	0363H
	DW	04d4H
	DW	0216H
	DW	0abH
	DW	0f9caH
	DW	0f9b9H
	DW	027bH
	DW	0276H
	DW	0f76cH
	DW	0136H
	DW	039cH
	DW	019cH
	DW	0f6caH
	DW	0feb8H
	DW	03bcH
	DW	0211H
	DW	0f5b1H
	DW	0fe87H
	DW	0276H
	DW	0116H
	DW	0f5d6H
	DW	013dH
	DW	031fH
	DW	012bH
	DW	0f69aH
	DW	085H
	DW	0154H
	DW	01fH
	DW	0f794H
	DW	0fa44H
	DW	083H
	DW	07dH
	DW	0fb60H
	DW	0fe16H
	DW	0ff75H
	DW	02eH
	DW	0fd18H
	DW	01bfH
	DW	037bH
	DW	0234H
	DW	043H
	DW	0fe3dH
	DW	0286H
	DW	025cH
	DW	0fdd7H
	DW	0fe53H
	DW	0fc94H
	DW	018cH
	DW	0a2H
	DW	0ffbeH
	DW	0519H
	DW	0393H
	DW	01dfH
	DW	0243H
	DW	0440H
	DW	031aH
	DW	01c2H
	DW	0116H
	DW	0236H
	DW	0144H
	DW	0fbdfH
	DW	0ff66H
	DW	094H
	DW	0ff4fH
	DW	0f60fH
	DW	0a8H
	DW	042eH
	DW	0250H
	DW	0f6d1H
	DW	0ffd6H
	DW	0333H
	DW	0159H
	DW	0f6d8H
	DW	0fd3dH
	DW	02d1H
	DW	0faH
	DW	0f781H
	DW	0fa27H
	DW	0fecbH
	DW	07aH
	DW	0ffb2H
	DW	0ffb7H
	DW	078H
	DW	0adH
	DW	0fffcH
	DW	0106H
	DW	0fef9H
	DW	0fefbH
	DW	0fe51H
	DW	0ffc0H
	DW	0fe6bH
	DW	0fd24H
	DW	0f5cfH
	DW	074H
	DW	0ffadH
	DW	0ff3fH
	DW	0fa0bH
	DW	0fc50H
	DW	0fe23H
	DW	0fd2bH
	DW	0fe04H
	DW	0133H
	DW	0aaH
	DW	0acH
	DW	0340H
	DW	01a1H
	DW	0340H
	DW	02aeH
	DW	0ff1fH
	DW	0b1H
	DW	037eH
	DW	0332H
	DW	0fe1eH
	DW	0fe7bH
	DW	04ffH
	DW	040fH
	DW	0fe81H
	DW	0c9H
	DW	0fea2H
	DW	028H
	DW	02daH
	DW	027bH
	DW	0e2H
	DW	020eH
	DW	01f7H
	DW	01ceH
	DW	0152H
	DW	018eH
	DW	0217H
	DW	02caH
	DW	028H
	DW	0fee6H
	DW	05caH
	DW	05bfH
	DW	043dH
	DW	02dbH
	DW	0619H
	DW	0430H
	DW	038dH
	DW	02b5H
	DW	058bH
	DW	0502H
	DW	0379H
	DW	036fH
	DW	0481H
	DW	02d8H
	DW	04a2H
	DW	0348H
	DW	0ff1eH
	DW	046aH
	DW	03b5H
	DW	02b1H
	DW	0fe12H
	DW	0fc26H
	DW	0f9ecH
	DW	0ff80H
	DW	0fdc8H
	DW	0fd2fH
	DW	0fd37H
	DW	0ffe6H
	DW	013dH
	DW	020cH
	DW	046H
	DW	087H
	DW	0fe6bH
	DW	0fc9fH
	DW	0f91aH
	DW	0fd74H
	DW	0ff52H
	DW	0fcdfH
	DW	0375H
	DW	0305H
	DW	0ff67H
	DW	0ffa5H
	DW	044bH
	DW	02efH
	DW	0fe06H
	DW	0fb83H
	DW	0355H
	DW	0286H
	DW	0f1H
	DW	030eH
	DW	0207H
	DW	021bH
	DW	073dH
	DW	06a4H
	DW	044dH
	DW	02acH
	DW	0fb1fH
	DW	0fa32H
	DW	0fe30H
	DW	0bcH
	DW	0fc83H
	DW	0fa7fH
	DW	0fae0H
	DW	0feabH
	DW	0ff79H
	DW	01b6H
	DW	0ff51H
	DW	012H
	DW	0457H
	DW	03d0H
	DW	013fH
	DW	0d0H
	DW	0fa6aH
	DW	0f918H
	DW	053H
	DW	01caH
	DW	0fdeeH
	DW	0fc18H
	DW	0133H
	DW	081H
	DW	0fcb8H
	DW	0fff1H
	DW	0ffe3H
	DW	0fe9cH
	DW	0fc71H
	DW	0fc64H
	DW	0fb85H
	DW	0ff0eH
	DW	0ff89H
	DW	0fdf0H
	DW	07fH
	DW	0ff7bH
	DW	0fd07H
	DW	0fd03H
	DW	0beH
	DW	0ffadH
	DW	0fec5H
	DW	037fH
	DW	020aH
	DW	0e7H
	DW	0ff22H
	DW	066H
	DW	0ffc1H
	DW	0fe54H
	DW	013cH
	DW	02bbH
	DW	017bH
	DW	046H
	DW	019H
	DW	02ccH
	DW	013aH
	DW	0ff94H
	DW	01fbH
	DW	036aH
	DW	0236H
	DW	0eeH
	DW	06cH
	DW	03adH
	DW	0207H
	DW	0c3H
	DW	01a9H
	DW	0ffc4H
	DW	0fe55H
	DW	0101H
	DW	08bH
	DW	0ff99H
	DW	0fd8aH
	DW	01beH
	DW	014eH
	DW	0172H
	DW	019cH
	DW	030H
	DW	0ff54H
	DW	0fd4eH
	DW	0fee5H
	DW	022dH
	DW	0bbH
	DW	0fee2H
	DW	09eH
	DW	01e3H
	DW	08cH
	DW	010eH
	DW	0fea8H
	DW	0fd89H
	DW	039cH
	DW	0243H
	DW	0ff8cH
	DW	084H
	DW	08eH
	DW	01d2H
	DW	0ffbcH
	DW	0ffc0H
	DW	0e6H
	DW	0ff6fH
	DW	0fed2H
	DW	0fde2H
	DW	0fcddH
	DW	0fc70H
	DW	03faH
	DW	02e1H
	DW	0fcfbH
	DW	03f7H
	DW	0276H
	DW	0129H
	DW	0f5dcH
	DW	05fH
	DW	01bdH
	DW	0150H
	DW	0f7b6H
	DW	01ebH
	DW	01feH
	DW	0bfH
	DW	0fb1bH
	DW	0a1H
	DW	0fffeH
	DW	0febcH
	DW	0fa56H
	DW	0fd87H
	DW	0fd38H
	DW	0ff97H
	DW	0fcb6H
	DW	0ff02H
	DW	0fe65H
	DW	064H
	DW	0fd80H
	DW	0fedeH
	DW	03f2H
	DW	02fbH
	DW	0fd76H
	DW	0139H
	DW	0491H
	DW	02daH
	DW	08cH
	DW	01f9H
	DW	0406H
	DW	02feH
	DW	0304H
	DW	011fH
	DW	042bH
	DW	0337H
	DW	01efH
	DW	02edH
	DW	0131H
	DW	0143H
	DW	0ff5cH
	DW	01ceH
	DW	04eH
	DW	018fH
	DW	0feaaH
	DW	0fc96H
	DW	045H
	DW	0255H
	DW	0fff0H
	DW	026cH
	DW	026dH
	DW	0151H
	DW	0ff76H
	DW	0fe44H
	DW	0fef7H
	DW	0daH
	DW	054H
	DW	0fe3eH
	DW	03b9H
	DW	029aH
	DW	0ff22H
	DW	0fcddH
	DW	021dH
	DW	025cH
	DW	0fc67H
	DW	0faa0H
	DW	0f4H
	DW	074H
	DW	0fcb7H
	DW	0fd2dH
	DW	0276H
	DW	024cH
	DW	08cH
	DW	0297H
	DW	0126H
	DW	0170H
	DW	03a7H
	DW	0416H
	DW	0371H
	DW	02f7H
	DW	06d2H
	DW	05b8H
	DW	0394H
	DW	0274H
	DW	01b4H
	DW	03c3H
	DW	0119H
	DW	01H
	DW	0ff89H
	DW	04aH
	DW	021eH
	DW	0d5H
	DW	01H
	DW	0fdc9H
	DW	012dH
	DW	0f1H
	DW	0104H
	DW	01b3H
	DW	0deH
	DW	018cH
	DW	03a8H
	DW	03bdH
	DW	0454H
	DW	02bfH
	DW	01feH
	DW	01faH
	DW	0328H
	DW	01deH
	DW	0259H
	DW	02b6H
	DW	03c0H
	DW	026cH
	DW	03ccH
	DW	02e5H
	DW	03d4H
	DW	0258H
	DW	0342H
	DW	02cdH
	DW	02ffH
	DW	02acH
	DW	0283H
	DW	03ccH
	DW	03a7H
	DW	027eH
	DW	01f5H
	DW	0295H
	DW	02d0H
	DW	0353H
	DW	0ff97H
	DW	0fd88H
	DW	0fed1H
	DW	0ff8bH
	DW	0fe53H
	DW	082H
	DW	0315H
	DW	01baH
	DW	0fdf6H
	DW	0ff44H
	DW	02c0H
	DW	0175H
	DW	0fd09H
	DW	02aH
	DW	032eH
	DW	020bH
	DW	0fdedH
	DW	0fb8fH
	DW	0175H
	DW	0242H
	DW	0fd56H
	DW	0fb4dH
	DW	0fe39H
	DW	011dH
	DW	0fb75H
	DW	0f9d7H
	DW	0fbb6H
	DW	02cH
	DW	051H
	DW	0ffaeH
	DW	02c8H
	DW	016bH
	DW	01ddH
	DW	0f6H
	DW	03baH
	DW	026eH
	DW	0644H
	DW	0656H
	DW	04fdH
	DW	037bH
	DW	0581H
	DW	035bH
	DW	039cH
	DW	037cH
	DW	0306H
	DW	0411H
	DW	03b3H
	DW	0476H
	DW	028H
	DW	0fddeH
	DW	0ffb5H
	DW	0120H
	DW	0fd98H
	DW	0ff96H
	DW	0fd47H
	DW	0ffe6H
	DW	0ff57H
	DW	0ff60H
	DW	0fc85H
	DW	0fd1dH
	DW	0fee9H
	DW	0fe80H
	DW	0fbfbH
	DW	0fea2H
	DW	06f5H
	DW	051cH
	DW	0416H
	DW	0330H
	DW	062cH
	DW	05fdH
	DW	05c0H
	DW	049aH
	DW	05e1H
	DW	0434H
	DW	04c0H
	DW	0383H
	DW	037aH
	DW	0388H
	DW	0234H
	DW	028eH
	DW	0398H
	DW	02b4H
	DW	03fdH
	DW	0358H
	DW	0fe13H
	DW	084H
	DW	0b1H
	DW	01f9H
	DW	047H
	DW	0c3H
	DW	0ffe4H
	DW	061H
	DW	01c8H
	DW	015fH
	DW	0ff5cH
	DW	058H
	DW	01b7H
	DW	0116H
	DW	0ffd8H
	DW	015eH
	DW	0573H
	DW	03b5H
	DW	0eaH
	DW	0ffa1H
	DW	0fcdbH
	DW	0fe28H
	DW	026H
	DW	0ff5dH
	DW	016fH
	DW	0ff9eH
	DW	01e9H
	DW	020bH
	DW	0401H
	DW	049aH
	DW	04bcH
	DW	038aH
	DW	013fH
	DW	0522H
	DW	032eH
	DW	01cdH
	DW	0ff85H
	DW	0fde1H
	DW	0fcdcH
	DW	01bfH
	DW	0fd14H
	DW	0febcH
	DW	0fc7fH
	DW	0fb99H
	DW	0fd1fH
	DW	0fe0bH
	DW	0fcebH
	DW	0fd37H
	DW	02cbH
	DW	0309H
	DW	04d7H
	DW	039aH
	DW	079dH
	DW	0793H
	DW	0558H
	DW	0361H
	DW	02daH
	DW	0370H
	DW	02f6H
	DW	0184H
	DW	0fc99H
	DW	01c6H
	DW	011H
	DW	0ff05H
	DW	0fe83H
	DW	0fcd6H
	DW	0f9d1H
	DW	0efH
	DW	0fdf7H
	DW	0fc3aH
	DW	0fce8H
	DW	0103H
	DW	0fc86H
	DW	0fab2H
	DW	0fcfeH
	DW	0ffb7H
	DW	0a6H
	DW	015dH
	DW	0ff2cH
	DW	0143H
	DW	0fcb8H
	DW	0fed3H
	DW	01d9H
	DW	01b3H
	DW	0fd59H
	DW	0fe30H
	DW	02d8H
	DW	015fH
	DW	0ff64H
	DW	0ff39H
	DW	029bH
	DW	01b0H
	DW	01dH
	DW	0ff04H
	DW	019fH
	DW	01e0H
	DW	0fd25H
	DW	0fe85H
	DW	091H
	DW	022fH
	DW	0fdf0H
	DW	0fd89H
	DW	0fb7aH
	DW	0ff61H
	DW	01bdH
	DW	0111H
	DW	07bH
	DW	027fH
	DW	0175H
	DW	0ff82H
	DW	0320H
	DW	0238H
	DW	054H
	DW	0ff5eH
	DW	02d0H
	DW	02c8H
	DW	0fcc2H
	DW	0fde8H
	DW	0ff47H
	DW	0deH
	DW	0198H
	DW	01c4H
	DW	01f5H
	DW	0303H
	DW	0fc7fH
	DW	0fab5H
	DW	0ffbdH
	DW	01baH
	DW	0fce8H
	DW	0fa82H
	DW	0236H
	DW	025aH
	DW	0a7H
	DW	0febaH
	DW	01fdH
	DW	014aH
	DW	0ffa1H
	DW	0fd8eH
	DW	0fd26H
	DW	0fea8H
	DW	0684H
	DW	04c1H
	DW	030bH
	DW	01c7H
	DW	0524H
	DW	033cH
	DW	0248H
	DW	02cfH
	DW	0194H
	DW	0ffe1H
	DW	03f5H
	DW	0315H
	DW	059H
	DW	06bH
	DW	037bH
	DW	0225H
	DW	0367H
	DW	062dH
	DW	0395H
	DW	029fH
	DW	0362H
	DW	05c7H
	DW	0509H
	DW	0356H
	DW	0187H
	DW	042cH
	DW	0462H
	DW	032cH
	DW	04eH
	DW	0fdceH
	DW	0159H
	DW	0233H
	DW	01adH
	DW	0ff99H
	DW	01a1H
	DW	0313H
	DW	0ff86H
	DW	0fe4bH
	DW	019bH
	DW	0314H
	DW	0fc6fH
	DW	0fe5fH
	DW	025aH
	DW	02f2H
	DW	0ff1eH
	DW	0fff0H
	DW	097H
	DW	02f8H
	DW	0fd44H
	DW	076H
	DW	0ff98H
	DW	0fff2H
	DW	0fb98H
	DW	030H
	DW	011cH
	DW	0189H
	DW	0fe7aH
	DW	0fe5dH
	DW	0fd81H
	DW	0ff8cH
	DW	0fc72H
	DW	0132H
	DW	013cH
	DW	0fff3H
	DW	04b7H
	DW	03d8H
	DW	0335H
	DW	029dH
	DW	0fb55H
	DW	0fd4bH
	DW	08cH
	DW	0ff2bH
	DW	0fc8cH
	DW	0fe60H
	DW	0ff39H
	DW	0fdd2H
	DW	0fd98H
	DW	0f5H
	DW	0fe6cH
	DW	0fd68H
	DW	0106H
	DW	038H
	DW	0fd97H
	DW	0fd2cH
	DW	0ffabH
	DW	0fe15H
	DW	0fec0H
	DW	0fd70H
	DW	0fdc6H
	DW	0fcc1H
	DW	0ff7fH
	DW	0fdf0H
	DW	0fa1eH
	DW	0ffc1H
	DW	0fe91H
	DW	0fe7fH
	DW	0fe9aH
	DW	0febfH
	DW	04H
	DW	033H
	DW	0fe92H
	DW	0ff2aH
	DW	013fH
	DW	01ffH
	DW	092H
	DW	029fH
	DW	0ffefH
	DW	0feddH
	DW	0ff92H
	DW	01d0H
	DW	0ff75H
	DW	0fe10H
	DW	0ff36H
	DW	0dcH
	DW	0fec8H
	DW	0fd89H
	DW	0fd6cH
	DW	0ffb7H
	DW	0fd71H
	DW	0fcccH
	DW	0fd6aH
	DW	0fd73H
	DW	0faf8H
	DW	0fca7H
	DW	0fe52H
	DW	0fc47H
	DW	0fc41H
	DW	0fef8H
	DW	0ffcfH
	DW	0fe2cH
	DW	0ffb8H
	DW	0fe83H
	DW	0fea2H
	DW	0fdcdH
	DW	0ff3fH
	DW	0fe69H
	DW	037H
	DW	0fe68H
	DW	0fcddH
	DW	0bH
	DW	0fecbH
	DW	0289H
	DW	0bcH
	DW	0ff3aH
	DW	0fe00H
	DW	01cdH
	DW	0ffb1H
	DW	0fe36H
	DW	0fadaH
	DW	0fef9H
	DW	0ff7aH
	DW	0fdf5H
	DW	0f987H
	DW	0fe4dH
	DW	0fe11H
	DW	0fd03H
	DW	039H
	DW	0fea5H
	DW	0fe62H
	DW	01b2H
	DW	0fb8bH
	DW	0ff0eH
	DW	0fd68H
	DW	0fca7H
	DW	022H
	DW	0ffbcH
	DW	0fd3dH
	DW	0feaeH
_mr515_3_lsf DW	01a3H
	DW	0a3H
	DW	0ffe2H
	DW	0fefaH
	DW	0fe39H
	DW	0fcebH
	DW	0fa6aH
	DW	0fd2fH
	DW	03eeH
	DW	0298H
	DW	010dH
	DW	019H
	DW	026bH
	DW	0104H
	DW	0b7H
	DW	060H
	DW	0fc38H
	DW	0fab2H
	DW	0fe7cH
	DW	087H
	DW	0fd4bH
	DW	0343H
	DW	01c8H
	DW	09aH
	DW	0451H
	DW	02bfH
	DW	0239H
	DW	016bH
	DW	0659H
	DW	052eH
	DW	03d9H
	DW	02ecH
	DW	0ff24H
	DW	0dbH
	DW	04cH
	DW	0ff30H
	DW	0fa51H
	DW	0f982H
	DW	031H
	DW	095H
	DW	0fc3cH
	DW	0ff54H
	DW	0fd10H
	DW	0feb0H
	DW	0271H
	DW	0d1H
	DW	0ff06H
	DW	0ffbeH
	DW	0fc07H
	DW	0fcbaH
	DW	0fffeH
	DW	013dH
	DW	0f788H
	DW	0fa33H
	DW	0ff76H
	DW	07bH
	DW	0f8acH
	DW	0f7cdH
	DW	0fdf7H
	DW	055H
	DW	0fc39H
	DW	0fe92H
	DW	0fd49H
	DW	0fc8fH
	DW	0fc67H
	DW	0fc0dH
	DW	0fd05H
	DW	0fc4bH
	DW	0ff84H
	DW	0ff00H
	DW	0fea0H
	DW	0fd6cH
	DW	0b2H
	DW	01cfH
	DW	0162H
	DW	0130H
	DW	0f930H
	DW	0fdb1H
	DW	0fee6H
	DW	04fH
	DW	0f737H
	DW	0afH
	DW	0363H
	DW	01f3H
	DW	0ff76H
	DW	0ff4cH
	DW	0ff4bH
	DW	0ffebH
	DW	0f70dH
	DW	0fb27H
	DW	0fe34H
	DW	0fdf8H
	DW	0fcfdH
	DW	01c3H
	DW	0fff6H
	DW	0feccH
	DW	010fH
	DW	0ffbfH
	DW	04H
	DW	0d6H
	DW	0fee9H
	DW	0fe4dH
	DW	0ffd5H
	DW	0fea4H
	DW	0fd62H
	DW	023H
	DW	0ffbfH
	DW	0ff2dH
	DW	0326H
	DW	0217H
	DW	055H
	DW	0129H
	DW	039H
	DW	0efH
	DW	02d2H
	DW	01edH
	DW	0e1H
	DW	0295H
	DW	0348H
	DW	0223H
	DW	0fde4H
	DW	0fe88H
	DW	0eH
	DW	015dH
	DW	01d5H
	DW	02d1H
	DW	014bH
	DW	0a2H
	DW	0fde0H
	DW	0fd10H
	DW	0ffc2H
	DW	0fff6H
	DW	018eH
	DW	0ffa8H
	DW	02d4H
	DW	02bdH
	DW	0ffedH
	DW	0fdebH
	DW	0ffa2H
	DW	0259H
	DW	088H
	DW	0ffb9H
	DW	0fd57H
	DW	0fd15H
	DW	0ff5aH
	DW	0fea8H
	DW	0105H
	DW	0ffceH
	DW	0a1H
	DW	0ffccH
	DW	01e5H
	DW	0151H
	DW	0f975H
	DW	032H
	DW	0beH
	DW	0ffa3H
	DW	0f716H
	DW	0ff19H
	DW	0ff3eH
	DW	0ffaeH
	DW	0ffa1H
	DW	0fdadH
	DW	0ff66H
	DW	080H
	DW	037eH
	DW	01f5H
	DW	024cH
	DW	01c9H
	DW	0fea7H
	DW	0ceH
	DW	07aH
	DW	06eH
	DW	0fd89H
	DW	0ff1dH
	DW	0fdc7H
	DW	03H
	DW	0198H
	DW	0efH
	DW	018dH
	DW	0e2H
	DW	0ff3bH
	DW	0fffeH
	DW	080H
	DW	01ebH
	DW	0501H
	DW	0388H
	DW	0124H
	DW	0d7H
	DW	021aH
	DW	0132H
	DW	0103H
	DW	01fdH
	DW	0fd5bH
	DW	0fbe9H
	DW	0dH
	DW	0141H
	DW	0fd59H
	DW	0fdb4H
	DW	0fe9aH
	DW	0ff2cH
	DW	0fdd2H
	DW	0f3H
	DW	0286H
	DW	01dfH
	DW	01e6H
	DW	0156H
	DW	027aH
	DW	0214H
	DW	06bH
	DW	0322H
	DW	014bH
	DW	088H
	DW	0ff90H
	DW	0fe72H
	DW	0fbf9H
	DW	0fee2H
	DW	0febaH
	DW	0fd3fH
	DW	0120H
	DW	0110H
	DW	0513H
	DW	0478H
	DW	049aH
	DW	035cH
	DW	0fe59H
	DW	079H
	DW	0fe7fH
	DW	0ff6cH
	DW	0fed9H
	DW	0fed2H
	DW	0fcbeH
	DW	0fccdH
	DW	010H
	DW	0ffe8H
	DW	0ff37H
	DW	0fe24H
	DW	022bH
	DW	05bH
	DW	0ff0bH
	DW	0126H
	DW	0ffdaH
	DW	0fe85H
	DW	0fc3eH
	DW	0fb3bH
	DW	0fb59H
	DW	0fa12H
	DW	0feefH
	DW	0fe75H
	DW	0fe7aH
	DW	0fc0bH
	DW	0fd7bH
	DW	023dH
	DW	0f8cdH
	DW	0fbfaH
	DW	01f9H
	DW	01d4H
	DW	02e8H
	DW	03b3H
	DW	0261H
	DW	01edH
	DW	0fd4fH
	DW	0fb6cH
	DW	0fd8cH
	DW	0ff79H
	DW	0fbfeH
	DW	0c3H
	DW	019bH
	DW	0c4H
	DW	062eH
	DW	047bH
	DW	023fH
	DW	0151H
	DW	0fb29H
	DW	0fcf7H
	DW	0fd78H
	DW	0ff72H
	DW	0253H
	DW	0339H
	DW	03c7H
	DW	02dfH
	DW	0fb4aH
	DW	0fc36H
	DW	0ffafH
	DW	0feaaH
	DW	0fd17H
	DW	0dH
	DW	0ffb8H
	DW	0177H
	DW	01c6H
	DW	013H
	DW	057fH
	DW	0399H
	DW	0f991H
	DW	0ff54H
	DW	035dH
	DW	0232H
	DW	03a0H
	DW	0601H
	DW	0427H
	DW	02e4H
	DW	0f658H
	DW	0fc48H
	DW	0108H
	DW	052H
	DW	0fe0aH
	DW	0fc3bH
	DW	0facaH
	DW	07bH
	DW	0363H
	DW	04d4H
	DW	0216H
	DW	0abH
	DW	0f6f0H
	DW	0fe34H
	DW	030cH
	DW	016bH
	DW	0fb5aH
	DW	0fd97H
	DW	0fcH
	DW	0ffc3H
	DW	0ff52H
	DW	022H
	DW	03f3H
	DW	0314H
	DW	0f6e3H
	DW	0f7H
	DW	01a7H
	DW	099H
	DW	0fff0H
	DW	0fe9dH
	DW	0106H
	DW	01c1H
	DW	0f9d8H
	DW	0fbcfH
	DW	0fde0H
	DW	0fe8dH
	DW	0fd99H
	DW	0fecfH
	DW	041bH
	DW	0325H
	DW	02afH
	DW	0210H
	DW	06H
	DW	0ff4aH
	DW	03a7H
	DW	036bH
	DW	03eaH
	DW	0329H
	DW	0c7H
	DW	0101H
	DW	07eH
	DW	04cH
	DW	0fdb8H
	DW	0fb8eH
	DW	0257H
	DW	022cH
	DW	0fbafH
	DW	0fa91H
	DW	0f9c9H
	DW	0fdf9H
	DW	0fc2fH
	DW	0fad3H
	DW	06cH
	DW	015bH
	DW	0fd2eH
	DW	0fc31H
	DW	016dH
	DW	065H
	DW	0ff6fH
	DW	02a9H
	DW	0f9H
	DW	0ff67H
	DW	00H
	DW	0feb2H
	DW	0fdc6H
	DW	09fH
	DW	019cH
	DW	011dH
	DW	0feb0H
	DW	0fd97H
	DW	0fc47H
	DW	0fc3aH
	DW	0377H
	DW	02b1H
	DW	0fb1dH
	DW	054H
	DW	0ff47H
	DW	0fe72H
	DW	0fdb0H
	DW	01b1H
	DW	0414H
	DW	028dH
	DW	055H
	DW	0149H
	DW	0ffd8H
	DW	0169H
	DW	0fe4fH
	DW	0fd3fH
	DW	01d2H
	DW	023eH
	DW	0ff66H
	DW	028eH
	DW	0250H
	DW	0122H
	DW	0ff59H
	DW	048H
	DW	015dH
	DW	0afH
	DW	02a2H
	DW	0129H
	DW	03d1H
	DW	02d0H
	DW	04d3H
	DW	04b4H
	DW	02f5H
	DW	01e8H
	DW	0fe70H
	DW	0fef3H
	DW	021aH
	DW	0174H
	DW	0fabaH
	DW	0fa95H
	DW	0fb56H
	DW	0ffa5H
	DW	04eeH
	DW	036cH
	DW	0307H
	DW	02bcH
	DW	0fda9H
	DW	0ffdaH
	DW	0fe52H
	DW	0fd2eH
	DW	07b8H
	DW	065eH
	DW	03dfH
	DW	0260H
	DW	06fH
	DW	0114H
	DW	0ff1eH
	DW	0ffa0H
	DW	0fc4dH
	DW	0fe7cH
	DW	0fff5H
	DW	0fff9H
	DW	0fed1H
	DW	0fdedH
	DW	0fcb9H
	DW	0152H
	DW	06c6H
	DW	06aeH
	DW	057dH
	DW	03f5H
	DW	0fdfcH
	DW	0fca9H
	DW	0fd7bH
	DW	0d2H
	DW	0fd50H
	DW	0fe60H
	DW	0201H
	DW	0e6H
	DW	0fccaH
	DW	0fd83H
	DW	0fb86H
	DW	0fec0H
	DW	0fc48H
	DW	0fd6eH
	DW	0fd4aH
	DW	0b7H
	DW	0ff8eH
	DW	0fd91H
	DW	0332H
	DW	02a2H
	DW	0ff41H
	DW	0ff34H
	DW	02dbH
	DW	027bH
	DW	033H
	DW	04c5H
	DW	0373H
	DW	0240H
	DW	0fc46H
	DW	0fe51H
	DW	033aH
	DW	0256H
	DW	0feaaH
	DW	0fd0dH
	DW	0fc7cH
	DW	0fe69H
	DW	0fb9aH
	DW	0fe9eH
	DW	0ff32H
	DW	0fe00H
	DW	0fdddH
	DW	0fcd6H
	DW	0fe9bH
	DW	0fd94H
	DW	042H
	DW	0203H
	DW	0ffb7H
	DW	0fe66H
	DW	0fc98H
	DW	0fc4fH
	DW	0fa5cH
	DW	0fb35H
	DW	0bfH
	DW	0ffefH
	DW	0fde0H
	DW	0ff19H
	DW	0f9fcH
	DW	0fde0H
	DW	0fc7bH
	DW	0fc8aH
_mr795_1_lsf DW	0fc86H
	DW	0f9f2H
	DW	0f613H
	DW	0fccdH
	DW	0fc36H
	DW	0afH
	DW	0fcc6H
	DW	0fb2eH
	DW	0fd06H
	DW	0fda9H
	DW	0ffeaH
	DW	027aH
	DW	0fcd5H
	DW	0fc25H
	DW	0fc7aH
	DW	0febdH
	DW	0cbH
	DW	01aH
	DW	0fe81H
	DW	0ff15H
	DW	0fcf3H
	DW	0fe71H
	DW	04eeH
	DW	038aH
	DW	0fc5cH
	DW	0fa89H
	DW	0fa9cH
	DW	0fd90H
	DW	05dH
	DW	057H
	DW	0fe62H
	DW	0fde5H
	DW	0fd4dH
	DW	025H
	DW	0279H
	DW	01feH
	DW	0fe7dH
	DW	0fe24H
	DW	0faceH
	DW	018fH
	DW	042H
	DW	0107H
	DW	0fe69H
	DW	0ffcfH
	DW	0feb1H
	DW	0fe5fH
	DW	0411H
	DW	0749H
	DW	0fcf5H
	DW	0fbbfH
	DW	0fa60H
	DW	0fd16H
	DW	0fca6H
	DW	0340H
	DW	0fdbbH
	DW	0fd09H
	DW	0fe8dH
	DW	0fd5fH
	DW	0fe06H
	DW	0828H
	DW	0fdd0H
	DW	0fd86H
	DW	0fb65H
	DW	010fH
	DW	0f1H
	DW	0eH
	DW	0fe4aH
	DW	0ff0cH
	DW	0fe73H
	DW	01cfH
	DW	04b2H
	DW	0417H
	DW	0fda2H
	DW	0fce3H
	DW	0fa62H
	DW	0ffcdH
	DW	0febdH
	DW	01e1H
	DW	0ff20H
	DW	0fdb8H
	DW	0fdf1H
	DW	01eeH
	DW	0371H
	DW	02aaH
	DW	0fe4fH
	DW	0feceH
	DW	0fc16H
	DW	022aH
	DW	0293H
	DW	0deH
	DW	0abH
	DW	0ff60H
	DW	0fe9fH
	DW	02a9H
	DW	0706H
	DW	061dH
	DW	0fcacH
	DW	0fb63H
	DW	0f961H
	DW	0feb0H
	DW	0fd66H
	DW	072H
	DW	0fdbbH
	DW	0fd0cH
	DW	0fd18H
	DW	0ff3dH
	DW	0177H
	DW	01f1H
	DW	0fe2fH
	DW	0fcdcH
	DW	0fbb6H
	DW	09aH
	DW	011aH
	DW	0ff7dH
	DW	0ffceH
	DW	0ff41H
	DW	0fd31H
	DW	0143H
	DW	02dcH
	DW	0606H
	DW	0fd2eH
	DW	0fccdH
	DW	0fa84H
	DW	069H
	DW	0ff06H
	DW	0b9H
	DW	0ff4eH
	DW	0fe0aH
	DW	0fd1aH
	DW	0141H
	DW	01feH
	DW	0457H
	DW	0febdH
	DW	0fdc9H
	DW	0fc3aH
	DW	07fH
	DW	01e4H
	DW	0152H
	DW	0ff60H
	DW	034H
	DW	0feaeH
	DW	02dcH
	DW	0557H
	DW	0612H
	DW	0fd8eH
	DW	0fcdeH
	DW	0f960H
	DW	0fee2H
	DW	0fdb6H
	DW	02a4H
	DW	0fd49H
	DW	0fea9H
	DW	0fe8eH
	DW	0fe16H
	DW	0127H
	DW	0765H
	DW	0fd8aH
	DW	0fdc2H
	DW	0fc0aH
	DW	0ffb0H
	DW	0285H
	DW	0ffbbH
	DW	0fffaH
	DW	0fec2H
	DW	0fe94H
	DW	030eH
	DW	05aaH
	DW	040eH
	DW	0fec7H
	DW	0fd23H
	DW	0fa8dH
	DW	078H
	DW	03cH
	DW	01ddH
	DW	0fef8H
	DW	0fdb7H
	DW	0ff85H
	DW	02c7H
	DW	04ddH
	DW	0279H
	DW	0ffa5H
	DW	0fe9dH
	DW	0fc08H
	DW	0303H
	DW	02f6H
	DW	0105H
	DW	0fdH
	DW	051H
	DW	0fe26H
	DW	03a2H
	DW	08a7H
	DW	06b8H
	DW	0fcd8H
	DW	0fbb5H
	DW	0f87bH
	DW	0fdd0H
	DW	0fcf2H
	DW	0a9H
	DW	0fcdcH
	DW	0fbceH
	DW	0ff44H
	DW	0fd8eH
	DW	0ffc9H
	DW	057dH
	DW	0fd4aH
	DW	0fd34H
	DW	0fb56H
	DW	0fd6cH
	DW	0162H
	DW	0149H
	DW	0fdfeH
	DW	0ffc9H
	DW	0fde1H
	DW	016eH
	DW	0409H
	DW	049eH
	DW	0fd6eH
	DW	0fc41H
	DW	0fab3H
	DW	0ffc9H
	DW	0ff48H
	DW	05dH
	DW	0fda3H
	DW	0fee2H
	DW	0fd6aH
	DW	0194H
	DW	01c1H
	DW	033bH
	DW	0fee2H
	DW	0fea2H
	DW	0fb11H
	DW	0274H
	DW	0132H
	DW	0e3H
	DW	0fff0H
	DW	093H
	DW	0fd91H
	DW	0baH
	DW	039bH
	DW	0862H
	DW	0fd5eH
	DW	0fc86H
	DW	0f9baH
	DW	0fe45H
	DW	0ff1cH
	DW	0153H
	DW	0fe8fH
	DW	0fceaH
	DW	0fe67H
	DW	0e7H
	DW	056H
	DW	05bdH
	DW	0fe40H
	DW	0fdbbH
	DW	0fbdbH
	DW	0252H
	DW	01c2H
	DW	0ff4fH
	DW	0ff84H
	DW	0ff56H
	DW	0fe41H
	DW	029fH
	DW	0487H
	DW	057cH
	DW	0fe24H
	DW	0fd65H
	DW	0fa19H
	DW	0ffb3H
	DW	0ff76H
	DW	02ccH
	DW	0ff4fH
	DW	0fe8cH
	DW	0fe83H
	DW	01c3H
	DW	03a6H
	DW	0393H
	DW	0ff06H
	DW	0fe50H
	DW	0fccaH
	DW	0110H
	DW	033cH
	DW	01beH
	DW	01aH
	DW	013H
	DW	0ffe1H
	DW	02baH
	DW	069cH
	DW	0878H
	DW	0fd7aH
	DW	0fc2fH
	DW	0f87cH
	DW	0ff4dH
	DW	0fe27H
	DW	010cH
	DW	0fe85H
	DW	0fd17H
	DW	0fd4dH
	DW	0bH
	DW	07fH
	DW	0409H
	DW	0fe18H
	DW	0fc6bH
	DW	0fcc7H
	DW	03dH
	DW	0143H
	DW	087H
	DW	093H
	DW	0ff6fH
	DW	0fd52H
	DW	02adH
	DW	0312H
	DW	0692H
	DW	0fe06H
	DW	0fcb0H
	DW	0faefH
	DW	023H
	DW	05aH
	DW	0deH
	DW	0ffe9H
	DW	0fea6H
	DW	0fd62H
	DW	01c7H
	DW	024fH
	DW	0507H
	DW	0ff35H
	DW	0fdafH
	DW	0fbc2H
	DW	028cH
	DW	0160H
	DW	01b5H
	DW	027H
	DW	03fH
	DW	0fe37H
	DW	0349H
	DW	04f1H
	DW	0839H
	DW	0fdf8H
	DW	0fc8eH
	DW	0f9d0H
	DW	0feb8H
	DW	0fd39H
	DW	058dH
	DW	0fdacH
	DW	0feaaH
	DW	0ffbaH
	DW	0d1H
	DW	0adH
	DW	0788H
	DW	0fe59H
	DW	0fdaaH
	DW	0fc67H
	DW	01a5H
	DW	025dH
	DW	0ffdaH
	DW	0fffeH
	DW	0ff0bH
	DW	0ff81H
	DW	0380H
	DW	07b1H
	DW	046fH
	DW	0fe85H
	DW	0fdfaH
	DW	0f9d5H
	DW	0adH
	DW	076H
	DW	02f1H
	DW	0ffc9H
	DW	0fe83H
	DW	0ffccH
	DW	03d9H
	DW	03fdH
	DW	02f1H
	DW	0fffeH
	DW	0feddH
	DW	0fc85H
	DW	02f1H
	DW	03e0H
	DW	01a7H
	DW	0108H
	DW	083H
	DW	0ff3cH
	DW	037fH
	DW	08e2H
	DW	09efH
	DW	0fd85H
	DW	0fbc0H
	DW	0f63dH
	DW	0fdefH
	DW	0fc2aH
	DW	020eH
	DW	0fd04H
	DW	0fcc2H
	DW	0fddcH
	DW	0fe4cH
	DW	013cH
	DW	0257H
	DW	0fd5dH
	DW	0fc54H
	DW	0fd16H
	DW	0ffc7H
	DW	0ecH
	DW	0fff5H
	DW	0ff37H
	DW	0ffafH
	DW	0fce2H
	DW	010H
	DW	034dH
	DW	0616H
	DW	0fd1fH
	DW	0fc27H
	DW	0fb44H
	DW	0fe2cH
	DW	011H
	DW	0122H
	DW	0fee9H
	DW	0fdb8H
	DW	0fd44H
	DW	0b7H
	DW	0336H
	DW	02c1H
	DW	0fef7H
	DW	0fe14H
	DW	0fb5dH
	DW	01a5H
	DW	098H
	DW	01d4H
	DW	0fe7aH
	DW	0a6H
	DW	0fef4H
	DW	027H
	DW	060eH
	DW	074cH
	DW	0fd85H
	DW	0fc3aH
	DW	0f9ddH
	DW	0fe3bH
	DW	0fe14H
	DW	038eH
	DW	0fee4H
	DW	0fbfdH
	DW	0ffb5H
	DW	0ff4bH
	DW	0ff7bH
	DW	073cH
	DW	0fe43H
	DW	0fd90H
	DW	0fb6aH
	DW	01a4H
	DW	016fH
	DW	0ffcfH
	DW	0fe7bH
	DW	0ff2cH
	DW	0ff57H
	DW	02c3H
	DW	0431H
	DW	04b8H
	DW	0fde5H
	DW	0fd3aH
	DW	0fa57H
	DW	053H
	DW	0ff5dH
	DW	01e4H
	DW	0ff14H
	DW	0fde1H
	DW	0fe9dH
	DW	0152H
	DW	0497H
	DW	032eH
	DW	0ff0aH
	DW	0fecbH
	DW	0fc42H
	DW	025eH
	DW	02f8H
	DW	03cH
	DW	0a6H
	DW	0fff8H
	DW	0ff5dH
	DW	0feceH
	DW	0739H
	DW	0a03H
	DW	0fd15H
	DW	0fbffH
	DW	0f909H
	DW	0fe5dH
	DW	0fe42H
	DW	0d1H
	DW	0fd32H
	DW	0fdcaH
	DW	0fdeaH
	DW	0fe06H
	DW	02b5H
	DW	0359H
	DW	0fe31H
	DW	0fd47H
	DW	0fbc6H
	DW	0145H
	DW	01afH
	DW	0ff32H
	DW	0fff1H
	DW	0fff8H
	DW	0fd05H
	DW	0221H
	DW	0397H
	DW	05eeH
	DW	0fd9dH
	DW	0fcf1H
	DW	0fadfH
	DW	0100H
	DW	0ffc9H
	DW	0d0H
	DW	0ff5bH
	DW	0fea4H
	DW	0fd6aH
	DW	0141H
	DW	02a8H
	DW	03a2H
	DW	0febaH
	DW	0fe53H
	DW	0fc49H
	DW	01e4H
	DW	01beH
	DW	023aH
	DW	0ff3bH
	DW	048H
	DW	0ffb7H
	DW	038dH
	DW	05afH
	DW	06cdH
	DW	0fdcdH
	DW	0fd1fH
	DW	0f84aH
	DW	0ff84H
	DW	0fe60H
	DW	02ceH
	DW	0fe22H
	DW	0fe6cH
	DW	0fec6H
	DW	0fff0H
	DW	01beH
	DW	0664H
	DW	0fdd9H
	DW	0fde7H
	DW	0fd12H
	DW	0ffc6H
	DW	027eH
	DW	0d6H
	DW	037H
	DW	0ff47H
	DW	0fef1H
	DW	047cH
	DW	0515H
	DW	04bcH
	DW	0fe1dH
	DW	0fd61H
	DW	0fb10H
	DW	075H
	DW	011dH
	DW	021fH
	DW	0ff34H
	DW	0fe79H
	DW	0ff91H
	DW	0201H
	DW	0602H
	DW	0356H
	DW	0ff8eH
	DW	0ff42H
	DW	0fc2eH
	DW	036dH
	DW	0253H
	DW	01d0H
	DW	0104H
	DW	0104H
	DW	0fec9H
	DW	02ecH
	DW	08ebH
	DW	08a8H
	DW	0fdfbH
	DW	0fc4fH
	DW	0f785H
	DW	0febaH
	DW	0fd3cH
	DW	017aH
	DW	0fcd4H
	DW	0fd4dH
	DW	0ff18H
	DW	0fdd0H
	DW	02afH
	DW	0581H
	DW	0fd24H
	DW	0fd4eH
	DW	0fcbcH
	DW	0fe99H
	DW	0285H
	DW	0182H
	DW	0fef7H
	DW	03eH
	DW	0fd5aH
	DW	091H
	DW	066cH
	DW	04b8H
	DW	0fdd5H
	DW	0fc24H
	DW	0fb2fH
	DW	0ffb2H
	DW	0eH
	DW	072H
	DW	0feb9H
	DW	0fe9aH
	DW	0fe17H
	DW	0188H
	DW	02a5H
	DW	02b9H
	DW	0ff37H
	DW	0ff14H
	DW	0fb8cH
	DW	02b5H
	DW	01c1H
	DW	0b2H
	DW	0ff0dH
	DW	0100H
	DW	0fe4fH
	DW	0263H
	DW	0569H
	DW	0998H
	DW	0fd9cH
	DW	0fc7bH
	DW	0fa48H
	DW	0fecdH
	DW	0ffefH
	DW	01f3H
	DW	0fec5H
	DW	0fd65H
	DW	0ff02H
	DW	0100H
	DW	01acH
	DW	05b7H
	DW	0fe1aH
	DW	0fe5aH
	DW	0fbe0H
	DW	028fH
	DW	0172H
	DW	012H
	DW	0ff9aH
	DW	0ff47H
	DW	0feecH
	DW	02f3H
	DW	062aH
	DW	0537H
	DW	0fe18H
	DW	0fda5H
	DW	0fa76H
	DW	0b6H
	DW	0ffa3H
	DW	0366H
	DW	0ffb7H
	DW	0fe36H
	DW	0fea4H
	DW	0343H
	DW	035eH
	DW	03bdH
	DW	0fee6H
	DW	0feb3H
	DW	0fd16H
	DW	0223H
	DW	0347H
	DW	01acH
	DW	0111H
	DW	0ffa7H
	DW	0dH
	DW	03acH
	DW	06acH
	DW	0a10H
	DW	0fe5eH
	DW	0fbc4H
	DW	0f922H
	DW	0ffd4H
	DW	0fe9aH
	DW	0103H
	DW	0fe0fH
	DW	0fd7dH
	DW	0fdd0H
	DW	063H
	DW	022dH
	DW	03c1H
	DW	0fe5bH
	DW	0fd02H
	DW	0fc6bH
	DW	0127H
	DW	0146H
	DW	0b8H
	DW	0afH
	DW	0fH
	DW	0fd8eH
	DW	0214H
	DW	036eH
	DW	07bdH
	DW	0fe45H
	DW	0fd00H
	DW	0fb05H
	DW	0ddH
	DW	09cH
	DW	010cH
	DW	027H
	DW	0fe95H
	DW	0fe07H
	DW	02b7H
	DW	0304H
	DW	0474H
	DW	0ff5eH
	DW	0fe35H
	DW	0fc70H
	DW	02c5H
	DW	01bcH
	DW	0292H
	DW	019H
	DW	012fH
	DW	0fec8H
	DW	04f4H
	DW	0582H
	DW	06b3H
	DW	0fed7H
	DW	0fd02H
	DW	0f8d4H
	DW	0fef9H
	DW	0ff94H
	DW	042eH
	DW	0fe6aH
	DW	0fff3H
	DW	0ff7fH
	DW	039H
	DW	01b6H
	DW	0aaeH
	DW	0fe8aH
	DW	0fe19H
	DW	0fcbdH
	DW	0130H
	DW	02b8H
	DW	0a4H
	DW	068H
	DW	0ff15H
	DW	05H
	DW	064bH
	DW	076cH
	DW	0577H
	DW	0ff1bH
	DW	0fdbaH
	DW	0fad3H
	DW	0195H
	DW	0c0H
	DW	0331H
	DW	0ffa9H
	DW	0fe4aH
	DW	06fH
	DW	0404H
	DW	04afH
	DW	03e1H
	DW	044H
	DW	0ff51H
	DW	0fc5aH
	DW	0409H
	DW	045dH
	DW	01c3H
	DW	01deH
	DW	0c8H
	DW	0ff08H
	DW	084fH
	DW	0a88H
	DW	07faH
	DW	0fcbdH
	DW	0fad5H
	DW	0f7adH
	DW	0fce1H
	DW	0fd4cH
	DW	01d2H
	DW	0fcd4H
	DW	0fbf8H
	DW	0fe2bH
	DW	0fd92H
	DW	0120H
	DW	0398H
	DW	0fd43H
	DW	0fcb7H
	DW	0fbd2H
	DW	0fe65H
	DW	0200H
	DW	08H
	DW	0fe7aH
	DW	0ffa5H
	DW	0fd18H
	DW	0ffe2H
	DW	0413H
	DW	0489H
	DW	0fccaH
	DW	0fb84H
	DW	0fb7cH
	DW	0fedaH
	DW	0ffd2H
	DW	06eH
	DW	0fe65H
	DW	0fe8aH
	DW	0fd5aH
	DW	0d6H
	DW	0213H
	DW	029cH
	DW	0fe6aH
	DW	0fe5cH
	DW	0fb56H
	DW	01e7H
	DW	0e8H
	DW	012fH
	DW	0fec2H
	DW	05bH
	DW	0fe28H
	DW	07bH
	DW	04d0H
	DW	098dH
	DW	0fd2eH
	DW	0fc48H
	DW	0fa29H
	DW	0fd1eH
	DW	0fd5dH
	DW	0534H
	DW	0fde1H
	DW	0fda2H
	DW	0ff2dH
	DW	0ffa1H
	DW	0ff9eH
	DW	05e4H
	DW	0fddbH
	DW	0fdfeH
	DW	0fb57H
	DW	01d9H
	DW	0d3H
	DW	049H
	DW	0fee0H
	DW	0ff90H
	DW	0fe7bH
	DW	0219H
	DW	0534H
	DW	04eaH
	DW	0fdc9H
	DW	0fd0dH
	DW	0f9f7H
	DW	047H
	DW	0fee5H
	DW	0278H
	DW	0ff56H
	DW	0fe1fH
	DW	0fe13H
	DW	02a9H
	DW	03eaH
	DW	0331H
	DW	0fe9cH
	DW	0feb5H
	DW	0fc93H
	DW	01a3H
	DW	02c2H
	DW	015aH
	DW	0f1H
	DW	0ffdeH
	DW	0febaH
	DW	0179H
	DW	079eH
	DW	075bH
	DW	0fd29H
	DW	0fbcdH
	DW	0f9a7H
	DW	0ff17H
	DW	0fde1H
	DW	074H
	DW	0fdf4H
	DW	0fcdaH
	DW	0fdb7H
	DW	0ffb7H
	DW	01deH
	DW	02d9H
	DW	0fee0H
	DW	0fc63H
	DW	0fb89H
	DW	0adH
	DW	01bfH
	DW	0ffccH
	DW	044H
	DW	0ff1bH
	DW	0fda2H
	DW	01c1H
	DW	0211H
	DW	0705H
	DW	0fdb1H
	DW	0fc95H
	DW	0faadH
	DW	0b7H
	DW	0ff70H
	DW	0144H
	DW	0ff99H
	DW	0fe3cH
	DW	0fd66H
	DW	026fH
	DW	01e8H
	DW	0498H
	DW	0ff12H
	DW	0fe01H
	DW	0fc14H
	DW	0146H
	DW	0228H
	DW	01caH
	DW	088H
	DW	06cH
	DW	0fec1H
	DW	0272H
	DW	053fH
	DW	075bH
	DW	0fe16H
	DW	0fd7aH
	DW	0f93eH
	DW	0ff46H
	DW	0fe3fH
	DW	03d8H
	DW	0fd1eH
	DW	0ffb4H
	DW	0ff56H
	DW	0fddaH
	DW	02f3H
	DW	0a00H
	DW	0fe10H
	DW	0fe02H
	DW	0fc4dH
	DW	0d2H
	DW	02b6H
	DW	0ffccH
	DW	054H
	DW	0febeH
	DW	0ff39H
	DW	0442H
	DW	0659H
	DW	04c8H
	DW	0fe88H
	DW	0fda5H
	DW	0fa8cH
	DW	0157H
	DW	04aH
	DW	0278H
	DW	0ff51H
	DW	0fe0aH
	DW	0ffe0H
	DW	03ccH
	DW	0534H
	DW	02deH
	DW	034H
	DW	0fed9H
	DW	0fba7H
	DW	0429H
	DW	0396H
	DW	0a0H
	DW	0189H
	DW	06bH
	DW	0fe73H
	DW	04beH
	DW	0a59H
	DW	06cdH
	DW	0fd88H
	DW	0fb4fH
	DW	0f89dH
	DW	0fd31H
	DW	0feebH
	DW	0161H
	DW	0fd75H
	DW	0fc90H
	DW	0ff86H
	DW	0ff2dH
	DW	0d1H
	DW	053aH
	DW	0fdceH
	DW	0fd36H
	DW	0fbddH
	DW	0ff30H
	DW	0184H
	DW	09fH
	DW	0fec0H
	DW	0ffc3H
	DW	0fdd9H
	DW	0125H
	DW	0444H
	DW	05a3H
	DW	0fd78H
	DW	0fc9fH
	DW	0fb1bH
	DW	0ffcfH
	DW	0ff71H
	DW	0131H
	DW	0fe6fH
	DW	0ff1dH
	DW	0fdb7H
	DW	0231H
	DW	0214H
	DW	039fH
	DW	0ff8bH
	DW	0fe45H
	DW	0fb5cH
	DW	01fbH
	DW	01b4H
	DW	0124H
	DW	0ffb1H
	DW	0e9H
	DW	0fe36H
	DW	029fH
	DW	0401H
	DW	095cH
	DW	0fd87H
	DW	0fcb6H
	DW	0fa0bH
	DW	0feccH
	DW	0fee2H
	DW	0280H
	DW	0fe8bH
	DW	0fd93H
	DW	0fe69H
	DW	01a2H
	DW	0fdH
	DW	0519H
	DW	0fec5H
	DW	0fdbbH
	DW	0fb8fH
	DW	023cH
	DW	02adH
	DW	0fee7H
	DW	03dH
	DW	0ffbcH
	DW	0fe8dH
	DW	03dfH
	DW	044dH
	DW	05daH
	DW	0fe13H
	DW	0fd55H
	DW	0faaeH
	DW	0ffd1H
	DW	0a4H
	DW	02c0H
	DW	0ff00H
	DW	0fec6H
	DW	0fef4H
	DW	0277H
	DW	03b5H
	DW	041cH
	DW	0ff8aH
	DW	0fea4H
	DW	0fcbfH
	DW	044H
	DW	049cH
	DW	0238H
	DW	098H
	DW	075H
	DW	022H
	DW	0459H
	DW	076eH
	DW	08bfH
	DW	0fda7H
	DW	0fc41H
	DW	0f956H
	DW	0ff71H
	DW	0fe17H
	DW	01e0H
	DW	0feb4H
	DW	0fd71H
	DW	0fdc2H
	DW	036H
	DW	0161H
	DW	04a8H
	DW	0fe32H
	DW	0fd74H
	DW	0fce4H
	DW	096H
	DW	0225H
	DW	070H
	DW	0c3H
	DW	0ff91H
	DW	0fdfdH
	DW	02a7H
	DW	0454H
	DW	066fH
	DW	0fdd2H
	DW	0fd13H
	DW	0fb3fH
	DW	0fff7H
	DW	0110H
	DW	0155H
	DW	0ffcbH
	DW	0fef7H
	DW	0fde9H
	DW	01e9H
	DW	034bH
	DW	0512H
	DW	0ff88H
	DW	0fe1eH
	DW	0fbf8H
	DW	0278H
	DW	021fH
	DW	0198H
	DW	0b3H
	DW	0132H
	DW	0fdf2H
	DW	0464H
	DW	05b8H
	DW	08c4H
	DW	0fe5fH
	DW	0fceeH
	DW	0f9e6H
	DW	0ff20H
	DW	0fe80H
	DW	0554H
	DW	0fe87H
	DW	0fe35H
	DW	0ffe7H
	DW	0181H
	DW	01e9H
	DW	087eH
	DW	0feb4H
	DW	0fd75H
	DW	0fcc3H
	DW	0220H
	DW	0229H
	DW	03dH
	DW	016H
	DW	0ff8fH
	DW	0ffa7H
	DW	0468H
	DW	06bdH
	DW	05f4H
	DW	0ff28H
	DW	0fe8bH
	DW	0f98bH
	DW	0a1H
	DW	013cH
	DW	038cH
	DW	0ff5bH
	DW	0ff22H
	DW	0ffbdH
	DW	0552H
	DW	0497H
	DW	0315H
	DW	049H
	DW	0ff04H
	DW	0fd01H
	DW	02e2H
	DW	03a4H
	DW	0268H
	DW	016aH
	DW	0f6H
	DW	0ff82H
	DW	0313H
	DW	0a5eH
	DW	0bd3H
	DW	0fd4dH
	DW	0fbaeH
	DW	0f772H
	DW	0fdcbH
	DW	0fdb4H
	DW	020cH
	DW	0fdb2H
	DW	0fc2dH
	DW	0fe16H
	DW	0fef9H
	DW	018dH
	DW	03d6H
	DW	0fdbfH
	DW	0fcbbH
	DW	0fc4fH
	DW	0ffeaH
	DW	01b3H
	DW	0ffcfH
	DW	0ff42H
	DW	0ff8aH
	DW	0fd8bH
	DW	0ffa8H
	DW	04d8H
	DW	05e9H
	DW	0fd84H
	DW	0fbe5H
	DW	0fc05H
	DW	0feddH
	DW	0bdH
	DW	0103H
	DW	0feffH
	DW	0fe2aH
	DW	0fd8bH
	DW	091H
	DW	03b1H
	DW	037eH
	DW	0febaH
	DW	0fe94H
	DW	0fbbaH
	DW	021fH
	DW	0104H
	DW	0276H
	DW	0ff36H
	DW	0bdH
	DW	0ff2fH
	DW	0165H
	DW	0563H
	DW	082bH
	DW	0fdc7H
	DW	0fbcdH
	DW	0fa57H
	DW	0fd36H
	DW	0ff11H
	DW	0397H
	DW	0fe5cH
	DW	0fd3fH
	DW	0ffacH
	DW	0ff93H
	DW	0ff8eH
	DW	0967H
	DW	0fe63H
	DW	0fdefH
	DW	0fb67H
	DW	01e2H
	DW	0170H
	DW	083H
	DW	0ff46H
	DW	0ffb8H
	DW	0ff7dH
	DW	035dH
	DW	04e7H
	DW	04c4H
	DW	0fd9dH
	DW	0fd6eH
	DW	0fac3H
	DW	0e3H
	DW	0ff87H
	DW	0277H
	DW	0ff50H
	DW	0fe17H
	DW	0ff26H
	DW	02e9H
	DW	0497H
	DW	03bdH
	DW	0febfH
	DW	0ff6cH
	DW	0fc58H
	DW	029fH
	DW	03c6H
	DW	0d8H
	DW	0154H
	DW	0fffdH
	DW	0ff71H
	DW	01d5H
	DW	0738H
	DW	0985H
	DW	0fd27H
	DW	0fc3fH
	DW	0f96dH
	DW	0ff2bH
	DW	0ff02H
	DW	0141H
	DW	0fe01H
	DW	0fe4aH
	DW	0fdf7H
	DW	0ff82H
	DW	02d5H
	DW	0387H
	DW	0feacH
	DW	0fd53H
	DW	0fbf8H
	DW	013cH
	DW	01e0H
	DW	014H
	DW	017H
	DW	0ffa7H
	DW	0fdd9H
	DW	0161H
	DW	041bH
	DW	06fdH
	DW	0fde0H
	DW	0fd0bH
	DW	0faacH
	DW	012aH
	DW	0ffe7H
	DW	01b4H
	DW	0ff9cH
	DW	0fe78H
	DW	0fdf9H
	DW	01d3H
	DW	02f2H
	DW	0436H
	DW	0ff2eH
	DW	0fe72H
	DW	0fbcaH
	DW	026cH
	DW	0292H
	DW	0276H
	DW	021H
	DW	093H
	DW	0ff4eH
	DW	0399H
	DW	0697H
	DW	0781H
	DW	0febbH
	DW	0fdf0H
	DW	0f846H
	DW	02H
	DW	0fee3H
	DW	038eH
	DW	0fe8dH
	DW	0fe16H
	DW	0ff1aH
	DW	00H
	DW	0255H
	DW	07daH
	DW	0fe10H
	DW	0fe75H
	DW	0fcbeH
	DW	025H
	DW	03b1H
	DW	0f5H
	DW	0b5H
	DW	0ff60H
	DW	0ff70H
	DW	05c9H
	DW	055dH
	DW	054dH
	DW	0fe9dH
	DW	0fda7H
	DW	0fb0aH
	DW	012aH
	DW	0142H
	DW	02a0H
	DW	0ff3fH
	DW	0feb0H
	DW	04dH
	DW	0441H
	DW	05fdH
	DW	039aH
	DW	0b1H
	DW	0ffd9H
	DW	0fb9bH
	DW	03e4H
	DW	030dH
	DW	0218H
	DW	01c8H
	DW	016eH
	DW	0fe50H
	DW	0587H
	DW	0988H
	DW	08e7H
	DW	0fe2eH
	DW	0fd0aH
	DW	0f6ebH
	DW	0fed1H
	DW	0fe03H
	DW	0183H
	DW	0fd29H
	DW	0fdd3H
	DW	042H
	DW	0ff6fH
	DW	0283H
	DW	04e0H
	DW	0fde0H
	DW	0fd5cH
	DW	0fc6cH
	DW	0ff1fH
	DW	035eH
	DW	024cH
	DW	0ff68H
	DW	028H
	DW	0fdebH
	DW	01a7H
	DW	058fH
	DW	0616H
	DW	0fdc4H
	DW	0fcb5H
	DW	0fb87H
	DW	0ff80H
	DW	055H
	DW	01cdH
	DW	0ff12H
	DW	0feffH
	DW	0fdb8H
	DW	025dH
	DW	02ecH
	DW	035dH
	DW	018H
	DW	0ff36H
	DW	0fa7fH
	DW	031dH
	DW	01e7H
	DW	012fH
	DW	0ff4bH
	DW	016cH
	DW	0ff4aH
	DW	0268H
	DW	0562H
	DW	0b7eH
	DW	0fe12H
	DW	0fcacH
	DW	0fa5fH
	DW	0fedcH
	DW	03dH
	DW	032cH
	DW	0ffacH
	DW	0fd2dH
	DW	0ff4aH
	DW	022bH
	DW	0214H
	DW	05e2H
	DW	0fe93H
	DW	0fe13H
	DW	0fbdfH
	DW	0336H
	DW	024cH
	DW	0bH
	DW	0fff2H
	DW	0ffeeH
	DW	0ff1aH
	DW	03e9H
	DW	0579H
	DW	05abH
	DW	0fe26H
	DW	0fdc7H
	DW	0faf4H
	DW	012eH
	DW	03eH
	DW	0426H
	DW	0ffbaH
	DW	0fe88H
	DW	0ff22H
	DW	03d6H
	DW	03ceH
	DW	047dH
	DW	0ff3cH
	DW	0ff16H
	DW	0fce5H
	DW	01dfH
	DW	044aH
	DW	01f3H
	DW	016aH
	DW	03aH
	DW	046H
	DW	047bH
	DW	0815H
	DW	0b29H
	DW	0fe19H
	DW	0fc92H
	DW	0f8e0H
	DW	049H
	DW	0fee0H
	DW	015cH
	DW	0fe9aH
	DW	0fe0cH
	DW	0fe04H
	DW	0c7H
	DW	02d1H
	DW	04daH
	DW	0ffb2H
	DW	0fd47H
	DW	0fce5H
	DW	0169H
	DW	0218H
	DW	0c4H
	DW	0176H
	DW	06eH
	DW	0fd21H
	DW	034fH
	DW	041bH
	DW	0768H
	DW	0fe92H
	DW	0fd37H
	DW	0fb62H
	DW	013bH
	DW	0140H
	DW	01adH
	DW	048H
	DW	0ff29H
	DW	0fe3eH
	DW	02f7H
	DW	0376H
	DW	0553H
	DW	0ffe2H
	DW	0fe54H
	DW	0fcbeH
	DW	035dH
	DW	0273H
	DW	031cH
	DW	076H
	DW	01d4H
	DW	0fee9H
	DW	054bH
	DW	075bH
	DW	0765H
	DW	0ff44H
	DW	0fd7eH
	DW	0f9b4H
	DW	03fH
	DW	0ff51H
	DW	04aeH
	DW	0fe5eH
	DW	0ff2dH
	DW	033H
	DW	019eH
	DW	024bH
	DW	0a29H
	DW	0ff16H
	DW	0fdd3H
	DW	0fca6H
	DW	01a8H
	DW	0379H
	DW	0deH
	DW	088H
	DW	0ff9bH
	DW	053H
	DW	0585H
	DW	08e6H
	DW	0567H
	DW	0ffacH
	DW	0fe43H
	DW	0fa93H
	DW	019eH
	DW	0139H
	DW	0415H
	DW	01dH
	DW	0fea9H
	DW	041H
	DW	0610H
	DW	066fH
	DW	03d4H
	DW	0b7H
	DW	0ffa5H
	DW	0fcc3H
	DW	04f9H
	DW	0585H
	DW	0168H
	DW	0229H
	DW	0110H
	DW	0ff95H
	DW	0633H
	DW	0c4dH
	DW	0a2bH
_DATA	ENDS
CONST	SEGMENT
_q_plsf_3_id DB	'@(#)$Id $$Id $', 00H
CONST	ENDS
PUBLIC	_Q_plsf_3
EXTRN	_add:PROC
EXTRN	_sub:PROC
EXTRN	_shl:PROC
EXTRN	_mult:PROC
EXTRN	_L_mult:PROC
EXTRN	_L_mac:PROC
EXTRN	_L_sub:PROC
EXTRN	_move16:PROC
EXTRN	_move32:PROC
EXTRN	_test:PROC
EXTRN	_Lsf_lsp:PROC
EXTRN	_Lsp_lsf:PROC
EXTRN	_Reorder_lsf:PROC
EXTRN	_Lsf_wt:PROC
EXTRN	_Copy:PROC
EXTRN	@_RTC_CheckStackVars@8:PROC
EXTRN	@__security_check_cookie@4:PROC
EXTRN	__RTC_CheckEsp:PROC
EXTRN	__RTC_InitBase:PROC
EXTRN	__RTC_Shutdown:PROC
EXTRN	___security_cookie:DWORD
;	COMDAT rtc$TMZ
rtc$TMZ	SEGMENT
__RTC_Shutdown.rtc$TMZ DD FLAT:__RTC_Shutdown
rtc$TMZ	ENDS
;	COMDAT rtc$IMZ
rtc$IMZ	SEGMENT
__RTC_InitBase.rtc$IMZ DD FLAT:__RTC_InitBase
rtc$IMZ	ENDS
; Function compile flags: /Odtp /RTCsu /ZI
; File e:\mywork\client\pc2.0trunk\pc2.0\third_party\libamrplayer\amr\q_plsf_3.c
;	COMDAT _Vq_subvec3
_TEXT	SEGMENT
tv198 = -266						; size = 2
tv182 = -266						; size = 2
tv167 = -266						; size = 2
tv134 = -266						; size = 2
tv86 = -266						; size = 2
tv71 = -266						; size = 2
_dist$ = -68						; size = 4
_dist_min$ = -56					; size = 4
_temp$ = -44						; size = 2
_p_dico$ = -32						; size = 4
_index$ = -20						; size = 2
_i$ = -8						; size = 2
_lsf_r1$ = 8						; size = 4
_dico$ = 12						; size = 4
_wf1$ = 16						; size = 4
_dico_size$ = 20					; size = 2
_use_half$ = 24						; size = 4
_Vq_subvec3 PROC					; COMDAT

; 116  : {

  00000	55		 push	 ebp
  00001	8b ec		 mov	 ebp, esp
  00003	81 ec 0c 01 00
	00		 sub	 esp, 268		; 0000010cH
  00009	53		 push	 ebx
  0000a	56		 push	 esi
  0000b	57		 push	 edi
  0000c	8d bd f4 fe ff
	ff		 lea	 edi, DWORD PTR [ebp-268]
  00012	b9 43 00 00 00	 mov	 ecx, 67			; 00000043H
  00017	b8 cc cc cc cc	 mov	 eax, -858993460		; ccccccccH
  0001c	f3 ab		 rep stosd

; 117  :     Word16 i, index = 0;

  0001e	33 c0		 xor	 eax, eax
  00020	66 89 45 ec	 mov	 WORD PTR _index$[ebp], ax

; 118  :     Word16 *p_dico, temp;
; 119  :     Word32 dist_min, dist;
; 120  : 
; 121  :     dist_min = MAX_32;                                             move32 ();

  00024	c7 45 c8 ff ff
	ff 7f		 mov	 DWORD PTR _dist_min$[ebp], 2147483647 ; 7fffffffH
  0002b	e8 00 00 00 00	 call	 _move32

; 122  :     p_dico = dico;                                                 move16 ();

  00030	8b 45 0c	 mov	 eax, DWORD PTR _dico$[ebp]
  00033	89 45 e0	 mov	 DWORD PTR _p_dico$[ebp], eax
  00036	e8 00 00 00 00	 call	 _move16

; 123  : 
; 124  :     test ();

  0003b	e8 00 00 00 00	 call	 _test

; 125  :     if (use_half == 0) {

  00040	83 7d 18 00	 cmp	 DWORD PTR _use_half$[ebp], 0
  00044	0f 85 e9 01 00
	00		 jne	 $LN10@Vq_subvec3

; 126  :        for (i = 0; i < dico_size; i++)

  0004a	33 c0		 xor	 eax, eax
  0004c	66 89 45 f8	 mov	 WORD PTR _i$[ebp], ax
  00050	eb 0c		 jmp	 SHORT $LN9@Vq_subvec3
$LN8@Vq_subvec3:
  00052	66 8b 45 f8	 mov	 ax, WORD PTR _i$[ebp]
  00056	66 83 c0 01	 add	 ax, 1
  0005a	66 89 45 f8	 mov	 WORD PTR _i$[ebp], ax
$LN9@Vq_subvec3:
  0005e	0f bf 45 f8	 movsx	 eax, WORD PTR _i$[ebp]
  00062	0f bf 4d 14	 movsx	 ecx, WORD PTR _dico_size$[ebp]
  00066	3b c1		 cmp	 eax, ecx
  00068	0f 8d 8c 01 00
	00		 jge	 $LN7@Vq_subvec3

; 127  :        {
; 128  :           temp = sub(lsf_r1[0], *p_dico++);

  0006e	8b 45 e0	 mov	 eax, DWORD PTR _p_dico$[ebp]
  00071	66 8b 08	 mov	 cx, WORD PTR [eax]
  00074	66 89 8d f6 fe
	ff ff		 mov	 WORD PTR tv71[ebp], cx
  0007b	8b 55 e0	 mov	 edx, DWORD PTR _p_dico$[ebp]
  0007e	83 c2 02	 add	 edx, 2
  00081	89 55 e0	 mov	 DWORD PTR _p_dico$[ebp], edx
  00084	0f b7 85 f6 fe
	ff ff		 movzx	 eax, WORD PTR tv71[ebp]
  0008b	50		 push	 eax
  0008c	b9 02 00 00 00	 mov	 ecx, 2
  00091	6b d1 00	 imul	 edx, ecx, 0
  00094	8b 45 08	 mov	 eax, DWORD PTR _lsf_r1$[ebp]
  00097	0f b7 0c 10	 movzx	 ecx, WORD PTR [eax+edx]
  0009b	51		 push	 ecx
  0009c	e8 00 00 00 00	 call	 _sub
  000a1	83 c4 08	 add	 esp, 8
  000a4	66 89 45 d4	 mov	 WORD PTR _temp$[ebp], ax

; 129  :           temp = mult(wf1[0], temp);

  000a8	0f b7 45 d4	 movzx	 eax, WORD PTR _temp$[ebp]
  000ac	50		 push	 eax
  000ad	b9 02 00 00 00	 mov	 ecx, 2
  000b2	6b d1 00	 imul	 edx, ecx, 0
  000b5	8b 45 10	 mov	 eax, DWORD PTR _wf1$[ebp]
  000b8	0f b7 0c 10	 movzx	 ecx, WORD PTR [eax+edx]
  000bc	51		 push	 ecx
  000bd	e8 00 00 00 00	 call	 _mult
  000c2	83 c4 08	 add	 esp, 8
  000c5	66 89 45 d4	 mov	 WORD PTR _temp$[ebp], ax

; 130  :           dist = L_mult(temp, temp);

  000c9	0f b7 45 d4	 movzx	 eax, WORD PTR _temp$[ebp]
  000cd	50		 push	 eax
  000ce	0f b7 4d d4	 movzx	 ecx, WORD PTR _temp$[ebp]
  000d2	51		 push	 ecx
  000d3	e8 00 00 00 00	 call	 _L_mult
  000d8	83 c4 08	 add	 esp, 8
  000db	89 45 bc	 mov	 DWORD PTR _dist$[ebp], eax

; 131  :           
; 132  :           temp = sub(lsf_r1[1], *p_dico++);

  000de	8b 45 e0	 mov	 eax, DWORD PTR _p_dico$[ebp]
  000e1	66 8b 08	 mov	 cx, WORD PTR [eax]
  000e4	66 89 8d f6 fe
	ff ff		 mov	 WORD PTR tv86[ebp], cx
  000eb	8b 55 e0	 mov	 edx, DWORD PTR _p_dico$[ebp]
  000ee	83 c2 02	 add	 edx, 2
  000f1	89 55 e0	 mov	 DWORD PTR _p_dico$[ebp], edx
  000f4	0f b7 85 f6 fe
	ff ff		 movzx	 eax, WORD PTR tv86[ebp]
  000fb	50		 push	 eax
  000fc	b9 02 00 00 00	 mov	 ecx, 2
  00101	c1 e1 00	 shl	 ecx, 0
  00104	8b 55 08	 mov	 edx, DWORD PTR _lsf_r1$[ebp]
  00107	0f b7 04 0a	 movzx	 eax, WORD PTR [edx+ecx]
  0010b	50		 push	 eax
  0010c	e8 00 00 00 00	 call	 _sub
  00111	83 c4 08	 add	 esp, 8
  00114	66 89 45 d4	 mov	 WORD PTR _temp$[ebp], ax

; 133  :           temp = mult(wf1[1], temp);

  00118	0f b7 45 d4	 movzx	 eax, WORD PTR _temp$[ebp]
  0011c	50		 push	 eax
  0011d	b9 02 00 00 00	 mov	 ecx, 2
  00122	c1 e1 00	 shl	 ecx, 0
  00125	8b 55 10	 mov	 edx, DWORD PTR _wf1$[ebp]
  00128	0f b7 04 0a	 movzx	 eax, WORD PTR [edx+ecx]
  0012c	50		 push	 eax
  0012d	e8 00 00 00 00	 call	 _mult
  00132	83 c4 08	 add	 esp, 8
  00135	66 89 45 d4	 mov	 WORD PTR _temp$[ebp], ax

; 134  :           dist = L_mac(dist, temp, temp);

  00139	0f b7 45 d4	 movzx	 eax, WORD PTR _temp$[ebp]
  0013d	50		 push	 eax
  0013e	0f b7 4d d4	 movzx	 ecx, WORD PTR _temp$[ebp]
  00142	51		 push	 ecx
  00143	8b 55 bc	 mov	 edx, DWORD PTR _dist$[ebp]
  00146	52		 push	 edx
  00147	e8 00 00 00 00	 call	 _L_mac
  0014c	83 c4 0c	 add	 esp, 12			; 0000000cH
  0014f	89 45 bc	 mov	 DWORD PTR _dist$[ebp], eax

; 135  :           
; 136  :           temp = sub(lsf_r1[2], *p_dico++);

  00152	8b 45 e0	 mov	 eax, DWORD PTR _p_dico$[ebp]
  00155	66 8b 08	 mov	 cx, WORD PTR [eax]
  00158	66 89 8d f6 fe
	ff ff		 mov	 WORD PTR tv134[ebp], cx
  0015f	8b 55 e0	 mov	 edx, DWORD PTR _p_dico$[ebp]
  00162	83 c2 02	 add	 edx, 2
  00165	89 55 e0	 mov	 DWORD PTR _p_dico$[ebp], edx
  00168	0f b7 85 f6 fe
	ff ff		 movzx	 eax, WORD PTR tv134[ebp]
  0016f	50		 push	 eax
  00170	b9 02 00 00 00	 mov	 ecx, 2
  00175	d1 e1		 shl	 ecx, 1
  00177	8b 55 08	 mov	 edx, DWORD PTR _lsf_r1$[ebp]
  0017a	0f b7 04 0a	 movzx	 eax, WORD PTR [edx+ecx]
  0017e	50		 push	 eax
  0017f	e8 00 00 00 00	 call	 _sub
  00184	83 c4 08	 add	 esp, 8
  00187	66 89 45 d4	 mov	 WORD PTR _temp$[ebp], ax

; 137  :           temp = mult(wf1[2], temp);

  0018b	0f b7 45 d4	 movzx	 eax, WORD PTR _temp$[ebp]
  0018f	50		 push	 eax
  00190	b9 02 00 00 00	 mov	 ecx, 2
  00195	d1 e1		 shl	 ecx, 1
  00197	8b 55 10	 mov	 edx, DWORD PTR _wf1$[ebp]
  0019a	0f b7 04 0a	 movzx	 eax, WORD PTR [edx+ecx]
  0019e	50		 push	 eax
  0019f	e8 00 00 00 00	 call	 _mult
  001a4	83 c4 08	 add	 esp, 8
  001a7	66 89 45 d4	 mov	 WORD PTR _temp$[ebp], ax

; 138  :           dist = L_mac(dist, temp, temp);

  001ab	0f b7 45 d4	 movzx	 eax, WORD PTR _temp$[ebp]
  001af	50		 push	 eax
  001b0	0f b7 4d d4	 movzx	 ecx, WORD PTR _temp$[ebp]
  001b4	51		 push	 ecx
  001b5	8b 55 bc	 mov	 edx, DWORD PTR _dist$[ebp]
  001b8	52		 push	 edx
  001b9	e8 00 00 00 00	 call	 _L_mac
  001be	83 c4 0c	 add	 esp, 12			; 0000000cH
  001c1	89 45 bc	 mov	 DWORD PTR _dist$[ebp], eax

; 139  : 
; 140  :           test ();

  001c4	e8 00 00 00 00	 call	 _test

; 141  :           if (L_sub(dist, dist_min) < (Word32) 0) {

  001c9	8b 45 c8	 mov	 eax, DWORD PTR _dist_min$[ebp]
  001cc	50		 push	 eax
  001cd	8b 4d bc	 mov	 ecx, DWORD PTR _dist$[ebp]
  001d0	51		 push	 ecx
  001d1	e8 00 00 00 00	 call	 _L_sub
  001d6	83 c4 08	 add	 esp, 8
  001d9	85 c0		 test	 eax, eax
  001db	7d 18		 jge	 SHORT $LN6@Vq_subvec3

; 142  :              dist_min = dist;                                   move32 ();

  001dd	8b 45 bc	 mov	 eax, DWORD PTR _dist$[ebp]
  001e0	89 45 c8	 mov	 DWORD PTR _dist_min$[ebp], eax
  001e3	e8 00 00 00 00	 call	 _move32

; 143  :              index = i;                                         move16 ();

  001e8	66 8b 45 f8	 mov	 ax, WORD PTR _i$[ebp]
  001ec	66 89 45 ec	 mov	 WORD PTR _index$[ebp], ax
  001f0	e8 00 00 00 00	 call	 _move16
$LN6@Vq_subvec3:

; 144  :           }
; 145  :        }

  001f5	e9 58 fe ff ff	 jmp	 $LN8@Vq_subvec3
$LN7@Vq_subvec3:

; 146  :        p_dico = &dico[add(index, add(index, index))];             move16 ();

  001fa	0f b7 45 ec	 movzx	 eax, WORD PTR _index$[ebp]
  001fe	50		 push	 eax
  001ff	0f b7 4d ec	 movzx	 ecx, WORD PTR _index$[ebp]
  00203	51		 push	 ecx
  00204	e8 00 00 00 00	 call	 _add
  00209	83 c4 08	 add	 esp, 8
  0020c	0f b7 d0	 movzx	 edx, ax
  0020f	52		 push	 edx
  00210	0f b7 45 ec	 movzx	 eax, WORD PTR _index$[ebp]
  00214	50		 push	 eax
  00215	e8 00 00 00 00	 call	 _add
  0021a	83 c4 08	 add	 esp, 8
  0021d	0f bf c8	 movsx	 ecx, ax
  00220	8b 55 0c	 mov	 edx, DWORD PTR _dico$[ebp]
  00223	8d 04 4a	 lea	 eax, DWORD PTR [edx+ecx*2]
  00226	89 45 e0	 mov	 DWORD PTR _p_dico$[ebp], eax
  00229	e8 00 00 00 00	 call	 _move16

; 147  :     }
; 148  :     else

  0022e	e9 07 02 00 00	 jmp	 $LN5@Vq_subvec3
$LN10@Vq_subvec3:

; 149  :     {
; 150  :        for (i = 0; i < dico_size; i++)

  00233	33 c0		 xor	 eax, eax
  00235	66 89 45 f8	 mov	 WORD PTR _i$[ebp], ax
  00239	eb 0c		 jmp	 SHORT $LN4@Vq_subvec3
$LN3@Vq_subvec3:
  0023b	66 8b 45 f8	 mov	 ax, WORD PTR _i$[ebp]
  0023f	66 83 c0 01	 add	 ax, 1
  00243	66 89 45 f8	 mov	 WORD PTR _i$[ebp], ax
$LN4@Vq_subvec3:
  00247	0f bf 45 f8	 movsx	 eax, WORD PTR _i$[ebp]
  0024b	0f bf 4d 14	 movsx	 ecx, WORD PTR _dico_size$[ebp]
  0024f	3b c1		 cmp	 eax, ecx
  00251	0f 8d a1 01 00
	00		 jge	 $LN2@Vq_subvec3

; 151  :        {
; 152  :           temp = sub(lsf_r1[0], *p_dico++);

  00257	8b 45 e0	 mov	 eax, DWORD PTR _p_dico$[ebp]
  0025a	66 8b 08	 mov	 cx, WORD PTR [eax]
  0025d	66 89 8d f6 fe
	ff ff		 mov	 WORD PTR tv167[ebp], cx
  00264	8b 55 e0	 mov	 edx, DWORD PTR _p_dico$[ebp]
  00267	83 c2 02	 add	 edx, 2
  0026a	89 55 e0	 mov	 DWORD PTR _p_dico$[ebp], edx
  0026d	0f b7 85 f6 fe
	ff ff		 movzx	 eax, WORD PTR tv167[ebp]
  00274	50		 push	 eax
  00275	b9 02 00 00 00	 mov	 ecx, 2
  0027a	6b d1 00	 imul	 edx, ecx, 0
  0027d	8b 45 08	 mov	 eax, DWORD PTR _lsf_r1$[ebp]
  00280	0f b7 0c 10	 movzx	 ecx, WORD PTR [eax+edx]
  00284	51		 push	 ecx
  00285	e8 00 00 00 00	 call	 _sub
  0028a	83 c4 08	 add	 esp, 8
  0028d	66 89 45 d4	 mov	 WORD PTR _temp$[ebp], ax

; 153  :           temp = mult(wf1[0], temp);

  00291	0f b7 45 d4	 movzx	 eax, WORD PTR _temp$[ebp]
  00295	50		 push	 eax
  00296	b9 02 00 00 00	 mov	 ecx, 2
  0029b	6b d1 00	 imul	 edx, ecx, 0
  0029e	8b 45 10	 mov	 eax, DWORD PTR _wf1$[ebp]
  002a1	0f b7 0c 10	 movzx	 ecx, WORD PTR [eax+edx]
  002a5	51		 push	 ecx
  002a6	e8 00 00 00 00	 call	 _mult
  002ab	83 c4 08	 add	 esp, 8
  002ae	66 89 45 d4	 mov	 WORD PTR _temp$[ebp], ax

; 154  :           dist = L_mult(temp, temp);

  002b2	0f b7 45 d4	 movzx	 eax, WORD PTR _temp$[ebp]
  002b6	50		 push	 eax
  002b7	0f b7 4d d4	 movzx	 ecx, WORD PTR _temp$[ebp]
  002bb	51		 push	 ecx
  002bc	e8 00 00 00 00	 call	 _L_mult
  002c1	83 c4 08	 add	 esp, 8
  002c4	89 45 bc	 mov	 DWORD PTR _dist$[ebp], eax

; 155  : 
; 156  :           temp = sub(lsf_r1[1], *p_dico++);

  002c7	8b 45 e0	 mov	 eax, DWORD PTR _p_dico$[ebp]
  002ca	66 8b 08	 mov	 cx, WORD PTR [eax]
  002cd	66 89 8d f6 fe
	ff ff		 mov	 WORD PTR tv182[ebp], cx
  002d4	8b 55 e0	 mov	 edx, DWORD PTR _p_dico$[ebp]
  002d7	83 c2 02	 add	 edx, 2
  002da	89 55 e0	 mov	 DWORD PTR _p_dico$[ebp], edx
  002dd	0f b7 85 f6 fe
	ff ff		 movzx	 eax, WORD PTR tv182[ebp]
  002e4	50		 push	 eax
  002e5	b9 02 00 00 00	 mov	 ecx, 2
  002ea	c1 e1 00	 shl	 ecx, 0
  002ed	8b 55 08	 mov	 edx, DWORD PTR _lsf_r1$[ebp]
  002f0	0f b7 04 0a	 movzx	 eax, WORD PTR [edx+ecx]
  002f4	50		 push	 eax
  002f5	e8 00 00 00 00	 call	 _sub
  002fa	83 c4 08	 add	 esp, 8
  002fd	66 89 45 d4	 mov	 WORD PTR _temp$[ebp], ax

; 157  :           temp = mult(wf1[1], temp);

  00301	0f b7 45 d4	 movzx	 eax, WORD PTR _temp$[ebp]
  00305	50		 push	 eax
  00306	b9 02 00 00 00	 mov	 ecx, 2
  0030b	c1 e1 00	 shl	 ecx, 0
  0030e	8b 55 10	 mov	 edx, DWORD PTR _wf1$[ebp]
  00311	0f b7 04 0a	 movzx	 eax, WORD PTR [edx+ecx]
  00315	50		 push	 eax
  00316	e8 00 00 00 00	 call	 _mult
  0031b	83 c4 08	 add	 esp, 8
  0031e	66 89 45 d4	 mov	 WORD PTR _temp$[ebp], ax

; 158  :           dist = L_mac(dist, temp, temp);

  00322	0f b7 45 d4	 movzx	 eax, WORD PTR _temp$[ebp]
  00326	50		 push	 eax
  00327	0f b7 4d d4	 movzx	 ecx, WORD PTR _temp$[ebp]
  0032b	51		 push	 ecx
  0032c	8b 55 bc	 mov	 edx, DWORD PTR _dist$[ebp]
  0032f	52		 push	 edx
  00330	e8 00 00 00 00	 call	 _L_mac
  00335	83 c4 0c	 add	 esp, 12			; 0000000cH
  00338	89 45 bc	 mov	 DWORD PTR _dist$[ebp], eax

; 159  :           
; 160  :           temp = sub(lsf_r1[2], *p_dico++);

  0033b	8b 45 e0	 mov	 eax, DWORD PTR _p_dico$[ebp]
  0033e	66 8b 08	 mov	 cx, WORD PTR [eax]
  00341	66 89 8d f6 fe
	ff ff		 mov	 WORD PTR tv198[ebp], cx
  00348	8b 55 e0	 mov	 edx, DWORD PTR _p_dico$[ebp]
  0034b	83 c2 02	 add	 edx, 2
  0034e	89 55 e0	 mov	 DWORD PTR _p_dico$[ebp], edx
  00351	0f b7 85 f6 fe
	ff ff		 movzx	 eax, WORD PTR tv198[ebp]
  00358	50		 push	 eax
  00359	b9 02 00 00 00	 mov	 ecx, 2
  0035e	d1 e1		 shl	 ecx, 1
  00360	8b 55 08	 mov	 edx, DWORD PTR _lsf_r1$[ebp]
  00363	0f b7 04 0a	 movzx	 eax, WORD PTR [edx+ecx]
  00367	50		 push	 eax
  00368	e8 00 00 00 00	 call	 _sub
  0036d	83 c4 08	 add	 esp, 8
  00370	66 89 45 d4	 mov	 WORD PTR _temp$[ebp], ax

; 161  :           temp = mult(wf1[2], temp);

  00374	0f b7 45 d4	 movzx	 eax, WORD PTR _temp$[ebp]
  00378	50		 push	 eax
  00379	b9 02 00 00 00	 mov	 ecx, 2
  0037e	d1 e1		 shl	 ecx, 1
  00380	8b 55 10	 mov	 edx, DWORD PTR _wf1$[ebp]
  00383	0f b7 04 0a	 movzx	 eax, WORD PTR [edx+ecx]
  00387	50		 push	 eax
  00388	e8 00 00 00 00	 call	 _mult
  0038d	83 c4 08	 add	 esp, 8
  00390	66 89 45 d4	 mov	 WORD PTR _temp$[ebp], ax

; 162  :           dist = L_mac(dist, temp, temp);

  00394	0f b7 45 d4	 movzx	 eax, WORD PTR _temp$[ebp]
  00398	50		 push	 eax
  00399	0f b7 4d d4	 movzx	 ecx, WORD PTR _temp$[ebp]
  0039d	51		 push	 ecx
  0039e	8b 55 bc	 mov	 edx, DWORD PTR _dist$[ebp]
  003a1	52		 push	 edx
  003a2	e8 00 00 00 00	 call	 _L_mac
  003a7	83 c4 0c	 add	 esp, 12			; 0000000cH
  003aa	89 45 bc	 mov	 DWORD PTR _dist$[ebp], eax

; 163  :           
; 164  :           test ();

  003ad	e8 00 00 00 00	 call	 _test

; 165  :           if (L_sub(dist, dist_min) < (Word32) 0)

  003b2	8b 45 c8	 mov	 eax, DWORD PTR _dist_min$[ebp]
  003b5	50		 push	 eax
  003b6	8b 4d bc	 mov	 ecx, DWORD PTR _dist$[ebp]
  003b9	51		 push	 ecx
  003ba	e8 00 00 00 00	 call	 _L_sub
  003bf	83 c4 08	 add	 esp, 8
  003c2	85 c0		 test	 eax, eax
  003c4	7d 18		 jge	 SHORT $LN1@Vq_subvec3

; 166  :           {
; 167  :              dist_min = dist;                                   move32 ();

  003c6	8b 45 bc	 mov	 eax, DWORD PTR _dist$[ebp]
  003c9	89 45 c8	 mov	 DWORD PTR _dist_min$[ebp], eax
  003cc	e8 00 00 00 00	 call	 _move32

; 168  :              index = i;                                         move16 ();

  003d1	66 8b 45 f8	 mov	 ax, WORD PTR _i$[ebp]
  003d5	66 89 45 ec	 mov	 WORD PTR _index$[ebp], ax
  003d9	e8 00 00 00 00	 call	 _move16
$LN1@Vq_subvec3:

; 169  :           }
; 170  :           p_dico = p_dico + 3; add(0,0);

  003de	8b 45 e0	 mov	 eax, DWORD PTR _p_dico$[ebp]
  003e1	83 c0 06	 add	 eax, 6
  003e4	89 45 e0	 mov	 DWORD PTR _p_dico$[ebp], eax
  003e7	6a 00		 push	 0
  003e9	6a 00		 push	 0
  003eb	e8 00 00 00 00	 call	 _add
  003f0	83 c4 08	 add	 esp, 8

; 171  :        }

  003f3	e9 43 fe ff ff	 jmp	 $LN3@Vq_subvec3
$LN2@Vq_subvec3:

; 172  :        p_dico = &dico[shl(add(index, add(index, index)),1)];      move16 ();

  003f8	6a 01		 push	 1
  003fa	0f b7 45 ec	 movzx	 eax, WORD PTR _index$[ebp]
  003fe	50		 push	 eax
  003ff	0f b7 4d ec	 movzx	 ecx, WORD PTR _index$[ebp]
  00403	51		 push	 ecx
  00404	e8 00 00 00 00	 call	 _add
  00409	83 c4 08	 add	 esp, 8
  0040c	0f b7 d0	 movzx	 edx, ax
  0040f	52		 push	 edx
  00410	0f b7 45 ec	 movzx	 eax, WORD PTR _index$[ebp]
  00414	50		 push	 eax
  00415	e8 00 00 00 00	 call	 _add
  0041a	83 c4 08	 add	 esp, 8
  0041d	0f b7 c8	 movzx	 ecx, ax
  00420	51		 push	 ecx
  00421	e8 00 00 00 00	 call	 _shl
  00426	83 c4 08	 add	 esp, 8
  00429	0f bf d0	 movsx	 edx, ax
  0042c	8b 45 0c	 mov	 eax, DWORD PTR _dico$[ebp]
  0042f	8d 0c 50	 lea	 ecx, DWORD PTR [eax+edx*2]
  00432	89 4d e0	 mov	 DWORD PTR _p_dico$[ebp], ecx
  00435	e8 00 00 00 00	 call	 _move16
$LN5@Vq_subvec3:

; 173  :     }
; 174  :     
; 175  : 
; 176  :     /* Reading the selected vector */
; 177  :     lsf_r1[0] = *p_dico++;                                         move16 ();

  0043a	b8 02 00 00 00	 mov	 eax, 2
  0043f	6b c8 00	 imul	 ecx, eax, 0
  00442	8b 55 08	 mov	 edx, DWORD PTR _lsf_r1$[ebp]
  00445	8b 45 e0	 mov	 eax, DWORD PTR _p_dico$[ebp]
  00448	66 8b 00	 mov	 ax, WORD PTR [eax]
  0044b	66 89 04 0a	 mov	 WORD PTR [edx+ecx], ax
  0044f	8b 4d e0	 mov	 ecx, DWORD PTR _p_dico$[ebp]
  00452	83 c1 02	 add	 ecx, 2
  00455	89 4d e0	 mov	 DWORD PTR _p_dico$[ebp], ecx
  00458	e8 00 00 00 00	 call	 _move16

; 178  :     lsf_r1[1] = *p_dico++;                                         move16 ();

  0045d	b8 02 00 00 00	 mov	 eax, 2
  00462	c1 e0 00	 shl	 eax, 0
  00465	8b 4d 08	 mov	 ecx, DWORD PTR _lsf_r1$[ebp]
  00468	8b 55 e0	 mov	 edx, DWORD PTR _p_dico$[ebp]
  0046b	66 8b 12	 mov	 dx, WORD PTR [edx]
  0046e	66 89 14 01	 mov	 WORD PTR [ecx+eax], dx
  00472	8b 45 e0	 mov	 eax, DWORD PTR _p_dico$[ebp]
  00475	83 c0 02	 add	 eax, 2
  00478	89 45 e0	 mov	 DWORD PTR _p_dico$[ebp], eax
  0047b	e8 00 00 00 00	 call	 _move16

; 179  :     lsf_r1[2] = *p_dico++;                                         move16 ();

  00480	b8 02 00 00 00	 mov	 eax, 2
  00485	d1 e0		 shl	 eax, 1
  00487	8b 4d 08	 mov	 ecx, DWORD PTR _lsf_r1$[ebp]
  0048a	8b 55 e0	 mov	 edx, DWORD PTR _p_dico$[ebp]
  0048d	66 8b 12	 mov	 dx, WORD PTR [edx]
  00490	66 89 14 01	 mov	 WORD PTR [ecx+eax], dx
  00494	8b 45 e0	 mov	 eax, DWORD PTR _p_dico$[ebp]
  00497	83 c0 02	 add	 eax, 2
  0049a	89 45 e0	 mov	 DWORD PTR _p_dico$[ebp], eax
  0049d	e8 00 00 00 00	 call	 _move16

; 180  : 
; 181  :     return index;

  004a2	66 8b 45 ec	 mov	 ax, WORD PTR _index$[ebp]

; 182  : }

  004a6	5f		 pop	 edi
  004a7	5e		 pop	 esi
  004a8	5b		 pop	 ebx
  004a9	81 c4 0c 01 00
	00		 add	 esp, 268		; 0000010cH
  004af	3b ec		 cmp	 ebp, esp
  004b1	e8 00 00 00 00	 call	 __RTC_CheckEsp
  004b6	8b e5		 mov	 esp, ebp
  004b8	5d		 pop	 ebp
  004b9	c3		 ret	 0
_Vq_subvec3 ENDP
_TEXT	ENDS
; Function compile flags: /Odtp /RTCsu /ZI
; File e:\mywork\client\pc2.0trunk\pc2.0\third_party\libamrplayer\amr\q_plsf_3.c
;	COMDAT _Vq_subvec4
_TEXT	SEGMENT
tv149 = -266						; size = 2
tv133 = -266						; size = 2
tv85 = -266						; size = 2
tv70 = -266						; size = 2
_dist$ = -68						; size = 4
_dist_min$ = -56					; size = 4
_temp$ = -44						; size = 2
_p_dico$ = -32						; size = 4
_index$ = -20						; size = 2
_i$ = -8						; size = 2
_lsf_r1$ = 8						; size = 4
_dico$ = 12						; size = 4
_wf1$ = 16						; size = 4
_dico_size$ = 20					; size = 2
_Vq_subvec4 PROC					; COMDAT

; 61   : {

  00000	55		 push	 ebp
  00001	8b ec		 mov	 ebp, esp
  00003	81 ec 0c 01 00
	00		 sub	 esp, 268		; 0000010cH
  00009	53		 push	 ebx
  0000a	56		 push	 esi
  0000b	57		 push	 edi
  0000c	8d bd f4 fe ff
	ff		 lea	 edi, DWORD PTR [ebp-268]
  00012	b9 43 00 00 00	 mov	 ecx, 67			; 00000043H
  00017	b8 cc cc cc cc	 mov	 eax, -858993460		; ccccccccH
  0001c	f3 ab		 rep stosd

; 62   :     Word16 i, index = 0;

  0001e	33 c0		 xor	 eax, eax
  00020	66 89 45 ec	 mov	 WORD PTR _index$[ebp], ax

; 63   :     Word16 *p_dico, temp;
; 64   :     Word32 dist_min, dist;
; 65   : 
; 66   :     dist_min = MAX_32;                                              move32 ();

  00024	c7 45 c8 ff ff
	ff 7f		 mov	 DWORD PTR _dist_min$[ebp], 2147483647 ; 7fffffffH
  0002b	e8 00 00 00 00	 call	 _move32

; 67   :     p_dico = dico;                                                  move16 ();

  00030	8b 45 0c	 mov	 eax, DWORD PTR _dico$[ebp]
  00033	89 45 e0	 mov	 DWORD PTR _p_dico$[ebp], eax
  00036	e8 00 00 00 00	 call	 _move16

; 68   : 
; 69   :     for (i = 0; i < dico_size; i++)

  0003b	33 c0		 xor	 eax, eax
  0003d	66 89 45 f8	 mov	 WORD PTR _i$[ebp], ax
  00041	eb 0c		 jmp	 SHORT $LN4@Vq_subvec4
$LN3@Vq_subvec4:
  00043	66 8b 45 f8	 mov	 ax, WORD PTR _i$[ebp]
  00047	66 83 c0 01	 add	 ax, 1
  0004b	66 89 45 f8	 mov	 WORD PTR _i$[ebp], ax
$LN4@Vq_subvec4:
  0004f	0f bf 45 f8	 movsx	 eax, WORD PTR _i$[ebp]
  00053	0f bf 4d 14	 movsx	 ecx, WORD PTR _dico_size$[ebp]
  00057	3b c1		 cmp	 eax, ecx
  00059	0f 8d 00 02 00
	00		 jge	 $LN2@Vq_subvec4

; 70   :     {
; 71   :         temp = sub (lsf_r1[0], *p_dico++);

  0005f	8b 45 e0	 mov	 eax, DWORD PTR _p_dico$[ebp]
  00062	66 8b 08	 mov	 cx, WORD PTR [eax]
  00065	66 89 8d f6 fe
	ff ff		 mov	 WORD PTR tv70[ebp], cx
  0006c	8b 55 e0	 mov	 edx, DWORD PTR _p_dico$[ebp]
  0006f	83 c2 02	 add	 edx, 2
  00072	89 55 e0	 mov	 DWORD PTR _p_dico$[ebp], edx
  00075	0f b7 85 f6 fe
	ff ff		 movzx	 eax, WORD PTR tv70[ebp]
  0007c	50		 push	 eax
  0007d	b9 02 00 00 00	 mov	 ecx, 2
  00082	6b d1 00	 imul	 edx, ecx, 0
  00085	8b 45 08	 mov	 eax, DWORD PTR _lsf_r1$[ebp]
  00088	0f b7 0c 10	 movzx	 ecx, WORD PTR [eax+edx]
  0008c	51		 push	 ecx
  0008d	e8 00 00 00 00	 call	 _sub
  00092	83 c4 08	 add	 esp, 8
  00095	66 89 45 d4	 mov	 WORD PTR _temp$[ebp], ax

; 72   :         temp = mult (wf1[0], temp);

  00099	0f b7 45 d4	 movzx	 eax, WORD PTR _temp$[ebp]
  0009d	50		 push	 eax
  0009e	b9 02 00 00 00	 mov	 ecx, 2
  000a3	6b d1 00	 imul	 edx, ecx, 0
  000a6	8b 45 10	 mov	 eax, DWORD PTR _wf1$[ebp]
  000a9	0f b7 0c 10	 movzx	 ecx, WORD PTR [eax+edx]
  000ad	51		 push	 ecx
  000ae	e8 00 00 00 00	 call	 _mult
  000b3	83 c4 08	 add	 esp, 8
  000b6	66 89 45 d4	 mov	 WORD PTR _temp$[ebp], ax

; 73   :         dist = L_mult (temp, temp);

  000ba	0f b7 45 d4	 movzx	 eax, WORD PTR _temp$[ebp]
  000be	50		 push	 eax
  000bf	0f b7 4d d4	 movzx	 ecx, WORD PTR _temp$[ebp]
  000c3	51		 push	 ecx
  000c4	e8 00 00 00 00	 call	 _L_mult
  000c9	83 c4 08	 add	 esp, 8
  000cc	89 45 bc	 mov	 DWORD PTR _dist$[ebp], eax

; 74   : 
; 75   :         temp = sub (lsf_r1[1], *p_dico++);

  000cf	8b 45 e0	 mov	 eax, DWORD PTR _p_dico$[ebp]
  000d2	66 8b 08	 mov	 cx, WORD PTR [eax]
  000d5	66 89 8d f6 fe
	ff ff		 mov	 WORD PTR tv85[ebp], cx
  000dc	8b 55 e0	 mov	 edx, DWORD PTR _p_dico$[ebp]
  000df	83 c2 02	 add	 edx, 2
  000e2	89 55 e0	 mov	 DWORD PTR _p_dico$[ebp], edx
  000e5	0f b7 85 f6 fe
	ff ff		 movzx	 eax, WORD PTR tv85[ebp]
  000ec	50		 push	 eax
  000ed	b9 02 00 00 00	 mov	 ecx, 2
  000f2	c1 e1 00	 shl	 ecx, 0
  000f5	8b 55 08	 mov	 edx, DWORD PTR _lsf_r1$[ebp]
  000f8	0f b7 04 0a	 movzx	 eax, WORD PTR [edx+ecx]
  000fc	50		 push	 eax
  000fd	e8 00 00 00 00	 call	 _sub
  00102	83 c4 08	 add	 esp, 8
  00105	66 89 45 d4	 mov	 WORD PTR _temp$[ebp], ax

; 76   :         temp = mult (wf1[1], temp);

  00109	0f b7 45 d4	 movzx	 eax, WORD PTR _temp$[ebp]
  0010d	50		 push	 eax
  0010e	b9 02 00 00 00	 mov	 ecx, 2
  00113	c1 e1 00	 shl	 ecx, 0
  00116	8b 55 10	 mov	 edx, DWORD PTR _wf1$[ebp]
  00119	0f b7 04 0a	 movzx	 eax, WORD PTR [edx+ecx]
  0011d	50		 push	 eax
  0011e	e8 00 00 00 00	 call	 _mult
  00123	83 c4 08	 add	 esp, 8
  00126	66 89 45 d4	 mov	 WORD PTR _temp$[ebp], ax

; 77   :         dist = L_mac (dist, temp, temp);

  0012a	0f b7 45 d4	 movzx	 eax, WORD PTR _temp$[ebp]
  0012e	50		 push	 eax
  0012f	0f b7 4d d4	 movzx	 ecx, WORD PTR _temp$[ebp]
  00133	51		 push	 ecx
  00134	8b 55 bc	 mov	 edx, DWORD PTR _dist$[ebp]
  00137	52		 push	 edx
  00138	e8 00 00 00 00	 call	 _L_mac
  0013d	83 c4 0c	 add	 esp, 12			; 0000000cH
  00140	89 45 bc	 mov	 DWORD PTR _dist$[ebp], eax

; 78   : 
; 79   :         temp = sub (lsf_r1[2], *p_dico++);

  00143	8b 45 e0	 mov	 eax, DWORD PTR _p_dico$[ebp]
  00146	66 8b 08	 mov	 cx, WORD PTR [eax]
  00149	66 89 8d f6 fe
	ff ff		 mov	 WORD PTR tv133[ebp], cx
  00150	8b 55 e0	 mov	 edx, DWORD PTR _p_dico$[ebp]
  00153	83 c2 02	 add	 edx, 2
  00156	89 55 e0	 mov	 DWORD PTR _p_dico$[ebp], edx
  00159	0f b7 85 f6 fe
	ff ff		 movzx	 eax, WORD PTR tv133[ebp]
  00160	50		 push	 eax
  00161	b9 02 00 00 00	 mov	 ecx, 2
  00166	d1 e1		 shl	 ecx, 1
  00168	8b 55 08	 mov	 edx, DWORD PTR _lsf_r1$[ebp]
  0016b	0f b7 04 0a	 movzx	 eax, WORD PTR [edx+ecx]
  0016f	50		 push	 eax
  00170	e8 00 00 00 00	 call	 _sub
  00175	83 c4 08	 add	 esp, 8
  00178	66 89 45 d4	 mov	 WORD PTR _temp$[ebp], ax

; 80   :         temp = mult (wf1[2], temp);

  0017c	0f b7 45 d4	 movzx	 eax, WORD PTR _temp$[ebp]
  00180	50		 push	 eax
  00181	b9 02 00 00 00	 mov	 ecx, 2
  00186	d1 e1		 shl	 ecx, 1
  00188	8b 55 10	 mov	 edx, DWORD PTR _wf1$[ebp]
  0018b	0f b7 04 0a	 movzx	 eax, WORD PTR [edx+ecx]
  0018f	50		 push	 eax
  00190	e8 00 00 00 00	 call	 _mult
  00195	83 c4 08	 add	 esp, 8
  00198	66 89 45 d4	 mov	 WORD PTR _temp$[ebp], ax

; 81   :         dist = L_mac (dist, temp, temp);

  0019c	0f b7 45 d4	 movzx	 eax, WORD PTR _temp$[ebp]
  001a0	50		 push	 eax
  001a1	0f b7 4d d4	 movzx	 ecx, WORD PTR _temp$[ebp]
  001a5	51		 push	 ecx
  001a6	8b 55 bc	 mov	 edx, DWORD PTR _dist$[ebp]
  001a9	52		 push	 edx
  001aa	e8 00 00 00 00	 call	 _L_mac
  001af	83 c4 0c	 add	 esp, 12			; 0000000cH
  001b2	89 45 bc	 mov	 DWORD PTR _dist$[ebp], eax

; 82   : 
; 83   :         temp = sub (lsf_r1[3], *p_dico++);

  001b5	8b 45 e0	 mov	 eax, DWORD PTR _p_dico$[ebp]
  001b8	66 8b 08	 mov	 cx, WORD PTR [eax]
  001bb	66 89 8d f6 fe
	ff ff		 mov	 WORD PTR tv149[ebp], cx
  001c2	8b 55 e0	 mov	 edx, DWORD PTR _p_dico$[ebp]
  001c5	83 c2 02	 add	 edx, 2
  001c8	89 55 e0	 mov	 DWORD PTR _p_dico$[ebp], edx
  001cb	0f b7 85 f6 fe
	ff ff		 movzx	 eax, WORD PTR tv149[ebp]
  001d2	50		 push	 eax
  001d3	b9 02 00 00 00	 mov	 ecx, 2
  001d8	6b d1 03	 imul	 edx, ecx, 3
  001db	8b 45 08	 mov	 eax, DWORD PTR _lsf_r1$[ebp]
  001de	0f b7 0c 10	 movzx	 ecx, WORD PTR [eax+edx]
  001e2	51		 push	 ecx
  001e3	e8 00 00 00 00	 call	 _sub
  001e8	83 c4 08	 add	 esp, 8
  001eb	66 89 45 d4	 mov	 WORD PTR _temp$[ebp], ax

; 84   :         temp = mult (wf1[3], temp);

  001ef	0f b7 45 d4	 movzx	 eax, WORD PTR _temp$[ebp]
  001f3	50		 push	 eax
  001f4	b9 02 00 00 00	 mov	 ecx, 2
  001f9	6b d1 03	 imul	 edx, ecx, 3
  001fc	8b 45 10	 mov	 eax, DWORD PTR _wf1$[ebp]
  001ff	0f b7 0c 10	 movzx	 ecx, WORD PTR [eax+edx]
  00203	51		 push	 ecx
  00204	e8 00 00 00 00	 call	 _mult
  00209	83 c4 08	 add	 esp, 8
  0020c	66 89 45 d4	 mov	 WORD PTR _temp$[ebp], ax

; 85   :         dist = L_mac (dist, temp, temp);

  00210	0f b7 45 d4	 movzx	 eax, WORD PTR _temp$[ebp]
  00214	50		 push	 eax
  00215	0f b7 4d d4	 movzx	 ecx, WORD PTR _temp$[ebp]
  00219	51		 push	 ecx
  0021a	8b 55 bc	 mov	 edx, DWORD PTR _dist$[ebp]
  0021d	52		 push	 edx
  0021e	e8 00 00 00 00	 call	 _L_mac
  00223	83 c4 0c	 add	 esp, 12			; 0000000cH
  00226	89 45 bc	 mov	 DWORD PTR _dist$[ebp], eax

; 86   : 
; 87   :         test ();

  00229	e8 00 00 00 00	 call	 _test

; 88   : 		if (L_sub (dist, dist_min) < (Word32) 0)

  0022e	8b 45 c8	 mov	 eax, DWORD PTR _dist_min$[ebp]
  00231	50		 push	 eax
  00232	8b 4d bc	 mov	 ecx, DWORD PTR _dist$[ebp]
  00235	51		 push	 ecx
  00236	e8 00 00 00 00	 call	 _L_sub
  0023b	83 c4 08	 add	 esp, 8
  0023e	85 c0		 test	 eax, eax
  00240	7d 18		 jge	 SHORT $LN1@Vq_subvec4

; 89   :         {
; 90   :             dist_min = dist;                                       move32 ();

  00242	8b 45 bc	 mov	 eax, DWORD PTR _dist$[ebp]
  00245	89 45 c8	 mov	 DWORD PTR _dist_min$[ebp], eax
  00248	e8 00 00 00 00	 call	 _move32

; 91   :             index = i;                                             move16 ();

  0024d	66 8b 45 f8	 mov	 ax, WORD PTR _i$[ebp]
  00251	66 89 45 ec	 mov	 WORD PTR _index$[ebp], ax
  00255	e8 00 00 00 00	 call	 _move16
$LN1@Vq_subvec4:

; 92   :         }
; 93   :     }

  0025a	e9 e4 fd ff ff	 jmp	 $LN3@Vq_subvec4
$LN2@Vq_subvec4:

; 94   : 
; 95   :     /* Reading the selected vector */
; 96   : 
; 97   :     p_dico = &dico[shl (index, 2)];                                move16 ();

  0025f	6a 02		 push	 2
  00261	0f b7 45 ec	 movzx	 eax, WORD PTR _index$[ebp]
  00265	50		 push	 eax
  00266	e8 00 00 00 00	 call	 _shl
  0026b	83 c4 08	 add	 esp, 8
  0026e	0f bf c8	 movsx	 ecx, ax
  00271	8b 55 0c	 mov	 edx, DWORD PTR _dico$[ebp]
  00274	8d 04 4a	 lea	 eax, DWORD PTR [edx+ecx*2]
  00277	89 45 e0	 mov	 DWORD PTR _p_dico$[ebp], eax
  0027a	e8 00 00 00 00	 call	 _move16

; 98   :     lsf_r1[0] = *p_dico++;                                         move16 ();

  0027f	b8 02 00 00 00	 mov	 eax, 2
  00284	6b c8 00	 imul	 ecx, eax, 0
  00287	8b 55 08	 mov	 edx, DWORD PTR _lsf_r1$[ebp]
  0028a	8b 45 e0	 mov	 eax, DWORD PTR _p_dico$[ebp]
  0028d	66 8b 00	 mov	 ax, WORD PTR [eax]
  00290	66 89 04 0a	 mov	 WORD PTR [edx+ecx], ax
  00294	8b 4d e0	 mov	 ecx, DWORD PTR _p_dico$[ebp]
  00297	83 c1 02	 add	 ecx, 2
  0029a	89 4d e0	 mov	 DWORD PTR _p_dico$[ebp], ecx
  0029d	e8 00 00 00 00	 call	 _move16

; 99   :     lsf_r1[1] = *p_dico++;                                         move16 ();

  002a2	b8 02 00 00 00	 mov	 eax, 2
  002a7	c1 e0 00	 shl	 eax, 0
  002aa	8b 4d 08	 mov	 ecx, DWORD PTR _lsf_r1$[ebp]
  002ad	8b 55 e0	 mov	 edx, DWORD PTR _p_dico$[ebp]
  002b0	66 8b 12	 mov	 dx, WORD PTR [edx]
  002b3	66 89 14 01	 mov	 WORD PTR [ecx+eax], dx
  002b7	8b 45 e0	 mov	 eax, DWORD PTR _p_dico$[ebp]
  002ba	83 c0 02	 add	 eax, 2
  002bd	89 45 e0	 mov	 DWORD PTR _p_dico$[ebp], eax
  002c0	e8 00 00 00 00	 call	 _move16

; 100  :     lsf_r1[2] = *p_dico++;                                         move16 ();

  002c5	b8 02 00 00 00	 mov	 eax, 2
  002ca	d1 e0		 shl	 eax, 1
  002cc	8b 4d 08	 mov	 ecx, DWORD PTR _lsf_r1$[ebp]
  002cf	8b 55 e0	 mov	 edx, DWORD PTR _p_dico$[ebp]
  002d2	66 8b 12	 mov	 dx, WORD PTR [edx]
  002d5	66 89 14 01	 mov	 WORD PTR [ecx+eax], dx
  002d9	8b 45 e0	 mov	 eax, DWORD PTR _p_dico$[ebp]
  002dc	83 c0 02	 add	 eax, 2
  002df	89 45 e0	 mov	 DWORD PTR _p_dico$[ebp], eax
  002e2	e8 00 00 00 00	 call	 _move16

; 101  :     lsf_r1[3] = *p_dico++;                                         move16 ();

  002e7	b8 02 00 00 00	 mov	 eax, 2
  002ec	6b c8 03	 imul	 ecx, eax, 3
  002ef	8b 55 08	 mov	 edx, DWORD PTR _lsf_r1$[ebp]
  002f2	8b 45 e0	 mov	 eax, DWORD PTR _p_dico$[ebp]
  002f5	66 8b 00	 mov	 ax, WORD PTR [eax]
  002f8	66 89 04 0a	 mov	 WORD PTR [edx+ecx], ax
  002fc	8b 4d e0	 mov	 ecx, DWORD PTR _p_dico$[ebp]
  002ff	83 c1 02	 add	 ecx, 2
  00302	89 4d e0	 mov	 DWORD PTR _p_dico$[ebp], ecx
  00305	e8 00 00 00 00	 call	 _move16

; 102  : 
; 103  :     return index;

  0030a	66 8b 45 ec	 mov	 ax, WORD PTR _index$[ebp]

; 104  : 
; 105  : }

  0030e	5f		 pop	 edi
  0030f	5e		 pop	 esi
  00310	5b		 pop	 ebx
  00311	81 c4 0c 01 00
	00		 add	 esp, 268		; 0000010cH
  00317	3b ec		 cmp	 ebp, esp
  00319	e8 00 00 00 00	 call	 __RTC_CheckEsp
  0031e	8b e5		 mov	 esp, ebp
  00320	5d		 pop	 ebp
  00321	c3		 ret	 0
_Vq_subvec4 ENDP
_TEXT	ENDS
; Function compile flags: /Odtp /RTCsu /ZI
; File e:\mywork\client\pc2.0trunk\pc2.0\third_party\libamrplayer\amr\q_plsf_3.c
;	COMDAT _Q_plsf_3
_TEXT	SEGMENT
_temp_p$ = -244						; size = 20
_temp_r1$ = -216					; size = 20
_L_min_pred_init_err$ = -188				; size = 4
_L_pred_init_err$ = -176				; size = 4
_lsf1_q$ = -164						; size = 20
_lsf_r1$ = -136						; size = 20
_lsf_p$ = -108						; size = 20
_wf1$ = -80						; size = 20
_lsf1$ = -52						; size = 20
_j$ = -24						; size = 2
_i$ = -12						; size = 2
__$ArrayPad$ = -4					; size = 4
_st$ = 8						; size = 4
_mode$ = 12						; size = 4
_lsp1$ = 16						; size = 4
_lsp1_q$ = 20						; size = 4
_indice$ = 24						; size = 4
_pred_init_i$ = 28					; size = 4
_Q_plsf_3 PROC						; COMDAT

; 206  : {

  00000	55		 push	 ebp
  00001	8b ec		 mov	 ebp, esp
  00003	81 ec b8 01 00
	00		 sub	 esp, 440		; 000001b8H
  00009	53		 push	 ebx
  0000a	56		 push	 esi
  0000b	57		 push	 edi
  0000c	8d bd 48 fe ff
	ff		 lea	 edi, DWORD PTR [ebp-440]
  00012	b9 6e 00 00 00	 mov	 ecx, 110		; 0000006eH
  00017	b8 cc cc cc cc	 mov	 eax, -858993460		; ccccccccH
  0001c	f3 ab		 rep stosd
  0001e	a1 00 00 00 00	 mov	 eax, DWORD PTR ___security_cookie
  00023	33 c5		 xor	 eax, ebp
  00025	89 45 fc	 mov	 DWORD PTR __$ArrayPad$[ebp], eax

; 207  :     Word16 i, j;
; 208  :     Word16 lsf1[M], wf1[M], lsf_p[M], lsf_r1[M];
; 209  :     Word16 lsf1_q[M];
; 210  :     
; 211  :     Word32 L_pred_init_err;
; 212  :     Word32 L_min_pred_init_err;
; 213  :     Word16 temp_r1[M];
; 214  :     Word16 temp_p[M];
; 215  : 
; 216  :     /* convert LSFs to normalize frequency domain 0..16384 */
; 217  : 
; 218  :     Lsp_lsf(lsp1, lsf1, M);

  00028	6a 0a		 push	 10			; 0000000aH
  0002a	8d 45 cc	 lea	 eax, DWORD PTR _lsf1$[ebp]
  0002d	50		 push	 eax
  0002e	8b 4d 10	 mov	 ecx, DWORD PTR _lsp1$[ebp]
  00031	51		 push	 ecx
  00032	e8 00 00 00 00	 call	 _Lsp_lsf
  00037	83 c4 0c	 add	 esp, 12			; 0000000cH

; 219  : 
; 220  :     /* compute LSF weighting factors (Q13) */
; 221  : 
; 222  :     Lsf_wt(lsf1, wf1);

  0003a	8d 45 b0	 lea	 eax, DWORD PTR _wf1$[ebp]
  0003d	50		 push	 eax
  0003e	8d 4d cc	 lea	 ecx, DWORD PTR _lsf1$[ebp]
  00041	51		 push	 ecx
  00042	e8 00 00 00 00	 call	 _Lsf_wt
  00047	83 c4 08	 add	 esp, 8

; 223  : 
; 224  :     /* Compute predicted LSF and prediction error */
; 225  :     if (test(), sub(mode, MRDTX) != 0)

  0004a	e8 00 00 00 00	 call	 _test
  0004f	6a 08		 push	 8
  00051	0f b7 45 0c	 movzx	 eax, WORD PTR _mode$[ebp]
  00055	50		 push	 eax
  00056	e8 00 00 00 00	 call	 _sub
  0005b	83 c4 08	 add	 esp, 8
  0005e	0f bf c8	 movsx	 ecx, ax
  00061	85 c9		 test	 ecx, ecx
  00063	0f 84 9c 00 00
	00		 je	 $LN20@Q_plsf_3

; 226  :     {
; 227  :        for (i = 0; i < M; i++)

  00069	33 c0		 xor	 eax, eax
  0006b	66 89 45 f4	 mov	 WORD PTR _i$[ebp], ax
  0006f	eb 0c		 jmp	 SHORT $LN19@Q_plsf_3
$LN18@Q_plsf_3:
  00071	66 8b 45 f4	 mov	 ax, WORD PTR _i$[ebp]
  00075	66 83 c0 01	 add	 ax, 1
  00079	66 89 45 f4	 mov	 WORD PTR _i$[ebp], ax
$LN19@Q_plsf_3:
  0007d	0f bf 45 f4	 movsx	 eax, WORD PTR _i$[ebp]
  00081	83 f8 0a	 cmp	 eax, 10			; 0000000aH
  00084	7d 7a		 jge	 SHORT $LN17@Q_plsf_3

; 228  :        {
; 229  :           lsf_p[i] = add(mean_lsf[i], 
; 230  :                          mult(st->past_rq[i], 
; 231  :                               pred_fac[i]));                            move16 ();

  00086	0f bf 45 f4	 movsx	 eax, WORD PTR _i$[ebp]
  0008a	0f b7 0c 45 00
	00 00 00	 movzx	 ecx, WORD PTR _pred_fac[eax*2]
  00092	51		 push	 ecx
  00093	0f bf 55 f4	 movsx	 edx, WORD PTR _i$[ebp]
  00097	8b 45 08	 mov	 eax, DWORD PTR _st$[ebp]
  0009a	0f b7 0c 50	 movzx	 ecx, WORD PTR [eax+edx*2]
  0009e	51		 push	 ecx
  0009f	e8 00 00 00 00	 call	 _mult
  000a4	83 c4 08	 add	 esp, 8
  000a7	0f b7 d0	 movzx	 edx, ax
  000aa	52		 push	 edx
  000ab	0f bf 45 f4	 movsx	 eax, WORD PTR _i$[ebp]
  000af	0f b7 0c 45 00
	00 00 00	 movzx	 ecx, WORD PTR _mean_lsf[eax*2]
  000b7	51		 push	 ecx
  000b8	e8 00 00 00 00	 call	 _add
  000bd	83 c4 08	 add	 esp, 8
  000c0	0f bf 55 f4	 movsx	 edx, WORD PTR _i$[ebp]
  000c4	66 89 44 55 94	 mov	 WORD PTR _lsf_p$[ebp+edx*2], ax
  000c9	e8 00 00 00 00	 call	 _move16

; 232  :           lsf_r1[i] = sub(lsf1[i], lsf_p[i]);                           move16 ();

  000ce	0f bf 45 f4	 movsx	 eax, WORD PTR _i$[ebp]
  000d2	0f b7 4c 45 94	 movzx	 ecx, WORD PTR _lsf_p$[ebp+eax*2]
  000d7	51		 push	 ecx
  000d8	0f bf 55 f4	 movsx	 edx, WORD PTR _i$[ebp]
  000dc	0f b7 44 55 cc	 movzx	 eax, WORD PTR _lsf1$[ebp+edx*2]
  000e1	50		 push	 eax
  000e2	e8 00 00 00 00	 call	 _sub
  000e7	83 c4 08	 add	 esp, 8
  000ea	0f bf 4d f4	 movsx	 ecx, WORD PTR _i$[ebp]
  000ee	66 89 84 4d 78
	ff ff ff	 mov	 WORD PTR _lsf_r1$[ebp+ecx*2], ax
  000f6	e8 00 00 00 00	 call	 _move16

; 233  :       }

  000fb	e9 71 ff ff ff	 jmp	 $LN18@Q_plsf_3
$LN17@Q_plsf_3:

; 234  :     }
; 235  :     else

  00100	e9 91 01 00 00	 jmp	 $LN16@Q_plsf_3
$LN20@Q_plsf_3:

; 236  :     {
; 237  :        /* DTX mode, search the init vector that yields */
; 238  :        /* lowest prediction resuidual energy           */
; 239  :        *pred_init_i = 0;                                                move16 ();

  00105	33 c0		 xor	 eax, eax
  00107	8b 4d 1c	 mov	 ecx, DWORD PTR _pred_init_i$[ebp]
  0010a	66 89 01	 mov	 WORD PTR [ecx], ax
  0010d	e8 00 00 00 00	 call	 _move16

; 240  :        L_min_pred_init_err = 0x7fffffff; /* 2^31 - 1 */                 move32 ();

  00112	c7 85 44 ff ff
	ff ff ff ff 7f	 mov	 DWORD PTR _L_min_pred_init_err$[ebp], 2147483647 ; 7fffffffH
  0011c	e8 00 00 00 00	 call	 _move32

; 241  :        for (j = 0; j < PAST_RQ_INIT_SIZE; j++)

  00121	33 c0		 xor	 eax, eax
  00123	66 89 45 e8	 mov	 WORD PTR _j$[ebp], ax
  00127	eb 0c		 jmp	 SHORT $LN15@Q_plsf_3
$LN14@Q_plsf_3:
  00129	66 8b 45 e8	 mov	 ax, WORD PTR _j$[ebp]
  0012d	66 83 c0 01	 add	 ax, 1
  00131	66 89 45 e8	 mov	 WORD PTR _j$[ebp], ax
$LN15@Q_plsf_3:
  00135	0f bf 45 e8	 movsx	 eax, WORD PTR _j$[ebp]
  00139	83 f8 08	 cmp	 eax, 8
  0013c	0f 8d 54 01 00
	00		 jge	 $LN16@Q_plsf_3

; 242  :        {
; 243  :           L_pred_init_err = 0;                                          move32 ();

  00142	c7 85 50 ff ff
	ff 00 00 00 00	 mov	 DWORD PTR _L_pred_init_err$[ebp], 0
  0014c	e8 00 00 00 00	 call	 _move32

; 244  :           for (i = 0; i < M; i++)

  00151	33 c0		 xor	 eax, eax
  00153	66 89 45 f4	 mov	 WORD PTR _i$[ebp], ax
  00157	eb 0c		 jmp	 SHORT $LN12@Q_plsf_3
$LN11@Q_plsf_3:
  00159	66 8b 45 f4	 mov	 ax, WORD PTR _i$[ebp]
  0015d	66 83 c0 01	 add	 ax, 1
  00161	66 89 45 f4	 mov	 WORD PTR _i$[ebp], ax
$LN12@Q_plsf_3:
  00165	0f bf 45 f4	 movsx	 eax, WORD PTR _i$[ebp]
  00169	83 f8 0a	 cmp	 eax, 10			; 0000000aH
  0016c	0f 8d 96 00 00
	00		 jge	 $LN10@Q_plsf_3

; 245  :           {
; 246  :              temp_p[i] = add(mean_lsf[i], past_rq_init[j*M+i]);

  00172	0f bf 45 e8	 movsx	 eax, WORD PTR _j$[ebp]
  00176	6b c8 0a	 imul	 ecx, eax, 10
  00179	0f bf 55 f4	 movsx	 edx, WORD PTR _i$[ebp]
  0017d	03 ca		 add	 ecx, edx
  0017f	0f b7 04 4d 00
	00 00 00	 movzx	 eax, WORD PTR _past_rq_init[ecx*2]
  00187	50		 push	 eax
  00188	0f bf 4d f4	 movsx	 ecx, WORD PTR _i$[ebp]
  0018c	0f b7 14 4d 00
	00 00 00	 movzx	 edx, WORD PTR _mean_lsf[ecx*2]
  00194	52		 push	 edx
  00195	e8 00 00 00 00	 call	 _add
  0019a	83 c4 08	 add	 esp, 8
  0019d	0f bf 4d f4	 movsx	 ecx, WORD PTR _i$[ebp]
  001a1	66 89 84 4d 0c
	ff ff ff	 mov	 WORD PTR _temp_p$[ebp+ecx*2], ax

; 247  :              temp_r1[i] = sub(lsf1[i],temp_p[i]);

  001a9	0f bf 45 f4	 movsx	 eax, WORD PTR _i$[ebp]
  001ad	0f b7 8c 45 0c
	ff ff ff	 movzx	 ecx, WORD PTR _temp_p$[ebp+eax*2]
  001b5	51		 push	 ecx
  001b6	0f bf 55 f4	 movsx	 edx, WORD PTR _i$[ebp]
  001ba	0f b7 44 55 cc	 movzx	 eax, WORD PTR _lsf1$[ebp+edx*2]
  001bf	50		 push	 eax
  001c0	e8 00 00 00 00	 call	 _sub
  001c5	83 c4 08	 add	 esp, 8
  001c8	0f bf 4d f4	 movsx	 ecx, WORD PTR _i$[ebp]
  001cc	66 89 84 4d 28
	ff ff ff	 mov	 WORD PTR _temp_r1$[ebp+ecx*2], ax

; 248  :              L_pred_init_err = L_mac(L_pred_init_err, temp_r1[i], temp_r1[i]);

  001d4	0f bf 45 f4	 movsx	 eax, WORD PTR _i$[ebp]
  001d8	0f b7 8c 45 28
	ff ff ff	 movzx	 ecx, WORD PTR _temp_r1$[ebp+eax*2]
  001e0	51		 push	 ecx
  001e1	0f bf 55 f4	 movsx	 edx, WORD PTR _i$[ebp]
  001e5	0f b7 84 55 28
	ff ff ff	 movzx	 eax, WORD PTR _temp_r1$[ebp+edx*2]
  001ed	50		 push	 eax
  001ee	8b 8d 50 ff ff
	ff		 mov	 ecx, DWORD PTR _L_pred_init_err$[ebp]
  001f4	51		 push	 ecx
  001f5	e8 00 00 00 00	 call	 _L_mac
  001fa	83 c4 0c	 add	 esp, 12			; 0000000cH
  001fd	89 85 50 ff ff
	ff		 mov	 DWORD PTR _L_pred_init_err$[ebp], eax

; 249  :           }  /* next i */

  00203	e9 51 ff ff ff	 jmp	 $LN11@Q_plsf_3
$LN10@Q_plsf_3:

; 250  : 
; 251  :           test ();

  00208	e8 00 00 00 00	 call	 _test

; 252  :           if (L_sub(L_pred_init_err, L_min_pred_init_err) < (Word32) 0)

  0020d	8b 85 44 ff ff
	ff		 mov	 eax, DWORD PTR _L_min_pred_init_err$[ebp]
  00213	50		 push	 eax
  00214	8b 8d 50 ff ff
	ff		 mov	 ecx, DWORD PTR _L_pred_init_err$[ebp]
  0021a	51		 push	 ecx
  0021b	e8 00 00 00 00	 call	 _L_sub
  00220	83 c4 08	 add	 esp, 8
  00223	85 c0		 test	 eax, eax
  00225	7d 6a		 jge	 SHORT $LN9@Q_plsf_3

; 253  :           {
; 254  :              L_min_pred_init_err = L_pred_init_err;                     move32 (); 

  00227	8b 85 50 ff ff
	ff		 mov	 eax, DWORD PTR _L_pred_init_err$[ebp]
  0022d	89 85 44 ff ff
	ff		 mov	 DWORD PTR _L_min_pred_init_err$[ebp], eax
  00233	e8 00 00 00 00	 call	 _move32

; 255  :              Copy(temp_r1, lsf_r1, M);

  00238	6a 0a		 push	 10			; 0000000aH
  0023a	8d 85 78 ff ff
	ff		 lea	 eax, DWORD PTR _lsf_r1$[ebp]
  00240	50		 push	 eax
  00241	8d 8d 28 ff ff
	ff		 lea	 ecx, DWORD PTR _temp_r1$[ebp]
  00247	51		 push	 ecx
  00248	e8 00 00 00 00	 call	 _Copy
  0024d	83 c4 0c	 add	 esp, 12			; 0000000cH

; 256  :              Copy(temp_p, lsf_p, M);

  00250	6a 0a		 push	 10			; 0000000aH
  00252	8d 45 94	 lea	 eax, DWORD PTR _lsf_p$[ebp]
  00255	50		 push	 eax
  00256	8d 8d 0c ff ff
	ff		 lea	 ecx, DWORD PTR _temp_p$[ebp]
  0025c	51		 push	 ecx
  0025d	e8 00 00 00 00	 call	 _Copy
  00262	83 c4 0c	 add	 esp, 12			; 0000000cH

; 257  :              
; 258  :              /* Set zerom */
; 259  :              Copy(&past_rq_init[j*M], st->past_rq, M);

  00265	6a 0a		 push	 10			; 0000000aH
  00267	8b 45 08	 mov	 eax, DWORD PTR _st$[ebp]
  0026a	50		 push	 eax
  0026b	0f bf 4d e8	 movsx	 ecx, WORD PTR _j$[ebp]
  0026f	6b d1 0a	 imul	 edx, ecx, 10
  00272	8d 04 55 00 00
	00 00		 lea	 eax, DWORD PTR _past_rq_init[edx*2]
  00279	50		 push	 eax
  0027a	e8 00 00 00 00	 call	 _Copy
  0027f	83 c4 0c	 add	 esp, 12			; 0000000cH

; 260  :              *pred_init_i = j;                                          move16 ();            

  00282	8b 45 1c	 mov	 eax, DWORD PTR _pred_init_i$[ebp]
  00285	66 8b 4d e8	 mov	 cx, WORD PTR _j$[ebp]
  00289	66 89 08	 mov	 WORD PTR [eax], cx
  0028c	e8 00 00 00 00	 call	 _move16
$LN9@Q_plsf_3:

; 261  :           } /* endif */
; 262  :        } /* next j */

  00291	e9 93 fe ff ff	 jmp	 $LN14@Q_plsf_3
$LN16@Q_plsf_3:

; 263  :     } /* endif MRDTX */
; 264  :     
; 265  :     /*---- Split-VQ of prediction error ----*/
; 266  :     if (sub (mode, MR475) == 0 || sub (mode, MR515) == 0)

  00296	6a 00		 push	 0
  00298	0f b7 45 0c	 movzx	 eax, WORD PTR _mode$[ebp]
  0029c	50		 push	 eax
  0029d	e8 00 00 00 00	 call	 _sub
  002a2	83 c4 08	 add	 esp, 8
  002a5	0f bf c8	 movsx	 ecx, ax
  002a8	85 c9		 test	 ecx, ecx
  002aa	74 1a		 je	 SHORT $LN7@Q_plsf_3
  002ac	6a 01		 push	 1
  002ae	0f b7 45 0c	 movzx	 eax, WORD PTR _mode$[ebp]
  002b2	50		 push	 eax
  002b3	e8 00 00 00 00	 call	 _sub
  002b8	83 c4 08	 add	 esp, 8
  002bb	0f bf c8	 movsx	 ecx, ax
  002be	85 c9		 test	 ecx, ecx
  002c0	0f 85 db 00 00
	00		 jne	 $LN8@Q_plsf_3
$LN7@Q_plsf_3:

; 267  :     {   /* MR475, MR515 */
; 268  :       test (); test (); 

  002c6	e8 00 00 00 00	 call	 _test
  002cb	e8 00 00 00 00	 call	 _test

; 269  :                           
; 270  :       indice[0] = Vq_subvec3(&lsf_r1[0], dico1_lsf, &wf1[0], DICO1_SIZE, 0);

  002d0	6a 00		 push	 0
  002d2	68 00 01 00 00	 push	 256			; 00000100H
  002d7	b8 02 00 00 00	 mov	 eax, 2
  002dc	6b c8 00	 imul	 ecx, eax, 0
  002df	8d 54 0d b0	 lea	 edx, DWORD PTR _wf1$[ebp+ecx]
  002e3	52		 push	 edx
  002e4	68 00 00 00 00	 push	 OFFSET _dico1_lsf
  002e9	b8 02 00 00 00	 mov	 eax, 2
  002ee	6b c8 00	 imul	 ecx, eax, 0
  002f1	8d 94 0d 78 ff
	ff ff		 lea	 edx, DWORD PTR _lsf_r1$[ebp+ecx]
  002f8	52		 push	 edx
  002f9	e8 00 00 00 00	 call	 _Vq_subvec3
  002fe	83 c4 14	 add	 esp, 20			; 00000014H
  00301	b9 02 00 00 00	 mov	 ecx, 2
  00306	6b d1 00	 imul	 edx, ecx, 0
  00309	8b 4d 18	 mov	 ecx, DWORD PTR _indice$[ebp]
  0030c	66 89 04 11	 mov	 WORD PTR [ecx+edx], ax

; 271  :       move16 ();

  00310	e8 00 00 00 00	 call	 _move16

; 272  :       indice[1] = Vq_subvec3(&lsf_r1[3], dico2_lsf, &wf1[3], DICO2_SIZE/2, 1);

  00315	6a 01		 push	 1
  00317	68 00 01 00 00	 push	 256			; 00000100H
  0031c	b8 02 00 00 00	 mov	 eax, 2
  00321	6b c8 03	 imul	 ecx, eax, 3
  00324	8d 54 0d b0	 lea	 edx, DWORD PTR _wf1$[ebp+ecx]
  00328	52		 push	 edx
  00329	68 00 00 00 00	 push	 OFFSET _dico2_lsf
  0032e	b8 02 00 00 00	 mov	 eax, 2
  00333	6b c8 03	 imul	 ecx, eax, 3
  00336	8d 94 0d 78 ff
	ff ff		 lea	 edx, DWORD PTR _lsf_r1$[ebp+ecx]
  0033d	52		 push	 edx
  0033e	e8 00 00 00 00	 call	 _Vq_subvec3
  00343	83 c4 14	 add	 esp, 20			; 00000014H
  00346	b9 02 00 00 00	 mov	 ecx, 2
  0034b	c1 e1 00	 shl	 ecx, 0
  0034e	8b 55 18	 mov	 edx, DWORD PTR _indice$[ebp]
  00351	66 89 04 0a	 mov	 WORD PTR [edx+ecx], ax

; 273  :       move16 ();

  00355	e8 00 00 00 00	 call	 _move16

; 274  :       indice[2] = Vq_subvec4(&lsf_r1[6], mr515_3_lsf, &wf1[6], MR515_3_SIZE);

  0035a	68 80 00 00 00	 push	 128			; 00000080H
  0035f	b8 02 00 00 00	 mov	 eax, 2
  00364	6b c8 06	 imul	 ecx, eax, 6
  00367	8d 54 0d b0	 lea	 edx, DWORD PTR _wf1$[ebp+ecx]
  0036b	52		 push	 edx
  0036c	68 00 00 00 00	 push	 OFFSET _mr515_3_lsf
  00371	b8 02 00 00 00	 mov	 eax, 2
  00376	6b c8 06	 imul	 ecx, eax, 6
  00379	8d 94 0d 78 ff
	ff ff		 lea	 edx, DWORD PTR _lsf_r1$[ebp+ecx]
  00380	52		 push	 edx
  00381	e8 00 00 00 00	 call	 _Vq_subvec4
  00386	83 c4 10	 add	 esp, 16			; 00000010H
  00389	b9 02 00 00 00	 mov	 ecx, 2
  0038e	d1 e1		 shl	 ecx, 1
  00390	8b 55 18	 mov	 edx, DWORD PTR _indice$[ebp]
  00393	66 89 04 0a	 mov	 WORD PTR [edx+ecx], ax

; 275  :       move16 ();

  00397	e8 00 00 00 00	 call	 _move16
  0039c	e9 d5 01 00 00	 jmp	 $LN6@Q_plsf_3
$LN8@Q_plsf_3:

; 276  :     }
; 277  :     else if (sub (mode, MR795) == 0)

  003a1	6a 05		 push	 5
  003a3	0f b7 45 0c	 movzx	 eax, WORD PTR _mode$[ebp]
  003a7	50		 push	 eax
  003a8	e8 00 00 00 00	 call	 _sub
  003ad	83 c4 08	 add	 esp, 8
  003b0	0f bf c8	 movsx	 ecx, ax
  003b3	85 c9		 test	 ecx, ecx
  003b5	0f 85 e0 00 00
	00		 jne	 $LN5@Q_plsf_3

; 278  :     {   /* MR795 */
; 279  :       test (); test (); test ();

  003bb	e8 00 00 00 00	 call	 _test
  003c0	e8 00 00 00 00	 call	 _test
  003c5	e8 00 00 00 00	 call	 _test

; 280  :        
; 281  :       indice[0] = Vq_subvec3(&lsf_r1[0], mr795_1_lsf, &wf1[0], MR795_1_SIZE, 0);

  003ca	6a 00		 push	 0
  003cc	68 00 02 00 00	 push	 512			; 00000200H
  003d1	b8 02 00 00 00	 mov	 eax, 2
  003d6	6b c8 00	 imul	 ecx, eax, 0
  003d9	8d 54 0d b0	 lea	 edx, DWORD PTR _wf1$[ebp+ecx]
  003dd	52		 push	 edx
  003de	68 00 00 00 00	 push	 OFFSET _mr795_1_lsf
  003e3	b8 02 00 00 00	 mov	 eax, 2
  003e8	6b c8 00	 imul	 ecx, eax, 0
  003eb	8d 94 0d 78 ff
	ff ff		 lea	 edx, DWORD PTR _lsf_r1$[ebp+ecx]
  003f2	52		 push	 edx
  003f3	e8 00 00 00 00	 call	 _Vq_subvec3
  003f8	83 c4 14	 add	 esp, 20			; 00000014H
  003fb	b9 02 00 00 00	 mov	 ecx, 2
  00400	6b d1 00	 imul	 edx, ecx, 0
  00403	8b 4d 18	 mov	 ecx, DWORD PTR _indice$[ebp]
  00406	66 89 04 11	 mov	 WORD PTR [ecx+edx], ax

; 282  :       move16 ();

  0040a	e8 00 00 00 00	 call	 _move16

; 283  :       indice[1] = Vq_subvec3(&lsf_r1[3], dico2_lsf, &wf1[3], DICO2_SIZE, 0);

  0040f	6a 00		 push	 0
  00411	68 00 02 00 00	 push	 512			; 00000200H
  00416	b8 02 00 00 00	 mov	 eax, 2
  0041b	6b c8 03	 imul	 ecx, eax, 3
  0041e	8d 54 0d b0	 lea	 edx, DWORD PTR _wf1$[ebp+ecx]
  00422	52		 push	 edx
  00423	68 00 00 00 00	 push	 OFFSET _dico2_lsf
  00428	b8 02 00 00 00	 mov	 eax, 2
  0042d	6b c8 03	 imul	 ecx, eax, 3
  00430	8d 94 0d 78 ff
	ff ff		 lea	 edx, DWORD PTR _lsf_r1$[ebp+ecx]
  00437	52		 push	 edx
  00438	e8 00 00 00 00	 call	 _Vq_subvec3
  0043d	83 c4 14	 add	 esp, 20			; 00000014H
  00440	b9 02 00 00 00	 mov	 ecx, 2
  00445	c1 e1 00	 shl	 ecx, 0
  00448	8b 55 18	 mov	 edx, DWORD PTR _indice$[ebp]
  0044b	66 89 04 0a	 mov	 WORD PTR [edx+ecx], ax

; 284  :       move16 ();

  0044f	e8 00 00 00 00	 call	 _move16

; 285  :       indice[2] = Vq_subvec4(&lsf_r1[6], dico3_lsf, &wf1[6], DICO3_SIZE);

  00454	68 00 02 00 00	 push	 512			; 00000200H
  00459	b8 02 00 00 00	 mov	 eax, 2
  0045e	6b c8 06	 imul	 ecx, eax, 6
  00461	8d 54 0d b0	 lea	 edx, DWORD PTR _wf1$[ebp+ecx]
  00465	52		 push	 edx
  00466	68 00 00 00 00	 push	 OFFSET _dico3_lsf
  0046b	b8 02 00 00 00	 mov	 eax, 2
  00470	6b c8 06	 imul	 ecx, eax, 6
  00473	8d 94 0d 78 ff
	ff ff		 lea	 edx, DWORD PTR _lsf_r1$[ebp+ecx]
  0047a	52		 push	 edx
  0047b	e8 00 00 00 00	 call	 _Vq_subvec4
  00480	83 c4 10	 add	 esp, 16			; 00000010H
  00483	b9 02 00 00 00	 mov	 ecx, 2
  00488	d1 e1		 shl	 ecx, 1
  0048a	8b 55 18	 mov	 edx, DWORD PTR _indice$[ebp]
  0048d	66 89 04 0a	 mov	 WORD PTR [edx+ecx], ax

; 286  :       move16 ();

  00491	e8 00 00 00 00	 call	 _move16

; 287  :     }
; 288  :     else 

  00496	e9 db 00 00 00	 jmp	 $LN6@Q_plsf_3
$LN5@Q_plsf_3:

; 289  :     {   /* MR59, MR67, MR74, MR102 , MRDTX */
; 290  :       test (); test (); test ();

  0049b	e8 00 00 00 00	 call	 _test
  004a0	e8 00 00 00 00	 call	 _test
  004a5	e8 00 00 00 00	 call	 _test

; 291  : 
; 292  :       indice[0] = Vq_subvec3(&lsf_r1[0], dico1_lsf, &wf1[0], DICO1_SIZE, 0);

  004aa	6a 00		 push	 0
  004ac	68 00 01 00 00	 push	 256			; 00000100H
  004b1	b8 02 00 00 00	 mov	 eax, 2
  004b6	6b c8 00	 imul	 ecx, eax, 0
  004b9	8d 54 0d b0	 lea	 edx, DWORD PTR _wf1$[ebp+ecx]
  004bd	52		 push	 edx
  004be	68 00 00 00 00	 push	 OFFSET _dico1_lsf
  004c3	b8 02 00 00 00	 mov	 eax, 2
  004c8	6b c8 00	 imul	 ecx, eax, 0
  004cb	8d 94 0d 78 ff
	ff ff		 lea	 edx, DWORD PTR _lsf_r1$[ebp+ecx]
  004d2	52		 push	 edx
  004d3	e8 00 00 00 00	 call	 _Vq_subvec3
  004d8	83 c4 14	 add	 esp, 20			; 00000014H
  004db	b9 02 00 00 00	 mov	 ecx, 2
  004e0	6b d1 00	 imul	 edx, ecx, 0
  004e3	8b 4d 18	 mov	 ecx, DWORD PTR _indice$[ebp]
  004e6	66 89 04 11	 mov	 WORD PTR [ecx+edx], ax

; 293  :       move16 ();

  004ea	e8 00 00 00 00	 call	 _move16

; 294  :       indice[1] = Vq_subvec3(&lsf_r1[3], dico2_lsf, &wf1[3], DICO2_SIZE, 0);

  004ef	6a 00		 push	 0
  004f1	68 00 02 00 00	 push	 512			; 00000200H
  004f6	b8 02 00 00 00	 mov	 eax, 2
  004fb	6b c8 03	 imul	 ecx, eax, 3
  004fe	8d 54 0d b0	 lea	 edx, DWORD PTR _wf1$[ebp+ecx]
  00502	52		 push	 edx
  00503	68 00 00 00 00	 push	 OFFSET _dico2_lsf
  00508	b8 02 00 00 00	 mov	 eax, 2
  0050d	6b c8 03	 imul	 ecx, eax, 3
  00510	8d 94 0d 78 ff
	ff ff		 lea	 edx, DWORD PTR _lsf_r1$[ebp+ecx]
  00517	52		 push	 edx
  00518	e8 00 00 00 00	 call	 _Vq_subvec3
  0051d	83 c4 14	 add	 esp, 20			; 00000014H
  00520	b9 02 00 00 00	 mov	 ecx, 2
  00525	c1 e1 00	 shl	 ecx, 0
  00528	8b 55 18	 mov	 edx, DWORD PTR _indice$[ebp]
  0052b	66 89 04 0a	 mov	 WORD PTR [edx+ecx], ax

; 295  :       move16 ();

  0052f	e8 00 00 00 00	 call	 _move16

; 296  :       indice[2] = Vq_subvec4(&lsf_r1[6], dico3_lsf, &wf1[6], DICO3_SIZE);

  00534	68 00 02 00 00	 push	 512			; 00000200H
  00539	b8 02 00 00 00	 mov	 eax, 2
  0053e	6b c8 06	 imul	 ecx, eax, 6
  00541	8d 54 0d b0	 lea	 edx, DWORD PTR _wf1$[ebp+ecx]
  00545	52		 push	 edx
  00546	68 00 00 00 00	 push	 OFFSET _dico3_lsf
  0054b	b8 02 00 00 00	 mov	 eax, 2
  00550	6b c8 06	 imul	 ecx, eax, 6
  00553	8d 94 0d 78 ff
	ff ff		 lea	 edx, DWORD PTR _lsf_r1$[ebp+ecx]
  0055a	52		 push	 edx
  0055b	e8 00 00 00 00	 call	 _Vq_subvec4
  00560	83 c4 10	 add	 esp, 16			; 00000010H
  00563	b9 02 00 00 00	 mov	 ecx, 2
  00568	d1 e1		 shl	 ecx, 1
  0056a	8b 55 18	 mov	 edx, DWORD PTR _indice$[ebp]
  0056d	66 89 04 0a	 mov	 WORD PTR [edx+ecx], ax

; 297  :       move16 ();

  00571	e8 00 00 00 00	 call	 _move16
$LN6@Q_plsf_3:

; 298  :     }
; 299  : 
; 300  :         
; 301  :     /* Compute quantized LSFs and update the past quantized residual */
; 302  : 
; 303  :     for (i = 0; i < M; i++)

  00576	33 c0		 xor	 eax, eax
  00578	66 89 45 f4	 mov	 WORD PTR _i$[ebp], ax
  0057c	eb 0c		 jmp	 SHORT $LN3@Q_plsf_3
$LN2@Q_plsf_3:
  0057e	66 8b 45 f4	 mov	 ax, WORD PTR _i$[ebp]
  00582	66 83 c0 01	 add	 ax, 1
  00586	66 89 45 f4	 mov	 WORD PTR _i$[ebp], ax
$LN3@Q_plsf_3:
  0058a	0f bf 45 f4	 movsx	 eax, WORD PTR _i$[ebp]
  0058e	83 f8 0a	 cmp	 eax, 10			; 0000000aH
  00591	7d 4e		 jge	 SHORT $LN1@Q_plsf_3

; 304  :     {
; 305  :         lsf1_q[i] = add(lsf_r1[i], lsf_p[i]);                        move16 ();

  00593	0f bf 45 f4	 movsx	 eax, WORD PTR _i$[ebp]
  00597	0f b7 4c 45 94	 movzx	 ecx, WORD PTR _lsf_p$[ebp+eax*2]
  0059c	51		 push	 ecx
  0059d	0f bf 55 f4	 movsx	 edx, WORD PTR _i$[ebp]
  005a1	0f b7 84 55 78
	ff ff ff	 movzx	 eax, WORD PTR _lsf_r1$[ebp+edx*2]
  005a9	50		 push	 eax
  005aa	e8 00 00 00 00	 call	 _add
  005af	83 c4 08	 add	 esp, 8
  005b2	0f bf 4d f4	 movsx	 ecx, WORD PTR _i$[ebp]
  005b6	66 89 84 4d 5c
	ff ff ff	 mov	 WORD PTR _lsf1_q$[ebp+ecx*2], ax
  005be	e8 00 00 00 00	 call	 _move16

; 306  :         st->past_rq[i] = lsf_r1[i];                                  move16 ();

  005c3	0f bf 45 f4	 movsx	 eax, WORD PTR _i$[ebp]
  005c7	0f bf 4d f4	 movsx	 ecx, WORD PTR _i$[ebp]
  005cb	8b 55 08	 mov	 edx, DWORD PTR _st$[ebp]
  005ce	66 8b 84 45 78
	ff ff ff	 mov	 ax, WORD PTR _lsf_r1$[ebp+eax*2]
  005d6	66 89 04 4a	 mov	 WORD PTR [edx+ecx*2], ax
  005da	e8 00 00 00 00	 call	 _move16

; 307  :     }

  005df	eb 9d		 jmp	 SHORT $LN2@Q_plsf_3
$LN1@Q_plsf_3:

; 308  : 
; 309  :     /* verification that LSFs has mimimum distance of LSF_GAP Hz */
; 310  : 
; 311  :     Reorder_lsf(lsf1_q, LSF_GAP, M);

  005e1	6a 0a		 push	 10			; 0000000aH
  005e3	68 cd 00 00 00	 push	 205			; 000000cdH
  005e8	8d 85 5c ff ff
	ff		 lea	 eax, DWORD PTR _lsf1_q$[ebp]
  005ee	50		 push	 eax
  005ef	e8 00 00 00 00	 call	 _Reorder_lsf
  005f4	83 c4 0c	 add	 esp, 12			; 0000000cH

; 312  : 
; 313  :     /*  convert LSFs to the cosine domain */
; 314  : 
; 315  :     Lsf_lsp(lsf1_q, lsp1_q, M);

  005f7	6a 0a		 push	 10			; 0000000aH
  005f9	8b 45 14	 mov	 eax, DWORD PTR _lsp1_q$[ebp]
  005fc	50		 push	 eax
  005fd	8d 8d 5c ff ff
	ff		 lea	 ecx, DWORD PTR _lsf1_q$[ebp]
  00603	51		 push	 ecx
  00604	e8 00 00 00 00	 call	 _Lsf_lsp
  00609	83 c4 0c	 add	 esp, 12			; 0000000cH

; 316  : }

  0060c	52		 push	 edx
  0060d	8b cd		 mov	 ecx, ebp
  0060f	50		 push	 eax
  00610	8d 15 00 00 00
	00		 lea	 edx, DWORD PTR $LN31@Q_plsf_3
  00616	e8 00 00 00 00	 call	 @_RTC_CheckStackVars@8
  0061b	58		 pop	 eax
  0061c	5a		 pop	 edx
  0061d	5f		 pop	 edi
  0061e	5e		 pop	 esi
  0061f	5b		 pop	 ebx
  00620	8b 4d fc	 mov	 ecx, DWORD PTR __$ArrayPad$[ebp]
  00623	33 cd		 xor	 ecx, ebp
  00625	e8 00 00 00 00	 call	 @__security_check_cookie@4
  0062a	81 c4 b8 01 00
	00		 add	 esp, 440		; 000001b8H
  00630	3b ec		 cmp	 ebp, esp
  00632	e8 00 00 00 00	 call	 __RTC_CheckEsp
  00637	8b e5		 mov	 esp, ebp
  00639	5d		 pop	 ebp
  0063a	c3		 ret	 0
  0063b	90		 npad	 1
$LN31@Q_plsf_3:
  0063c	07 00 00 00	 DD	 7
  00640	00 00 00 00	 DD	 $LN30@Q_plsf_3
$LN30@Q_plsf_3:
  00644	cc ff ff ff	 DD	 -52			; ffffffccH
  00648	14 00 00 00	 DD	 20			; 00000014H
  0064c	00 00 00 00	 DD	 $LN23@Q_plsf_3
  00650	b0 ff ff ff	 DD	 -80			; ffffffb0H
  00654	14 00 00 00	 DD	 20			; 00000014H
  00658	00 00 00 00	 DD	 $LN24@Q_plsf_3
  0065c	94 ff ff ff	 DD	 -108			; ffffff94H
  00660	14 00 00 00	 DD	 20			; 00000014H
  00664	00 00 00 00	 DD	 $LN25@Q_plsf_3
  00668	78 ff ff ff	 DD	 -136			; ffffff78H
  0066c	14 00 00 00	 DD	 20			; 00000014H
  00670	00 00 00 00	 DD	 $LN26@Q_plsf_3
  00674	5c ff ff ff	 DD	 -164			; ffffff5cH
  00678	14 00 00 00	 DD	 20			; 00000014H
  0067c	00 00 00 00	 DD	 $LN27@Q_plsf_3
  00680	28 ff ff ff	 DD	 -216			; ffffff28H
  00684	14 00 00 00	 DD	 20			; 00000014H
  00688	00 00 00 00	 DD	 $LN28@Q_plsf_3
  0068c	0c ff ff ff	 DD	 -244			; ffffff0cH
  00690	14 00 00 00	 DD	 20			; 00000014H
  00694	00 00 00 00	 DD	 $LN29@Q_plsf_3
$LN29@Q_plsf_3:
  00698	74		 DB	 116			; 00000074H
  00699	65		 DB	 101			; 00000065H
  0069a	6d		 DB	 109			; 0000006dH
  0069b	70		 DB	 112			; 00000070H
  0069c	5f		 DB	 95			; 0000005fH
  0069d	70		 DB	 112			; 00000070H
  0069e	00		 DB	 0
$LN28@Q_plsf_3:
  0069f	74		 DB	 116			; 00000074H
  006a0	65		 DB	 101			; 00000065H
  006a1	6d		 DB	 109			; 0000006dH
  006a2	70		 DB	 112			; 00000070H
  006a3	5f		 DB	 95			; 0000005fH
  006a4	72		 DB	 114			; 00000072H
  006a5	31		 DB	 49			; 00000031H
  006a6	00		 DB	 0
$LN27@Q_plsf_3:
  006a7	6c		 DB	 108			; 0000006cH
  006a8	73		 DB	 115			; 00000073H
  006a9	66		 DB	 102			; 00000066H
  006aa	31		 DB	 49			; 00000031H
  006ab	5f		 DB	 95			; 0000005fH
  006ac	71		 DB	 113			; 00000071H
  006ad	00		 DB	 0
$LN26@Q_plsf_3:
  006ae	6c		 DB	 108			; 0000006cH
  006af	73		 DB	 115			; 00000073H
  006b0	66		 DB	 102			; 00000066H
  006b1	5f		 DB	 95			; 0000005fH
  006b2	72		 DB	 114			; 00000072H
  006b3	31		 DB	 49			; 00000031H
  006b4	00		 DB	 0
$LN25@Q_plsf_3:
  006b5	6c		 DB	 108			; 0000006cH
  006b6	73		 DB	 115			; 00000073H
  006b7	66		 DB	 102			; 00000066H
  006b8	5f		 DB	 95			; 0000005fH
  006b9	70		 DB	 112			; 00000070H
  006ba	00		 DB	 0
$LN24@Q_plsf_3:
  006bb	77		 DB	 119			; 00000077H
  006bc	66		 DB	 102			; 00000066H
  006bd	31		 DB	 49			; 00000031H
  006be	00		 DB	 0
$LN23@Q_plsf_3:
  006bf	6c		 DB	 108			; 0000006cH
  006c0	73		 DB	 115			; 00000073H
  006c1	66		 DB	 102			; 00000066H
  006c2	31		 DB	 49			; 00000031H
  006c3	00		 DB	 0
_Q_plsf_3 ENDP
_TEXT	ENDS
END
