; Listing generated by Microsoft (R) Optimizing Compiler Version 18.00.40629.0 

	TITLE	E:\mywork\client\PC2.0TRUNK\PC2.0\third_party\libAMRPlayer\AMR\vadname.c
	.686P
	.XMM
	include listing.inc
	.model	flat

INCLUDELIB MSVCRTD
INCLUDELIB OLDNAMES

PUBLIC	_vadname_id
CONST	SEGMENT
_vadname_id DB	'@(#)$Id $$Id $', 00H
	ORG $+1
?name@?1??get_vadname@@9@9 DB 'unknown', 00H		; `get_vadname'::`2'::name
CONST	ENDS
PUBLIC	_get_vadname
EXTRN	__RTC_InitBase:PROC
EXTRN	__RTC_Shutdown:PROC
;	COMDAT rtc$TMZ
rtc$TMZ	SEGMENT
__RTC_Shutdown.rtc$TMZ DD FLAT:__RTC_Shutdown
rtc$TMZ	ENDS
;	COMDAT rtc$IMZ
rtc$IMZ	SEGMENT
__RTC_InitBase.rtc$IMZ DD FLAT:__RTC_InitBase
rtc$IMZ	ENDS
; Function compile flags: /Odtp /RTCsu /ZI
; File e:\mywork\client\pc2.0trunk\pc2.0\third_party\libamrplayer\amr\vadname.c
;	COMDAT _get_vadname
_TEXT	SEGMENT
_get_vadname PROC					; COMDAT

; 39   : {

  00000	55		 push	 ebp
  00001	8b ec		 mov	 ebp, esp
  00003	81 ec c0 00 00
	00		 sub	 esp, 192		; 000000c0H
  00009	53		 push	 ebx
  0000a	56		 push	 esi
  0000b	57		 push	 edi
  0000c	8d bd 40 ff ff
	ff		 lea	 edi, DWORD PTR [ebp-192]
  00012	b9 30 00 00 00	 mov	 ecx, 48			; 00000030H
  00017	b8 cc cc cc cc	 mov	 eax, -858993460		; ccccccccH
  0001c	f3 ab		 rep stosd

; 40   :     static const char name[] = 
; 41   : #if defined(VAD1)
; 42   :         "VAD1 (ENS)";
; 43   : #elif defined(VAD2)
; 44   :         "VAD2 (Motorola)";
; 45   : #else
; 46   :         "unknown";
; 47   : #endif
; 48   :     
; 49   :     return name;

  0001e	b8 00 00 00 00	 mov	 eax, OFFSET ?name@?1??get_vadname@@9@9

; 50   : }

  00023	5f		 pop	 edi
  00024	5e		 pop	 esi
  00025	5b		 pop	 ebx
  00026	8b e5		 mov	 esp, ebp
  00028	5d		 pop	 ebp
  00029	c3		 ret	 0
_get_vadname ENDP
_TEXT	ENDS
END
