; Listing generated by Microsoft (R) Optimizing Compiler Version 18.00.40629.0 

	TITLE	E:\mywork\client\PC2.0TRUNK\PC2.0\third_party\libAMRPlayer\AMR\d8_31pf.c
	.686P
	.XMM
	include listing.inc
	.model	flat

INCLUDELIB OLDNAMES

PUBLIC	_dec_8i40_31bits
; Function compile flags: /Ogtp
; File e:\mywork\client\pc2.0trunk\pc2.0\third_party\libamrplayer\amr\d8_31pf.c
; File e:\mywork\client\pc2.0trunk\pc2.0\third_party\libamrplayer\amr\basicop2.c
; File e:\mywork\client\pc2.0trunk\pc2.0\third_party\libamrplayer\amr\d8_31pf.c
; File e:\mywork\client\pc2.0trunk\pc2.0\third_party\libamrplayer\amr\basicop2.c
; File e:\mywork\client\pc2.0trunk\pc2.0\third_party\libamrplayer\amr\d8_31pf.c
; File e:\mywork\client\pc2.0trunk\pc2.0\third_party\libamrplayer\amr\basicop2.c
; File e:\mywork\client\pc2.0trunk\pc2.0\third_party\libamrplayer\amr\d8_31pf.c
; File e:\mywork\client\pc2.0trunk\pc2.0\third_party\libamrplayer\amr\basicop2.c
; File e:\mywork\client\pc2.0trunk\pc2.0\third_party\libamrplayer\amr\d8_31pf.c
; File e:\mywork\client\pc2.0trunk\pc2.0\third_party\libamrplayer\amr\basicop2.c
; File e:\mywork\client\pc2.0trunk\pc2.0\third_party\libamrplayer\amr\d8_31pf.c
;	COMDAT _dec_8i40_31bits
_TEXT	SEGMENT
_cod$GSCopy$1$ = -36					; size = 4
tv694 = -32						; size = 4
_linear_codewords$ = -28				; size = 16
_linear_signs$ = -12					; size = 8
__$ArrayPad$ = -4					; size = 4
_dec_8i40_31bits PROC					; COMDAT
; _index$ = ecx
; _cod$ = edx

; 177  : {

  00000	55		 push	 ebp
  00001	8b ec		 mov	 ebp, esp
  00003	83 ec 24	 sub	 esp, 36			; 00000024H
  00006	a1 00 00 00 00	 mov	 eax, DWORD PTR ___security_cookie
  0000b	33 c5		 xor	 eax, ebp
  0000d	89 45 fc	 mov	 DWORD PTR __$ArrayPad$[ebp], eax
  00010	53		 push	 ebx
  00011	56		 push	 esi
  00012	57		 push	 edi
  00013	8b fa		 mov	 edi, edx

; 178  :     Word16 i, j, pos1, pos2, sign;
; 179  :     Word16 linear_signs[NB_TRACK_MR102];
; 180  :     Word16 linear_codewords[NB_PULSE];
; 181  :     
; 182  :     for (i = 0; i < L_CODE; i++)
; 183  :     {
; 184  :         cod[i] = 0;                                    move16 (); 
; 185  :     }
; 186  :     
; 187  :     decompress_code (index, linear_signs, linear_codewords);

  00015	8d 45 e4	 lea	 eax, DWORD PTR _linear_codewords$[ebp]
  00018	0f 57 c0	 xorps	 xmm0, xmm0
  0001b	89 7d dc	 mov	 DWORD PTR _cod$GSCopy$1$[ebp], edi
  0001e	50		 push	 eax
  0001f	8d 55 f4	 lea	 edx, DWORD PTR _linear_signs$[ebp]
  00022	f3 0f 7f 07	 movdqu	 XMMWORD PTR [edi], xmm0
  00026	f3 0f 7f 47 10	 movdqu	 XMMWORD PTR [edi+16], xmm0
  0002b	f3 0f 7f 47 20	 movdqu	 XMMWORD PTR [edi+32], xmm0
  00030	f3 0f 7f 47 30	 movdqu	 XMMWORD PTR [edi+48], xmm0
  00035	f3 0f 7f 47 40	 movdqu	 XMMWORD PTR [edi+64], xmm0
  0003a	e8 00 00 00 00	 call	 _decompress_code
  0003f	ba 04 00 00 00	 mov	 edx, 4
  00044	83 c4 04	 add	 esp, 4

; 188  :     
; 189  :     /* decode the positions and signs of pulses and build the codeword */
; 190  : 
; 191  :     for (j = 0; j < NB_TRACK_MR102; j++)

  00047	33 db		 xor	 ebx, ebx
  00049	89 55 e0	 mov	 DWORD PTR tv694[ebp], edx
  0004c	bf ff 1f 00 00	 mov	 edi, 8191		; 00001fffH
$LL6@dec_8i40_3:
; File e:\mywork\client\pc2.0trunk\pc2.0\third_party\libamrplayer\amr\basicop2.c

; 485  :     L_var_out = (Word32) var1 *(Word32) var2;

  00051	0f bf 44 1d e4	 movsx	 eax, WORD PTR _linear_codewords$[ebp+ebx]
  00056	c1 e0 02	 shl	 eax, 2

; 486  : 
; 487  :     if (L_var_out != (Word32) 0x40000000L)

  00059	3d 00 00 00 40	 cmp	 eax, 1073741824		; 40000000H
  0005e	74 0c		 je	 SHORT $LN15@dec_8i40_3

; 488  :     {
; 489  :         L_var_out *= 2;

  00060	03 c0		 add	 eax, eax

; 537  : #if (WMOPS)
; 538  :     multiCounter[currCounter].negate++;
; 539  : #endif
; 540  :     return (var_out);
; 541  : }
; 542  : 
; 543  : /*___________________________________________________________________________
; 544  :  |                                                                           |
; 545  :  |   Function Name : extract_h                                               |
; 546  :  |                                                                           |
; 547  :  |   Purpose :                                                               |
; 548  :  |                                                                           |
; 549  :  |   Return the 16 MSB of L_var1.                                            |
; 550  :  |                                                                           |
; 551  :  |   Complexity weight : 1                                                   |
; 552  :  |                                                                           |
; 553  :  |   Inputs :                                                                |
; 554  :  |                                                                           |
; 555  :  |    L_var1                                                                 |
; 556  :  |             32 bit long signed integer (Word32 ) whose value falls in the |
; 557  :  |             range : 0x8000 0000 <= L_var1 <= 0x7fff ffff.                 |
; 558  :  |                                                                           |
; 559  :  |   Outputs :                                                               |
; 560  :  |                                                                           |
; 561  :  |    none                                                                   |
; 562  :  |                                                                           |
; 563  :  |   Return Value :                                                          |
; 564  :  |                                                                           |
; 565  :  |    var_out                                                                |
; 566  :  |             16 bit short signed integer (Word16) whose value falls in the |
; 567  :  |             range : 0xffff 8000 <= var_out <= 0x0000 7fff.                |
; 568  :  |___________________________________________________________________________|
; 569  : */
; 570  : 
; 571  : Word16 extract_h (Word32 L_var1)
; 572  : {
; 573  :     Word16 var_out;
; 574  : 
; 575  :     var_out = (Word16) (L_var1 >> 16);
; 576  : #if (WMOPS)
; 577  :     multiCounter[currCounter].extract_h++;
; 578  : #endif
; 579  :     return (var_out);
; 580  : }
; 581  : 
; 582  : /*___________________________________________________________________________
; 583  :  |                                                                           |
; 584  :  |   Function Name : extract_l                                               |
; 585  :  |                                                                           |
; 586  :  |   Purpose :                                                               |
; 587  :  |                                                                           |
; 588  :  |   Return the 16 LSB of L_var1.                                            |
; 589  :  |                                                                           |
; 590  :  |   Complexity weight : 1                                                   |
; 591  :  |                                                                           |
; 592  :  |   Inputs :                                                                |
; 593  :  |                                                                           |
; 594  :  |    L_var1                                                                 |
; 595  :  |             32 bit long signed integer (Word32 ) whose value falls in the |
; 596  :  |             range : 0x8000 0000 <= L_var1 <= 0x7fff ffff.                 |
; 597  :  |                                                                           |
; 598  :  |   Outputs :                                                               |
; 599  :  |                                                                           |
; 600  :  |    none                                                                   |
; 601  :  |                                                                           |
; 602  :  |   Return Value :                                                          |
; 603  :  |                                                                           |
; 604  :  |    var_out                                                                |
; 605  :  |             16 bit short signed integer (Word16) whose value falls in the |
; 606  :  |             range : 0xffff 8000 <= var_out <= 0x0000 7fff.                |
; 607  :  |___________________________________________________________________________|
; 608  : */
; 609  : 
; 610  : Word16 extract_l (Word32 L_var1)
; 611  : {
; 612  :     Word16 var_out;
; 613  : 
; 614  :     var_out = (Word16) L_var1;
; 615  : #if (WMOPS)
; 616  :     multiCounter[currCounter].extract_l++;
; 617  : #endif
; 618  :     return (var_out);
; 619  : }
; 620  : 
; 621  : /*___________________________________________________________________________
; 622  :  |                                                                           |
; 623  :  |   Function Name : round                                                   |
; 624  :  |                                                                           |
; 625  :  |   Purpose :                                                               |
; 626  :  |                                                                           |
; 627  :  |   Round the lower 16 bits of the 32 bit input number into the MS 16 bits  |
; 628  :  |   with saturation. Shift the resulting bits right by 16 and return the 16 |
; 629  :  |   bit number:                                                             |
; 630  :  |               round(L_var1) = extract_h(L_add(L_var1,32768))              |
; 631  :  |                                                                           |
; 632  :  |   Complexity weight : 1                                                   |
; 633  :  |                                                                           |
; 634  :  |   Inputs :                                                                |
; 635  :  |                                                                           |
; 636  :  |    L_var1                                                                 |
; 637  :  |             32 bit long signed integer (Word32 ) whose value falls in the |
; 638  :  |             range : 0x8000 0000 <= L_var1 <= 0x7fff ffff.                 |
; 639  :  |                                                                           |
; 640  :  |   Outputs :                                                               |
; 641  :  |                                                                           |
; 642  :  |    none                                                                   |
; 643  :  |                                                                           |
; 644  :  |   Return Value :                                                          |
; 645  :  |                                                                           |
; 646  :  |    var_out                                                                |
; 647  :  |             16 bit short signed integer (Word16) whose value falls in the |
; 648  :  |             range : 0xffff 8000 <= var_out <= 0x0000 7fff.                |
; 649  :  |___________________________________________________________________________|
; 650  : */
; 651  : 
; 652  : Word16 round (Word32 L_var1)
; 653  : {
; 654  :     Word16 var_out;
; 655  :     Word32 L_rounded;
; 656  : 
; 657  :     L_rounded = L_add (L_var1, (Word32) 0x00008000L);
; 658  : #if (WMOPS)
; 659  :     multiCounter[currCounter].L_add--;
; 660  : #endif
; 661  :     var_out = extract_h (L_rounded);
; 662  : #if (WMOPS)
; 663  :     multiCounter[currCounter].extract_h--;
; 664  :     multiCounter[currCounter].round++;
; 665  : #endif
; 666  :     return (var_out);
; 667  : }
; 668  : 
; 669  : /*___________________________________________________________________________
; 670  :  |                                                                           |
; 671  :  |   Function Name : L_mac                                                   |
; 672  :  |                                                                           |
; 673  :  |   Purpose :                                                               |
; 674  :  |                                                                           |
; 675  :  |   Multiply var1 by var2 and shift the result left by 1. Add the 32 bit    |
; 676  :  |   result to L_var3 with saturation, return a 32 bit result:               |
; 677  :  |        L_mac(L_var3,var1,var2) = L_add(L_var3,L_mult(var1,var2)).         |
; 678  :  |                                                                           |
; 679  :  |   Complexity weight : 1                                                   |
; 680  :  |                                                                           |
; 681  :  |   Inputs :                                                                |
; 682  :  |                                                                           |
; 683  :  |    L_var3   32 bit long signed integer (Word32) whose value falls in the  |
; 684  :  |             range : 0x8000 0000 <= L_var3 <= 0x7fff ffff.                 |
; 685  :  |                                                                           |
; 686  :  |    var1                                                                   |
; 687  :  |             16 bit short signed integer (Word16) whose value falls in the |
; 688  :  |             range : 0xffff 8000 <= var1 <= 0x0000 7fff.                   |
; 689  :  |                                                                           |
; 690  :  |    var2                                                                   |
; 691  :  |             16 bit short signed integer (Word16) whose value falls in the |
; 692  :  |             range : 0xffff 8000 <= var1 <= 0x0000 7fff.                   |
; 693  :  |                                                                           |
; 694  :  |   Outputs :                                                               |
; 695  :  |                                                                           |
; 696  :  |    none                                                                   |
; 697  :  |                                                                           |
; 698  :  |   Return Value :                                                          |
; 699  :  |                                                                           |
; 700  :  |    L_var_out                                                              |
; 701  :  |             32 bit long signed integer (Word32) whose value falls in the  |
; 702  :  |             range : 0x8000 0000 <= L_var_out <= 0x7fff ffff.              |
; 703  :  |___________________________________________________________________________|
; 704  : */
; 705  : 
; 706  : Word32 L_mac (Word32 L_var3, Word16 var1, Word16 var2)
; 707  : {
; 708  :     Word32 L_var_out;
; 709  :     Word32 L_product;
; 710  : 
; 711  :     L_product = L_mult (var1, var2);
; 712  : #if (WMOPS)
; 713  :     multiCounter[currCounter].L_mult--;
; 714  : #endif
; 715  :     L_var_out = L_add (L_var3, L_product);
; 716  : #if (WMOPS)
; 717  :     multiCounter[currCounter].L_add--;
; 718  :     multiCounter[currCounter].L_mac++;
; 719  : #endif
; 720  :     return (L_var_out);
; 721  : }
; 722  : 
; 723  : /*___________________________________________________________________________
; 724  :  |                                                                           |
; 725  :  |   Function Name : L_msu                                                   |
; 726  :  |                                                                           |
; 727  :  |   Purpose :                                                               |
; 728  :  |                                                                           |
; 729  :  |   Multiply var1 by var2 and shift the result left by 1. Subtract the 32   |
; 730  :  |   bit result to L_var3 with saturation, return a 32 bit result:           |
; 731  :  |        L_msu(L_var3,var1,var2) = L_sub(L_var3,L_mult(var1,var2)).         |
; 732  :  |                                                                           |
; 733  :  |   Complexity weight : 1                                                   |
; 734  :  |                                                                           |
; 735  :  |   Inputs :                                                                |
; 736  :  |                                                                           |
; 737  :  |    L_var3   32 bit long signed integer (Word32) whose value falls in the  |
; 738  :  |             range : 0x8000 0000 <= L_var3 <= 0x7fff ffff.                 |
; 739  :  |                                                                           |
; 740  :  |    var1                                                                   |
; 741  :  |             16 bit short signed integer (Word16) whose value falls in the |
; 742  :  |             range : 0xffff 8000 <= var1 <= 0x0000 7fff.                   |
; 743  :  |                                                                           |
; 744  :  |    var2                                                                   |
; 745  :  |             16 bit short signed integer (Word16) whose value falls in the |
; 746  :  |             range : 0xffff 8000 <= var1 <= 0x0000 7fff.                   |
; 747  :  |                                                                           |
; 748  :  |   Outputs :                                                               |
; 749  :  |                                                                           |
; 750  :  |    none                                                                   |
; 751  :  |                                                                           |
; 752  :  |   Return Value :                                                          |
; 753  :  |                                                                           |
; 754  :  |    L_var_out                                                              |
; 755  :  |             32 bit long signed integer (Word32) whose value falls in the  |
; 756  :  |             range : 0x8000 0000 <= L_var_out <= 0x7fff ffff.              |
; 757  :  |___________________________________________________________________________|
; 758  : */
; 759  : 
; 760  : Word32 L_msu (Word32 L_var3, Word16 var1, Word16 var2)
; 761  : {
; 762  :     Word32 L_var_out;
; 763  :     Word32 L_product;
; 764  : 
; 765  :     L_product = L_mult (var1, var2);
; 766  : #if (WMOPS)
; 767  :     multiCounter[currCounter].L_mult--;
; 768  : #endif
; 769  :     L_var_out = L_sub (L_var3, L_product);
; 770  : #if (WMOPS)
; 771  :     multiCounter[currCounter].L_sub--;
; 772  :     multiCounter[currCounter].L_msu++;
; 773  : #endif
; 774  :     return (L_var_out);
; 775  : }
; 776  : 
; 777  : /*___________________________________________________________________________
; 778  :  |                                                                           |
; 779  :  |   Function Name : L_macNs                                                 |
; 780  :  |                                                                           |
; 781  :  |   Purpose :                                                               |
; 782  :  |                                                                           |
; 783  :  |   Multiply var1 by var2 and shift the result left by 1. Add the 32 bit    |
; 784  :  |   result to L_var3 without saturation, return a 32 bit result. Generate   |
; 785  :  |   carry and overflow values :                                             |
; 786  :  |        L_macNs(L_var3,var1,var2) = L_add_c(L_var3,L_mult(var1,var2)).     |
; 787  :  |                                                                           |
; 788  :  |   Complexity weight : 1                                                   |
; 789  :  |                                                                           |
; 790  :  |   Inputs :                                                                |
; 791  :  |                                                                           |
; 792  :  |    L_var3   32 bit long signed integer (Word32) whose value falls in the  |
; 793  :  |             range : 0x8000 0000 <= L_var3 <= 0x7fff ffff.                 |
; 794  :  |                                                                           |
; 795  :  |    var1                                                                   |
; 796  :  |             16 bit short signed integer (Word16) whose value falls in the |
; 797  :  |             range : 0xffff 8000 <= var1 <= 0x0000 7fff.                   |
; 798  :  |                                                                           |
; 799  :  |    var2                                                                   |
; 800  :  |             16 bit short signed integer (Word16) whose value falls in the |
; 801  :  |             range : 0xffff 8000 <= var1 <= 0x0000 7fff.                   |
; 802  :  |                                                                           |
; 803  :  |   Outputs :                                                               |
; 804  :  |                                                                           |
; 805  :  |    none                                                                   |
; 806  :  |                                                                           |
; 807  :  |   Return Value :                                                          |
; 808  :  |                                                                           |
; 809  :  |    L_var_out                                                              |
; 810  :  |             32 bit long signed integer (Word32) whose value falls in the  |
; 811  :  |             range : 0x8000 0000 <= L_var_out <= 0x7fff ffff.              |
; 812  :  |                                                                           |
; 813  :  |   Caution :                                                               |
; 814  :  |                                                                           |
; 815  :  |    In some cases the Carry flag has to be cleared or set before using     |
; 816  :  |    operators which take into account its value.                           |
; 817  :  |___________________________________________________________________________|
; 818  : */
; 819  : 
; 820  : Word32 L_macNs (Word32 L_var3, Word16 var1, Word16 var2)
; 821  : {
; 822  :     Word32 L_var_out;
; 823  : 
; 824  :     L_var_out = L_mult (var1, var2);
; 825  : #if (WMOPS)
; 826  :     multiCounter[currCounter].L_mult--;
; 827  : #endif
; 828  :     L_var_out = L_add_c (L_var3, L_var_out);
; 829  : #if (WMOPS)
; 830  :     multiCounter[currCounter].L_add_c--;
; 831  :     multiCounter[currCounter].L_macNs++;
; 832  : #endif
; 833  :     return (L_var_out);
; 834  : }
; 835  : 
; 836  : /*___________________________________________________________________________
; 837  :  |                                                                           |
; 838  :  |   Function Name : L_msuNs                                                 |
; 839  :  |                                                                           |
; 840  :  |   Purpose :                                                               |
; 841  :  |                                                                           |
; 842  :  |   Multiply var1 by var2 and shift the result left by 1. Subtract the 32   |
; 843  :  |   bit result from L_var3 without saturation, return a 32 bit result. Ge-  |
; 844  :  |   nerate carry and overflow values :                                      |
; 845  :  |        L_msuNs(L_var3,var1,var2) = L_sub_c(L_var3,L_mult(var1,var2)).     |
; 846  :  |                                                                           |
; 847  :  |   Complexity weight : 1                                                   |
; 848  :  |                                                                           |
; 849  :  |   Inputs :                                                                |
; 850  :  |                                                                           |
; 851  :  |    L_var3   32 bit long signed integer (Word32) whose value falls in the  |
; 852  :  |             range : 0x8000 0000 <= L_var3 <= 0x7fff ffff.                 |
; 853  :  |                                                                           |
; 854  :  |    var1                                                                   |
; 855  :  |             16 bit short signed integer (Word16) whose value falls in the |
; 856  :  |             range : 0xffff 8000 <= var1 <= 0x0000 7fff.                   |
; 857  :  |                                                                           |
; 858  :  |    var2                                                                   |
; 859  :  |             16 bit short signed integer (Word16) whose value falls in the |
; 860  :  |             range : 0xffff 8000 <= var1 <= 0x0000 7fff.                   |
; 861  :  |                                                                           |
; 862  :  |   Outputs :                                                               |
; 863  :  |                                                                           |
; 864  :  |    none                                                                   |
; 865  :  |                                                                           |
; 866  :  |   Return Value :                                                          |
; 867  :  |                                                                           |
; 868  :  |    L_var_out                                                              |
; 869  :  |             32 bit long signed integer (Word32) whose value falls in the  |
; 870  :  |             range : 0x8000 0000 <= L_var_out <= 0x7fff ffff.              |
; 871  :  |                                                                           |
; 872  :  |   Caution :                                                               |
; 873  :  |                                                                           |
; 874  :  |    In some cases the Carry flag has to be cleared or set before using     |
; 875  :  |    operators which take into account its value.                           |
; 876  :  |___________________________________________________________________________|
; 877  : */
; 878  : 
; 879  : Word32 L_msuNs (Word32 L_var3, Word16 var1, Word16 var2)
; 880  : {
; 881  :     Word32 L_var_out;
; 882  : 
; 883  :     L_var_out = L_mult (var1, var2);
; 884  : #if (WMOPS)
; 885  :     multiCounter[currCounter].L_mult--;
; 886  : #endif
; 887  :     L_var_out = L_sub_c (L_var3, L_var_out);
; 888  : #if (WMOPS)
; 889  :     multiCounter[currCounter].L_sub_c--;
; 890  :     multiCounter[currCounter].L_msuNs++;
; 891  : #endif
; 892  :     return (L_var_out);
; 893  : }
; 894  : 
; 895  : /*___________________________________________________________________________
; 896  :  |                                                                           |
; 897  :  |   Function Name : L_add                                                   |
; 898  :  |                                                                           |
; 899  :  |   Purpose :                                                               |
; 900  :  |                                                                           |
; 901  :  |   32 bits addition of the two 32 bits variables (L_var1+L_var2) with      |
; 902  :  |   overflow control and saturation; the result is set at +2147483647 when  |
; 903  :  |   overflow occurs or at -2147483648 when underflow occurs.                |
; 904  :  |                                                                           |
; 905  :  |   Complexity weight : 2                                                   |
; 906  :  |                                                                           |
; 907  :  |   Inputs :                                                                |
; 908  :  |                                                                           |
; 909  :  |    L_var1   32 bit long signed integer (Word32) whose value falls in the  |
; 910  :  |             range : 0x8000 0000 <= L_var3 <= 0x7fff ffff.                 |
; 911  :  |                                                                           |
; 912  :  |    L_var2   32 bit long signed integer (Word32) whose value falls in the  |
; 913  :  |             range : 0x8000 0000 <= L_var3 <= 0x7fff ffff.                 |
; 914  :  |                                                                           |
; 915  :  |   Outputs :                                                               |
; 916  :  |                                                                           |
; 917  :  |    none                                                                   |
; 918  :  |                                                                           |
; 919  :  |   Return Value :                                                          |
; 920  :  |                                                                           |
; 921  :  |    L_var_out                                                              |
; 922  :  |             32 bit long signed integer (Word32) whose value falls in the  |
; 923  :  |             range : 0x8000 0000 <= L_var_out <= 0x7fff ffff.              |
; 924  :  |___________________________________________________________________________|
; 925  : */
; 926  : 
; 927  : Word32 L_add (Word32 L_var1, Word32 L_var2)
; 928  : {
; 929  :     Word32 L_var_out;
; 930  : 
; 931  :     L_var_out = L_var1 + L_var2;
; 932  : 
; 933  :     if (((L_var1 ^ L_var2) & MIN_32) == 0)
; 934  :     {
; 935  :         if ((L_var_out ^ L_var1) & MIN_32)
; 936  :         {
; 937  :             L_var_out = (L_var1 < 0) ? MIN_32 : MAX_32;
; 938  :             Overflow = 1;
; 939  :         }
; 940  :     }
; 941  : #if (WMOPS)
; 942  :     multiCounter[currCounter].L_add++;
; 943  : #endif
; 944  :     return (L_var_out);
; 945  : }
; 946  : 
; 947  : /*___________________________________________________________________________
; 948  :  |                                                                           |
; 949  :  |   Function Name : L_sub                                                   |
; 950  :  |                                                                           |
; 951  :  |   Purpose :                                                               |
; 952  :  |                                                                           |
; 953  :  |   32 bits subtraction of the two 32 bits variables (L_var1-L_var2) with   |
; 954  :  |   overflow control and saturation; the result is set at +2147483647 when  |
; 955  :  |   overflow occurs or at -2147483648 when underflow occurs.                |
; 956  :  |                                                                           |
; 957  :  |   Complexity weight : 2                                                   |
; 958  :  |                                                                           |
; 959  :  |   Inputs :                                                                |
; 960  :  |                                                                           |
; 961  :  |    L_var1   32 bit long signed integer (Word32) whose value falls in the  |
; 962  :  |             range : 0x8000 0000 <= L_var3 <= 0x7fff ffff.                 |
; 963  :  |                                                                           |
; 964  :  |    L_var2   32 bit long signed integer (Word32) whose value falls in the  |
; 965  :  |             range : 0x8000 0000 <= L_var3 <= 0x7fff ffff.                 |
; 966  :  |                                                                           |
; 967  :  |   Outputs :                                                               |
; 968  :  |                                                                           |
; 969  :  |    none                                                                   |
; 970  :  |                                                                           |
; 971  :  |   Return Value :                                                          |
; 972  :  |                                                                           |
; 973  :  |    L_var_out                                                              |
; 974  :  |             32 bit long signed integer (Word32) whose value falls in the  |
; 975  :  |             range : 0x8000 0000 <= L_var_out <= 0x7fff ffff.              |
; 976  :  |___________________________________________________________________________|
; 977  : */
; 978  : 
; 979  : Word32 L_sub (Word32 L_var1, Word32 L_var2)
; 980  : {
; 981  :     Word32 L_var_out;
; 982  : 
; 983  :     L_var_out = L_var1 - L_var2;
; 984  : 
; 985  :     if (((L_var1 ^ L_var2) & MIN_32) != 0)
; 986  :     {
; 987  :         if ((L_var_out ^ L_var1) & MIN_32)
; 988  :         {
; 989  :             L_var_out = (L_var1 < 0L) ? MIN_32 : MAX_32;
; 990  :             Overflow = 1;
; 991  :         }
; 992  :     }
; 993  : #if (WMOPS)
; 994  :     multiCounter[currCounter].L_sub++;
; 995  : #endif
; 996  :     return (L_var_out);
; 997  : }
; 998  : 
; 999  : /*___________________________________________________________________________
; 1000 :  |                                                                           |
; 1001 :  |   Function Name : L_add_c                                                 |
; 1002 :  |                                                                           |
; 1003 :  |   Purpose :                                                               |
; 1004 :  |                                                                           |
; 1005 :  |   Performs 32 bits addition of the two 32 bits variables (L_var1+L_var2+C)|
; 1006 :  |   with carry. No saturation. Generate carry and Overflow values. The car- |
; 1007 :  |   ry and overflow values are binary variables which can be tested and as- |
; 1008 :  |   signed values.                                                          |
; 1009 :  |                                                                           |
; 1010 :  |   Complexity weight : 2                                                   |
; 1011 :  |                                                                           |
; 1012 :  |   Inputs :                                                                |
; 1013 :  |                                                                           |
; 1014 :  |    L_var1   32 bit long signed integer (Word32) whose value falls in the  |
; 1015 :  |             range : 0x8000 0000 <= L_var3 <= 0x7fff ffff.                 |
; 1016 :  |                                                                           |
; 1017 :  |    L_var2   32 bit long signed integer (Word32) whose value falls in the  |
; 1018 :  |             range : 0x8000 0000 <= L_var3 <= 0x7fff ffff.                 |
; 1019 :  |                                                                           |
; 1020 :  |   Outputs :                                                               |
; 1021 :  |                                                                           |
; 1022 :  |    none                                                                   |
; 1023 :  |                                                                           |
; 1024 :  |   Return Value :                                                          |
; 1025 :  |                                                                           |
; 1026 :  |    L_var_out                                                              |
; 1027 :  |             32 bit long signed integer (Word32) whose value falls in the  |
; 1028 :  |             range : 0x8000 0000 <= L_var_out <= 0x7fff ffff.              |
; 1029 :  |                                                                           |
; 1030 :  |   Caution :                                                               |
; 1031 :  |                                                                           |
; 1032 :  |    In some cases the Carry flag has to be cleared or set before using     |
; 1033 :  |    operators which take into account its value.                           |
; 1034 :  |___________________________________________________________________________|
; 1035 : */
; 1036 : Word32 L_add_c (Word32 L_var1, Word32 L_var2)
; 1037 : {
; 1038 :     Word32 L_var_out;
; 1039 :     Word32 L_test;
; 1040 :     Flag carry_int = 0;
; 1041 : 
; 1042 :     L_var_out = L_var1 + L_var2 + Carry;
; 1043 : 
; 1044 :     L_test = L_var1 + L_var2;
; 1045 : 
; 1046 :     if ((L_var1 > 0) && (L_var2 > 0) && (L_test < 0))
; 1047 :     {
; 1048 :         Overflow = 1;
; 1049 :         carry_int = 0;
; 1050 :     }
; 1051 :     else
; 1052 :     {
; 1053 :         if ((L_var1 < 0) && (L_var2 < 0))
; 1054 :         {
; 1055 :             if (L_test >= 0)
; 1056 : 	    {
; 1057 :                 Overflow = 1;
; 1058 :                 carry_int = 1;
; 1059 : 	    }
; 1060 :             else
; 1061 : 	    {
; 1062 :                 Overflow = 0;
; 1063 :                 carry_int = 1;
; 1064 : 	    }
; 1065 :         }
; 1066 :         else
; 1067 :         {
; 1068 :             if (((L_var1 ^ L_var2) < 0) && (L_test >= 0))
; 1069 :             {
; 1070 :                 Overflow = 0;
; 1071 :                 carry_int = 1;
; 1072 :             }
; 1073 :             else
; 1074 :             {
; 1075 :                 Overflow = 0;
; 1076 :                 carry_int = 0;
; 1077 :             }
; 1078 :         }
; 1079 :     }
; 1080 : 
; 1081 :     if (Carry)
; 1082 :     {
; 1083 :         if (L_test == MAX_32)
; 1084 :         {
; 1085 :             Overflow = 1;
; 1086 :             Carry = carry_int;
; 1087 :         }
; 1088 :         else
; 1089 :         {
; 1090 :             if (L_test == (Word32) 0xFFFFFFFFL)
; 1091 :             {
; 1092 :                 Carry = 1;
; 1093 :             }
; 1094 :             else
; 1095 :             {
; 1096 :                 Carry = carry_int;
; 1097 :             }
; 1098 :         }
; 1099 :     }
; 1100 :     else
; 1101 :     {
; 1102 :         Carry = carry_int;
; 1103 :     }
; 1104 : 
; 1105 : #if (WMOPS)
; 1106 :     multiCounter[currCounter].L_add_c++;
; 1107 : #endif
; 1108 :     return (L_var_out);
; 1109 : }
; 1110 : 
; 1111 : /*___________________________________________________________________________
; 1112 :  |                                                                           |
; 1113 :  |   Function Name : L_sub_c                                                 |
; 1114 :  |                                                                           |
; 1115 :  |   Purpose :                                                               |
; 1116 :  |                                                                           |
; 1117 :  |   Performs 32 bits subtraction of the two 32 bits variables with carry    |
; 1118 :  |   (borrow) : L_var1-L_var2-C. No saturation. Generate carry and Overflow  |
; 1119 :  |   values. The carry and overflow values are binary variables which can    |
; 1120 :  |   be tested and assigned values.                                          |
; 1121 :  |                                                                           |
; 1122 :  |   Complexity weight : 2                                                   |
; 1123 :  |                                                                           |
; 1124 :  |   Inputs :                                                                |
; 1125 :  |                                                                           |
; 1126 :  |    L_var1   32 bit long signed integer (Word32) whose value falls in the  |
; 1127 :  |             range : 0x8000 0000 <= L_var3 <= 0x7fff ffff.                 |
; 1128 :  |                                                                           |
; 1129 :  |    L_var2   32 bit long signed integer (Word32) whose value falls in the  |
; 1130 :  |             range : 0x8000 0000 <= L_var3 <= 0x7fff ffff.                 |
; 1131 :  |                                                                           |
; 1132 :  |   Outputs :                                                               |
; 1133 :  |                                                                           |
; 1134 :  |    none                                                                   |
; 1135 :  |                                                                           |
; 1136 :  |   Return Value :                                                          |
; 1137 :  |                                                                           |
; 1138 :  |    L_var_out                                                              |
; 1139 :  |             32 bit long signed integer (Word32) whose value falls in the  |
; 1140 :  |             range : 0x8000 0000 <= L_var_out <= 0x7fff ffff.              |
; 1141 :  |                                                                           |
; 1142 :  |   Caution :                                                               |
; 1143 :  |                                                                           |
; 1144 :  |    In some cases the Carry flag has to be cleared or set before using     |
; 1145 :  |    operators which take into account its value.                           |
; 1146 :  |___________________________________________________________________________|
; 1147 : */
; 1148 : 
; 1149 : Word32 L_sub_c (Word32 L_var1, Word32 L_var2)
; 1150 : {
; 1151 :     Word32 L_var_out;
; 1152 :     Word32 L_test;
; 1153 :     Flag carry_int = 0;
; 1154 : 
; 1155 :     if (Carry)
; 1156 :     {
; 1157 :         Carry = 0;
; 1158 :         if (L_var2 != MIN_32)
; 1159 :         {
; 1160 :             L_var_out = L_add_c (L_var1, -L_var2);
; 1161 : #if (WMOPS)
; 1162 :             multiCounter[currCounter].L_add_c--;
; 1163 : #endif
; 1164 :         }
; 1165 :         else
; 1166 :         {
; 1167 :             L_var_out = L_var1 - L_var2;
; 1168 :             if (L_var1 > 0L)
; 1169 :             {
; 1170 :                 Overflow = 1;
; 1171 :                 Carry = 0;
; 1172 :             }
; 1173 :         }
; 1174 :     }
; 1175 :     else
; 1176 :     {
; 1177 :         L_var_out = L_var1 - L_var2 - (Word32) 0X00000001L;
; 1178 :         L_test = L_var1 - L_var2;
; 1179 : 
; 1180 :         if ((L_test < 0) && (L_var1 > 0) && (L_var2 < 0))
; 1181 :         {
; 1182 :             Overflow = 1;
; 1183 :             carry_int = 0;
; 1184 :         }
; 1185 :         else if ((L_test > 0) && (L_var1 < 0) && (L_var2 > 0))
; 1186 :         {
; 1187 :             Overflow = 1;
; 1188 :             carry_int = 1;
; 1189 :         }
; 1190 :         else if ((L_test > 0) && ((L_var1 ^ L_var2) > 0))
; 1191 :         {
; 1192 :             Overflow = 0;
; 1193 :             carry_int = 1;
; 1194 :         }
; 1195 :         if (L_test == MIN_32)
; 1196 :         {
; 1197 :             Overflow = 1;
; 1198 :             Carry = carry_int;
; 1199 :         }
; 1200 :         else
; 1201 :         {
; 1202 :             Carry = carry_int;
; 1203 :         }
; 1204 :     }
; 1205 : 
; 1206 : #if (WMOPS)
; 1207 :     multiCounter[currCounter].L_sub_c++;
; 1208 : #endif
; 1209 :     return (L_var_out);
; 1210 : }
; 1211 : 
; 1212 : /*___________________________________________________________________________
; 1213 :  |                                                                           |
; 1214 :  |   Function Name : L_negate                                                |
; 1215 :  |                                                                           |
; 1216 :  |   Purpose :                                                               |
; 1217 :  |                                                                           |
; 1218 :  |   Negate the 32 bit variable L_var1 with saturation; saturate in the case |
; 1219 :  |   where input is -2147483648 (0x8000 0000).                               |
; 1220 :  |                                                                           |
; 1221 :  |   Complexity weight : 2                                                   |
; 1222 :  |                                                                           |
; 1223 :  |   Inputs :                                                                |
; 1224 :  |                                                                           |
; 1225 :  |    L_var1   32 bit long signed integer (Word32) whose value falls in the  |
; 1226 :  |             range : 0x8000 0000 <= L_var3 <= 0x7fff ffff.                 |
; 1227 :  |                                                                           |
; 1228 :  |   Outputs :                                                               |
; 1229 :  |                                                                           |
; 1230 :  |    none                                                                   |
; 1231 :  |                                                                           |
; 1232 :  |   Return Value :                                                          |
; 1233 :  |                                                                           |
; 1234 :  |    L_var_out                                                              |
; 1235 :  |             32 bit long signed integer (Word32) whose value falls in the  |
; 1236 :  |             range : 0x8000 0000 <= L_var_out <= 0x7fff ffff.              |
; 1237 :  |___________________________________________________________________________|
; 1238 : */
; 1239 : 
; 1240 : Word32 L_negate (Word32 L_var1)
; 1241 : {
; 1242 :     Word32 L_var_out;
; 1243 : 
; 1244 :     L_var_out = (L_var1 == MIN_32) ? MAX_32 : -L_var1;
; 1245 : #if (WMOPS)
; 1246 :     multiCounter[currCounter].L_negate++;
; 1247 : #endif
; 1248 :     return (L_var_out);
; 1249 : }
; 1250 : 
; 1251 : /*___________________________________________________________________________
; 1252 :  |                                                                           |
; 1253 :  |   Function Name : mult_r                                                  |
; 1254 :  |                                                                           |
; 1255 :  |   Purpose :                                                               |
; 1256 :  |                                                                           |
; 1257 :  |   Same as mult with rounding, i.e.:                                       |
; 1258 :  |     mult_r(var1,var2) = extract_l(L_shr(((var1 * var2) + 16384),15)) and  |
; 1259 :  |     mult_r(-32768,-32768) = 32767.                                        |
; 1260 :  |                                                                           |
; 1261 :  |   Complexity weight : 2                                                   |
; 1262 :  |                                                                           |
; 1263 :  |   Inputs :                                                                |
; 1264 :  |                                                                           |
; 1265 :  |    var1                                                                   |
; 1266 :  |             16 bit short signed integer (Word16) whose value falls in the |
; 1267 :  |             range : 0xffff 8000 <= var1 <= 0x0000 7fff.                   |
; 1268 :  |                                                                           |
; 1269 :  |    var2                                                                   |
; 1270 :  |             16 bit short signed integer (Word16) whose value falls in the |
; 1271 :  |             range : 0xffff 8000 <= var1 <= 0x0000 7fff.                   |
; 1272 :  |                                                                           |
; 1273 :  |   Outputs :                                                               |
; 1274 :  |                                                                           |
; 1275 :  |    none                                                                   |
; 1276 :  |                                                                           |
; 1277 :  |   Return Value :                                                          |
; 1278 :  |                                                                           |
; 1279 :  |    var_out                                                                |
; 1280 :  |             16 bit short signed integer (Word16) whose value falls in the |
; 1281 :  |             range : 0xffff 8000 <= var_out <= 0x0000 7fff.                |
; 1282 :  |___________________________________________________________________________|
; 1283 : */
; 1284 : 
; 1285 : Word16 mult_r (Word16 var1, Word16 var2)
; 1286 : {
; 1287 :     Word16 var_out;
; 1288 :     Word32 L_product_arr;
; 1289 : 
; 1290 :     L_product_arr = (Word32) var1 *(Word32) var2;       /* product */
; 1291 :     L_product_arr += (Word32) 0x00004000L;      /* round */
; 1292 :     L_product_arr &= (Word32) 0xffff8000L;
; 1293 :     L_product_arr >>= 15;       /* shift */
; 1294 : 
; 1295 :     if (L_product_arr & (Word32) 0x00010000L)   /* sign extend when necessary */
; 1296 :     {
; 1297 :         L_product_arr |= (Word32) 0xffff0000L;
; 1298 :     }
; 1299 :     var_out = saturate (L_product_arr);
; 1300 : #if (WMOPS)
; 1301 :     multiCounter[currCounter].mult_r++;
; 1302 : #endif
; 1303 :     return (var_out);
; 1304 : }
; 1305 : 
; 1306 : /*___________________________________________________________________________
; 1307 :  |                                                                           |
; 1308 :  |   Function Name : L_shl                                                   |
; 1309 :  |                                                                           |
; 1310 :  |   Purpose :                                                               |
; 1311 :  |                                                                           |
; 1312 :  |   Arithmetically shift the 32 bit input L_var1 left var2 positions. Zero  |
; 1313 :  |   fill the var2 LSB of the result. If var2 is negative, arithmetically    |
; 1314 :  |   shift L_var1 right by -var2 with sign extension. Saturate the result in |
; 1315 :  |   case of underflows or overflows.                                        |
; 1316 :  |                                                                           |
; 1317 :  |   Complexity weight : 2                                                   |
; 1318 :  |                                                                           |
; 1319 :  |   Inputs :                                                                |
; 1320 :  |                                                                           |
; 1321 :  |    L_var1   32 bit long signed integer (Word32) whose value falls in the  |
; 1322 :  |             range : 0x8000 0000 <= L_var3 <= 0x7fff ffff.                 |
; 1323 :  |                                                                           |
; 1324 :  |    var2                                                                   |
; 1325 :  |             16 bit short signed integer (Word16) whose value falls in the |
; 1326 :  |             range : 0xffff 8000 <= var1 <= 0x0000 7fff.                   |
; 1327 :  |                                                                           |
; 1328 :  |   Outputs :                                                               |
; 1329 :  |                                                                           |
; 1330 :  |    none                                                                   |
; 1331 :  |                                                                           |
; 1332 :  |   Return Value :                                                          |
; 1333 :  |                                                                           |
; 1334 :  |    L_var_out                                                              |
; 1335 :  |             32 bit long signed integer (Word32) whose value falls in the  |
; 1336 :  |             range : 0x8000 0000 <= L_var_out <= 0x7fff ffff.              |
; 1337 :  |___________________________________________________________________________|
; 1338 : */
; 1339 : 
; 1340 : Word32 L_shl (Word32 L_var1, Word16 var2)
; 1341 : {
; 1342 :     Word32 L_var_out;
; 1343 : 
; 1344 :     if (var2 <= 0)
; 1345 :     {
; 1346 :         if (var2 < -32)
; 1347 :             var2 = -32;
; 1348 :         L_var_out = L_shr (L_var1, -var2);
; 1349 : #if (WMOPS)
; 1350 :         multiCounter[currCounter].L_shr--;
; 1351 : #endif
; 1352 :     }
; 1353 :     else
; 1354 :     {
; 1355 :         for (; var2 > 0; var2--)
; 1356 :         {
; 1357 :             if (L_var1 > (Word32) 0X3fffffffL)
; 1358 :             {
; 1359 :                 Overflow = 1;
; 1360 :                 L_var_out = MAX_32;
; 1361 :                 break;
; 1362 :             }
; 1363 :             else
; 1364 :             {
; 1365 :                 if (L_var1 < (Word32) 0xc0000000L)
; 1366 :                 {
; 1367 :                     Overflow = 1;
; 1368 :                     L_var_out = MIN_32;
; 1369 :                     break;
; 1370 :                 }
; 1371 :             }
; 1372 :             L_var1 *= 2;
; 1373 :             L_var_out = L_var1;
; 1374 :         }
; 1375 :     }
; 1376 : #if (WMOPS)
; 1377 :     multiCounter[currCounter].L_shl++;
; 1378 : #endif
; 1379 :     return (L_var_out);
; 1380 : }
; 1381 : 
; 1382 : /*___________________________________________________________________________
; 1383 :  |                                                                           |
; 1384 :  |   Function Name : L_shr                                                   |
; 1385 :  |                                                                           |
; 1386 :  |   Purpose :                                                               |
; 1387 :  |                                                                           |
; 1388 :  |   Arithmetically shift the 32 bit input L_var1 right var2 positions with  |
; 1389 :  |   sign extension. If var2 is negative, arithmetically shift L_var1 left   |
; 1390 :  |   by -var2 and zero fill the -var2 LSB of the result. Saturate the result |
; 1391 :  |   in case of underflows or overflows.                                     |
; 1392 :  |                                                                           |
; 1393 :  |   Complexity weight : 2                                                   |
; 1394 :  |                                                                           |
; 1395 :  |   Inputs :                                                                |
; 1396 :  |                                                                           |
; 1397 :  |    L_var1   32 bit long signed integer (Word32) whose value falls in the  |
; 1398 :  |             range : 0x8000 0000 <= L_var3 <= 0x7fff ffff.                 |
; 1399 :  |                                                                           |
; 1400 :  |    var2                                                                   |
; 1401 :  |             16 bit short signed integer (Word16) whose value falls in the |
; 1402 :  |             range : 0xffff 8000 <= var1 <= 0x0000 7fff.                   |
; 1403 :  |                                                                           |
; 1404 :  |   Outputs :                                                               |
; 1405 :  |                                                                           |
; 1406 :  |    none                                                                   |
; 1407 :  |                                                                           |
; 1408 :  |   Return Value :                                                          |
; 1409 :  |                                                                           |
; 1410 :  |    L_var_out                                                              |
; 1411 :  |             32 bit long signed integer (Word32) whose value falls in the  |
; 1412 :  |             range : 0x8000 0000 <= L_var_out <= 0x7fff ffff.              |
; 1413 :  |___________________________________________________________________________|
; 1414 : */
; 1415 : 
; 1416 : Word32 L_shr (Word32 L_var1, Word16 var2)
; 1417 : {
; 1418 :     Word32 L_var_out;
; 1419 : 
; 1420 :     if (var2 < 0)
; 1421 :     {
; 1422 :         if (var2 < -32)
; 1423 :             var2 = -32;
; 1424 :         L_var_out = L_shl (L_var1, -var2);
; 1425 : #if (WMOPS)
; 1426 :         multiCounter[currCounter].L_shl--;
; 1427 : #endif
; 1428 :     }
; 1429 :     else
; 1430 :     {
; 1431 :         if (var2 >= 31)
; 1432 :         {
; 1433 :             L_var_out = (L_var1 < 0L) ? -1 : 0;
; 1434 :         }
; 1435 :         else
; 1436 :         {
; 1437 :             if (L_var1 < 0)

  00062	79 17		 jns	 SHORT $LN19@dec_8i40_3

; 1438 :             {
; 1439 :                 L_var_out = ~((~L_var1) >> var2);

  00064	f7 d0		 not	 eax
  00066	d1 f8		 sar	 eax, 1
  00068	f7 d0		 not	 eax

; 1440 :             }
; 1441 :             else

  0006a	eb 11		 jmp	 SHORT $LN18@dec_8i40_3
$LN15@dec_8i40_3:

; 490  :     }
; 491  :     else
; 492  :     {
; 493  :         Overflow = 1;

  0006c	c7 05 00 00 00
	00 01 00 00 00	 mov	 DWORD PTR _Overflow, 1

; 494  :         L_var_out = MAX_32;

  00076	b8 ff ff ff 7f	 mov	 eax, 2147483647		; 7fffffffH
$LN19@dec_8i40_3:

; 1442 :             {
; 1443 :                 L_var_out = L_var1 >> var2;

  0007b	d1 f8		 sar	 eax, 1
$LN18@dec_8i40_3:

; 139  :     L_sum = (Word32) var1 + var2;

  0007d	8d 72 fc	 lea	 esi, DWORD PTR [edx-4]
  00080	98		 cwde
  00081	03 c6		 add	 eax, esi

; 79   :     if (L_var1 > 0X00007fffL)

  00083	3d ff 7f 00 00	 cmp	 eax, 32767		; 00007fffH
  00088	7e 11		 jle	 SHORT $LN45@dec_8i40_3

; 80   :     {
; 81   :         Overflow = 1;

  0008a	c7 05 00 00 00
	00 01 00 00 00	 mov	 DWORD PTR _Overflow, 1

; 82   :         var_out = MAX_16;

  00094	b8 ff 7f 00 00	 mov	 eax, 32767		; 00007fffH
  00099	eb 1b		 jmp	 SHORT $LN42@dec_8i40_3
$LN45@dec_8i40_3:

; 83   :     }
; 84   :     else if (L_var1 < (Word32) 0xffff8000L)

  0009b	3d 00 80 ff ff	 cmp	 eax, -32768		; ffff8000H
  000a0	7d 11		 jge	 SHORT $LN43@dec_8i40_3

; 85   :     {
; 86   :         Overflow = 1;

  000a2	c7 05 00 00 00
	00 01 00 00 00	 mov	 DWORD PTR _Overflow, 1

; 87   :         var_out = MIN_16;

  000ac	b8 00 80 ff ff	 mov	 eax, -32768		; ffff8000H

; 88   :     }
; 89   :     else

  000b1	eb 03		 jmp	 SHORT $LN42@dec_8i40_3
$LN43@dec_8i40_3:

; 90   :     {
; 91   :         var_out = extract_l (L_var1);

  000b3	0f b7 c0	 movzx	 eax, ax
$LN42@dec_8i40_3:
; File e:\mywork\client\pc2.0trunk\pc2.0\third_party\libamrplayer\amr\d8_31pf.c

; 200  :        if (linear_signs[j] == 0)

  000b6	66 83 7c 1d f4
	00		 cmp	 WORD PTR _linear_signs$[ebp+ebx], 0
  000bc	b9 01 e0 ff ff	 mov	 ecx, -8191		; ffffe001H
  000c1	0f 44 cf	 cmove	 ecx, edi

; 201  :        {
; 202  :           sign = POS_CODE;                             move16 (); /* +1.0 */
; 203  :        }
; 204  :        else
; 205  :        {
; 206  :           sign = -NEG_CODE;                            move16 (); /* -1.0 */
; 207  :        }
; 208  :        
; 209  :        cod[pos1] = sign;                               move16 (); 

  000c4	0f bf f8	 movsx	 edi, ax
  000c7	8b 45 dc	 mov	 eax, DWORD PTR _cod$GSCopy$1$[ebp]
  000ca	66 89 0c 78	 mov	 WORD PTR [eax+edi*2], cx
; File e:\mywork\client\pc2.0trunk\pc2.0\third_party\libamrplayer\amr\basicop2.c

; 79   :     if (L_var1 > 0X00007fffL)

  000ce	81 fa ff 7f 00
	00		 cmp	 edx, 32767		; 00007fffH
  000d4	7e 11		 jle	 SHORT $LN63@dec_8i40_3

; 80   :     {
; 81   :         Overflow = 1;

  000d6	c7 05 00 00 00
	00 01 00 00 00	 mov	 DWORD PTR _Overflow, 1

; 82   :         var_out = MAX_16;

  000e0	b8 ff 7f 00 00	 mov	 eax, 32767		; 00007fffH
  000e5	eb 1c		 jmp	 SHORT $LN60@dec_8i40_3
$LN63@dec_8i40_3:

; 83   :     }
; 84   :     else if (L_var1 < (Word32) 0xffff8000L)

  000e7	81 fa 00 80 ff
	ff		 cmp	 edx, -32768		; ffff8000H
  000ed	7d 11		 jge	 SHORT $LN61@dec_8i40_3

; 85   :     {
; 86   :         Overflow = 1;

  000ef	c7 05 00 00 00
	00 01 00 00 00	 mov	 DWORD PTR _Overflow, 1

; 87   :         var_out = MIN_16;

  000f9	b8 00 80 ff ff	 mov	 eax, -32768		; ffff8000H

; 88   :     }
; 89   :     else

  000fe	eb 03		 jmp	 SHORT $LN60@dec_8i40_3
$LN61@dec_8i40_3:

; 90   :     {
; 91   :         var_out = extract_l (L_var1);

  00100	0f b7 c2	 movzx	 eax, dx
$LN60@dec_8i40_3:
; File e:\mywork\client\pc2.0trunk\pc2.0\third_party\libamrplayer\amr\d8_31pf.c

; 213  :        i = linear_codewords[add (j, 4)];        

  00103	98		 cwde
; File e:\mywork\client\pc2.0trunk\pc2.0\third_party\libamrplayer\amr\basicop2.c

; 485  :     L_var_out = (Word32) var1 *(Word32) var2;

  00104	0f bf 44 45 e4	 movsx	 eax, WORD PTR _linear_codewords$[ebp+eax*2]
  00109	c1 e0 02	 shl	 eax, 2

; 486  : 
; 487  :     if (L_var_out != (Word32) 0x40000000L)

  0010c	3d 00 00 00 40	 cmp	 eax, 1073741824		; 40000000H
  00111	74 0c		 je	 SHORT $LN69@dec_8i40_3

; 488  :     {
; 489  :         L_var_out *= 2;

  00113	03 c0		 add	 eax, eax

; 537  : #if (WMOPS)
; 538  :     multiCounter[currCounter].negate++;
; 539  : #endif
; 540  :     return (var_out);
; 541  : }
; 542  : 
; 543  : /*___________________________________________________________________________
; 544  :  |                                                                           |
; 545  :  |   Function Name : extract_h                                               |
; 546  :  |                                                                           |
; 547  :  |   Purpose :                                                               |
; 548  :  |                                                                           |
; 549  :  |   Return the 16 MSB of L_var1.                                            |
; 550  :  |                                                                           |
; 551  :  |   Complexity weight : 1                                                   |
; 552  :  |                                                                           |
; 553  :  |   Inputs :                                                                |
; 554  :  |                                                                           |
; 555  :  |    L_var1                                                                 |
; 556  :  |             32 bit long signed integer (Word32 ) whose value falls in the |
; 557  :  |             range : 0x8000 0000 <= L_var1 <= 0x7fff ffff.                 |
; 558  :  |                                                                           |
; 559  :  |   Outputs :                                                               |
; 560  :  |                                                                           |
; 561  :  |    none                                                                   |
; 562  :  |                                                                           |
; 563  :  |   Return Value :                                                          |
; 564  :  |                                                                           |
; 565  :  |    var_out                                                                |
; 566  :  |             16 bit short signed integer (Word16) whose value falls in the |
; 567  :  |             range : 0xffff 8000 <= var_out <= 0x0000 7fff.                |
; 568  :  |___________________________________________________________________________|
; 569  : */
; 570  : 
; 571  : Word16 extract_h (Word32 L_var1)
; 572  : {
; 573  :     Word16 var_out;
; 574  : 
; 575  :     var_out = (Word16) (L_var1 >> 16);
; 576  : #if (WMOPS)
; 577  :     multiCounter[currCounter].extract_h++;
; 578  : #endif
; 579  :     return (var_out);
; 580  : }
; 581  : 
; 582  : /*___________________________________________________________________________
; 583  :  |                                                                           |
; 584  :  |   Function Name : extract_l                                               |
; 585  :  |                                                                           |
; 586  :  |   Purpose :                                                               |
; 587  :  |                                                                           |
; 588  :  |   Return the 16 LSB of L_var1.                                            |
; 589  :  |                                                                           |
; 590  :  |   Complexity weight : 1                                                   |
; 591  :  |                                                                           |
; 592  :  |   Inputs :                                                                |
; 593  :  |                                                                           |
; 594  :  |    L_var1                                                                 |
; 595  :  |             32 bit long signed integer (Word32 ) whose value falls in the |
; 596  :  |             range : 0x8000 0000 <= L_var1 <= 0x7fff ffff.                 |
; 597  :  |                                                                           |
; 598  :  |   Outputs :                                                               |
; 599  :  |                                                                           |
; 600  :  |    none                                                                   |
; 601  :  |                                                                           |
; 602  :  |   Return Value :                                                          |
; 603  :  |                                                                           |
; 604  :  |    var_out                                                                |
; 605  :  |             16 bit short signed integer (Word16) whose value falls in the |
; 606  :  |             range : 0xffff 8000 <= var_out <= 0x0000 7fff.                |
; 607  :  |___________________________________________________________________________|
; 608  : */
; 609  : 
; 610  : Word16 extract_l (Word32 L_var1)
; 611  : {
; 612  :     Word16 var_out;
; 613  : 
; 614  :     var_out = (Word16) L_var1;
; 615  : #if (WMOPS)
; 616  :     multiCounter[currCounter].extract_l++;
; 617  : #endif
; 618  :     return (var_out);
; 619  : }
; 620  : 
; 621  : /*___________________________________________________________________________
; 622  :  |                                                                           |
; 623  :  |   Function Name : round                                                   |
; 624  :  |                                                                           |
; 625  :  |   Purpose :                                                               |
; 626  :  |                                                                           |
; 627  :  |   Round the lower 16 bits of the 32 bit input number into the MS 16 bits  |
; 628  :  |   with saturation. Shift the resulting bits right by 16 and return the 16 |
; 629  :  |   bit number:                                                             |
; 630  :  |               round(L_var1) = extract_h(L_add(L_var1,32768))              |
; 631  :  |                                                                           |
; 632  :  |   Complexity weight : 1                                                   |
; 633  :  |                                                                           |
; 634  :  |   Inputs :                                                                |
; 635  :  |                                                                           |
; 636  :  |    L_var1                                                                 |
; 637  :  |             32 bit long signed integer (Word32 ) whose value falls in the |
; 638  :  |             range : 0x8000 0000 <= L_var1 <= 0x7fff ffff.                 |
; 639  :  |                                                                           |
; 640  :  |   Outputs :                                                               |
; 641  :  |                                                                           |
; 642  :  |    none                                                                   |
; 643  :  |                                                                           |
; 644  :  |   Return Value :                                                          |
; 645  :  |                                                                           |
; 646  :  |    var_out                                                                |
; 647  :  |             16 bit short signed integer (Word16) whose value falls in the |
; 648  :  |             range : 0xffff 8000 <= var_out <= 0x0000 7fff.                |
; 649  :  |___________________________________________________________________________|
; 650  : */
; 651  : 
; 652  : Word16 round (Word32 L_var1)
; 653  : {
; 654  :     Word16 var_out;
; 655  :     Word32 L_rounded;
; 656  : 
; 657  :     L_rounded = L_add (L_var1, (Word32) 0x00008000L);
; 658  : #if (WMOPS)
; 659  :     multiCounter[currCounter].L_add--;
; 660  : #endif
; 661  :     var_out = extract_h (L_rounded);
; 662  : #if (WMOPS)
; 663  :     multiCounter[currCounter].extract_h--;
; 664  :     multiCounter[currCounter].round++;
; 665  : #endif
; 666  :     return (var_out);
; 667  : }
; 668  : 
; 669  : /*___________________________________________________________________________
; 670  :  |                                                                           |
; 671  :  |   Function Name : L_mac                                                   |
; 672  :  |                                                                           |
; 673  :  |   Purpose :                                                               |
; 674  :  |                                                                           |
; 675  :  |   Multiply var1 by var2 and shift the result left by 1. Add the 32 bit    |
; 676  :  |   result to L_var3 with saturation, return a 32 bit result:               |
; 677  :  |        L_mac(L_var3,var1,var2) = L_add(L_var3,L_mult(var1,var2)).         |
; 678  :  |                                                                           |
; 679  :  |   Complexity weight : 1                                                   |
; 680  :  |                                                                           |
; 681  :  |   Inputs :                                                                |
; 682  :  |                                                                           |
; 683  :  |    L_var3   32 bit long signed integer (Word32) whose value falls in the  |
; 684  :  |             range : 0x8000 0000 <= L_var3 <= 0x7fff ffff.                 |
; 685  :  |                                                                           |
; 686  :  |    var1                                                                   |
; 687  :  |             16 bit short signed integer (Word16) whose value falls in the |
; 688  :  |             range : 0xffff 8000 <= var1 <= 0x0000 7fff.                   |
; 689  :  |                                                                           |
; 690  :  |    var2                                                                   |
; 691  :  |             16 bit short signed integer (Word16) whose value falls in the |
; 692  :  |             range : 0xffff 8000 <= var1 <= 0x0000 7fff.                   |
; 693  :  |                                                                           |
; 694  :  |   Outputs :                                                               |
; 695  :  |                                                                           |
; 696  :  |    none                                                                   |
; 697  :  |                                                                           |
; 698  :  |   Return Value :                                                          |
; 699  :  |                                                                           |
; 700  :  |    L_var_out                                                              |
; 701  :  |             32 bit long signed integer (Word32) whose value falls in the  |
; 702  :  |             range : 0x8000 0000 <= L_var_out <= 0x7fff ffff.              |
; 703  :  |___________________________________________________________________________|
; 704  : */
; 705  : 
; 706  : Word32 L_mac (Word32 L_var3, Word16 var1, Word16 var2)
; 707  : {
; 708  :     Word32 L_var_out;
; 709  :     Word32 L_product;
; 710  : 
; 711  :     L_product = L_mult (var1, var2);
; 712  : #if (WMOPS)
; 713  :     multiCounter[currCounter].L_mult--;
; 714  : #endif
; 715  :     L_var_out = L_add (L_var3, L_product);
; 716  : #if (WMOPS)
; 717  :     multiCounter[currCounter].L_add--;
; 718  :     multiCounter[currCounter].L_mac++;
; 719  : #endif
; 720  :     return (L_var_out);
; 721  : }
; 722  : 
; 723  : /*___________________________________________________________________________
; 724  :  |                                                                           |
; 725  :  |   Function Name : L_msu                                                   |
; 726  :  |                                                                           |
; 727  :  |   Purpose :                                                               |
; 728  :  |                                                                           |
; 729  :  |   Multiply var1 by var2 and shift the result left by 1. Subtract the 32   |
; 730  :  |   bit result to L_var3 with saturation, return a 32 bit result:           |
; 731  :  |        L_msu(L_var3,var1,var2) = L_sub(L_var3,L_mult(var1,var2)).         |
; 732  :  |                                                                           |
; 733  :  |   Complexity weight : 1                                                   |
; 734  :  |                                                                           |
; 735  :  |   Inputs :                                                                |
; 736  :  |                                                                           |
; 737  :  |    L_var3   32 bit long signed integer (Word32) whose value falls in the  |
; 738  :  |             range : 0x8000 0000 <= L_var3 <= 0x7fff ffff.                 |
; 739  :  |                                                                           |
; 740  :  |    var1                                                                   |
; 741  :  |             16 bit short signed integer (Word16) whose value falls in the |
; 742  :  |             range : 0xffff 8000 <= var1 <= 0x0000 7fff.                   |
; 743  :  |                                                                           |
; 744  :  |    var2                                                                   |
; 745  :  |             16 bit short signed integer (Word16) whose value falls in the |
; 746  :  |             range : 0xffff 8000 <= var1 <= 0x0000 7fff.                   |
; 747  :  |                                                                           |
; 748  :  |   Outputs :                                                               |
; 749  :  |                                                                           |
; 750  :  |    none                                                                   |
; 751  :  |                                                                           |
; 752  :  |   Return Value :                                                          |
; 753  :  |                                                                           |
; 754  :  |    L_var_out                                                              |
; 755  :  |             32 bit long signed integer (Word32) whose value falls in the  |
; 756  :  |             range : 0x8000 0000 <= L_var_out <= 0x7fff ffff.              |
; 757  :  |___________________________________________________________________________|
; 758  : */
; 759  : 
; 760  : Word32 L_msu (Word32 L_var3, Word16 var1, Word16 var2)
; 761  : {
; 762  :     Word32 L_var_out;
; 763  :     Word32 L_product;
; 764  : 
; 765  :     L_product = L_mult (var1, var2);
; 766  : #if (WMOPS)
; 767  :     multiCounter[currCounter].L_mult--;
; 768  : #endif
; 769  :     L_var_out = L_sub (L_var3, L_product);
; 770  : #if (WMOPS)
; 771  :     multiCounter[currCounter].L_sub--;
; 772  :     multiCounter[currCounter].L_msu++;
; 773  : #endif
; 774  :     return (L_var_out);
; 775  : }
; 776  : 
; 777  : /*___________________________________________________________________________
; 778  :  |                                                                           |
; 779  :  |   Function Name : L_macNs                                                 |
; 780  :  |                                                                           |
; 781  :  |   Purpose :                                                               |
; 782  :  |                                                                           |
; 783  :  |   Multiply var1 by var2 and shift the result left by 1. Add the 32 bit    |
; 784  :  |   result to L_var3 without saturation, return a 32 bit result. Generate   |
; 785  :  |   carry and overflow values :                                             |
; 786  :  |        L_macNs(L_var3,var1,var2) = L_add_c(L_var3,L_mult(var1,var2)).     |
; 787  :  |                                                                           |
; 788  :  |   Complexity weight : 1                                                   |
; 789  :  |                                                                           |
; 790  :  |   Inputs :                                                                |
; 791  :  |                                                                           |
; 792  :  |    L_var3   32 bit long signed integer (Word32) whose value falls in the  |
; 793  :  |             range : 0x8000 0000 <= L_var3 <= 0x7fff ffff.                 |
; 794  :  |                                                                           |
; 795  :  |    var1                                                                   |
; 796  :  |             16 bit short signed integer (Word16) whose value falls in the |
; 797  :  |             range : 0xffff 8000 <= var1 <= 0x0000 7fff.                   |
; 798  :  |                                                                           |
; 799  :  |    var2                                                                   |
; 800  :  |             16 bit short signed integer (Word16) whose value falls in the |
; 801  :  |             range : 0xffff 8000 <= var1 <= 0x0000 7fff.                   |
; 802  :  |                                                                           |
; 803  :  |   Outputs :                                                               |
; 804  :  |                                                                           |
; 805  :  |    none                                                                   |
; 806  :  |                                                                           |
; 807  :  |   Return Value :                                                          |
; 808  :  |                                                                           |
; 809  :  |    L_var_out                                                              |
; 810  :  |             32 bit long signed integer (Word32) whose value falls in the  |
; 811  :  |             range : 0x8000 0000 <= L_var_out <= 0x7fff ffff.              |
; 812  :  |                                                                           |
; 813  :  |   Caution :                                                               |
; 814  :  |                                                                           |
; 815  :  |    In some cases the Carry flag has to be cleared or set before using     |
; 816  :  |    operators which take into account its value.                           |
; 817  :  |___________________________________________________________________________|
; 818  : */
; 819  : 
; 820  : Word32 L_macNs (Word32 L_var3, Word16 var1, Word16 var2)
; 821  : {
; 822  :     Word32 L_var_out;
; 823  : 
; 824  :     L_var_out = L_mult (var1, var2);
; 825  : #if (WMOPS)
; 826  :     multiCounter[currCounter].L_mult--;
; 827  : #endif
; 828  :     L_var_out = L_add_c (L_var3, L_var_out);
; 829  : #if (WMOPS)
; 830  :     multiCounter[currCounter].L_add_c--;
; 831  :     multiCounter[currCounter].L_macNs++;
; 832  : #endif
; 833  :     return (L_var_out);
; 834  : }
; 835  : 
; 836  : /*___________________________________________________________________________
; 837  :  |                                                                           |
; 838  :  |   Function Name : L_msuNs                                                 |
; 839  :  |                                                                           |
; 840  :  |   Purpose :                                                               |
; 841  :  |                                                                           |
; 842  :  |   Multiply var1 by var2 and shift the result left by 1. Subtract the 32   |
; 843  :  |   bit result from L_var3 without saturation, return a 32 bit result. Ge-  |
; 844  :  |   nerate carry and overflow values :                                      |
; 845  :  |        L_msuNs(L_var3,var1,var2) = L_sub_c(L_var3,L_mult(var1,var2)).     |
; 846  :  |                                                                           |
; 847  :  |   Complexity weight : 1                                                   |
; 848  :  |                                                                           |
; 849  :  |   Inputs :                                                                |
; 850  :  |                                                                           |
; 851  :  |    L_var3   32 bit long signed integer (Word32) whose value falls in the  |
; 852  :  |             range : 0x8000 0000 <= L_var3 <= 0x7fff ffff.                 |
; 853  :  |                                                                           |
; 854  :  |    var1                                                                   |
; 855  :  |             16 bit short signed integer (Word16) whose value falls in the |
; 856  :  |             range : 0xffff 8000 <= var1 <= 0x0000 7fff.                   |
; 857  :  |                                                                           |
; 858  :  |    var2                                                                   |
; 859  :  |             16 bit short signed integer (Word16) whose value falls in the |
; 860  :  |             range : 0xffff 8000 <= var1 <= 0x0000 7fff.                   |
; 861  :  |                                                                           |
; 862  :  |   Outputs :                                                               |
; 863  :  |                                                                           |
; 864  :  |    none                                                                   |
; 865  :  |                                                                           |
; 866  :  |   Return Value :                                                          |
; 867  :  |                                                                           |
; 868  :  |    L_var_out                                                              |
; 869  :  |             32 bit long signed integer (Word32) whose value falls in the  |
; 870  :  |             range : 0x8000 0000 <= L_var_out <= 0x7fff ffff.              |
; 871  :  |                                                                           |
; 872  :  |   Caution :                                                               |
; 873  :  |                                                                           |
; 874  :  |    In some cases the Carry flag has to be cleared or set before using     |
; 875  :  |    operators which take into account its value.                           |
; 876  :  |___________________________________________________________________________|
; 877  : */
; 878  : 
; 879  : Word32 L_msuNs (Word32 L_var3, Word16 var1, Word16 var2)
; 880  : {
; 881  :     Word32 L_var_out;
; 882  : 
; 883  :     L_var_out = L_mult (var1, var2);
; 884  : #if (WMOPS)
; 885  :     multiCounter[currCounter].L_mult--;
; 886  : #endif
; 887  :     L_var_out = L_sub_c (L_var3, L_var_out);
; 888  : #if (WMOPS)
; 889  :     multiCounter[currCounter].L_sub_c--;
; 890  :     multiCounter[currCounter].L_msuNs++;
; 891  : #endif
; 892  :     return (L_var_out);
; 893  : }
; 894  : 
; 895  : /*___________________________________________________________________________
; 896  :  |                                                                           |
; 897  :  |   Function Name : L_add                                                   |
; 898  :  |                                                                           |
; 899  :  |   Purpose :                                                               |
; 900  :  |                                                                           |
; 901  :  |   32 bits addition of the two 32 bits variables (L_var1+L_var2) with      |
; 902  :  |   overflow control and saturation; the result is set at +2147483647 when  |
; 903  :  |   overflow occurs or at -2147483648 when underflow occurs.                |
; 904  :  |                                                                           |
; 905  :  |   Complexity weight : 2                                                   |
; 906  :  |                                                                           |
; 907  :  |   Inputs :                                                                |
; 908  :  |                                                                           |
; 909  :  |    L_var1   32 bit long signed integer (Word32) whose value falls in the  |
; 910  :  |             range : 0x8000 0000 <= L_var3 <= 0x7fff ffff.                 |
; 911  :  |                                                                           |
; 912  :  |    L_var2   32 bit long signed integer (Word32) whose value falls in the  |
; 913  :  |             range : 0x8000 0000 <= L_var3 <= 0x7fff ffff.                 |
; 914  :  |                                                                           |
; 915  :  |   Outputs :                                                               |
; 916  :  |                                                                           |
; 917  :  |    none                                                                   |
; 918  :  |                                                                           |
; 919  :  |   Return Value :                                                          |
; 920  :  |                                                                           |
; 921  :  |    L_var_out                                                              |
; 922  :  |             32 bit long signed integer (Word32) whose value falls in the  |
; 923  :  |             range : 0x8000 0000 <= L_var_out <= 0x7fff ffff.              |
; 924  :  |___________________________________________________________________________|
; 925  : */
; 926  : 
; 927  : Word32 L_add (Word32 L_var1, Word32 L_var2)
; 928  : {
; 929  :     Word32 L_var_out;
; 930  : 
; 931  :     L_var_out = L_var1 + L_var2;
; 932  : 
; 933  :     if (((L_var1 ^ L_var2) & MIN_32) == 0)
; 934  :     {
; 935  :         if ((L_var_out ^ L_var1) & MIN_32)
; 936  :         {
; 937  :             L_var_out = (L_var1 < 0) ? MIN_32 : MAX_32;
; 938  :             Overflow = 1;
; 939  :         }
; 940  :     }
; 941  : #if (WMOPS)
; 942  :     multiCounter[currCounter].L_add++;
; 943  : #endif
; 944  :     return (L_var_out);
; 945  : }
; 946  : 
; 947  : /*___________________________________________________________________________
; 948  :  |                                                                           |
; 949  :  |   Function Name : L_sub                                                   |
; 950  :  |                                                                           |
; 951  :  |   Purpose :                                                               |
; 952  :  |                                                                           |
; 953  :  |   32 bits subtraction of the two 32 bits variables (L_var1-L_var2) with   |
; 954  :  |   overflow control and saturation; the result is set at +2147483647 when  |
; 955  :  |   overflow occurs or at -2147483648 when underflow occurs.                |
; 956  :  |                                                                           |
; 957  :  |   Complexity weight : 2                                                   |
; 958  :  |                                                                           |
; 959  :  |   Inputs :                                                                |
; 960  :  |                                                                           |
; 961  :  |    L_var1   32 bit long signed integer (Word32) whose value falls in the  |
; 962  :  |             range : 0x8000 0000 <= L_var3 <= 0x7fff ffff.                 |
; 963  :  |                                                                           |
; 964  :  |    L_var2   32 bit long signed integer (Word32) whose value falls in the  |
; 965  :  |             range : 0x8000 0000 <= L_var3 <= 0x7fff ffff.                 |
; 966  :  |                                                                           |
; 967  :  |   Outputs :                                                               |
; 968  :  |                                                                           |
; 969  :  |    none                                                                   |
; 970  :  |                                                                           |
; 971  :  |   Return Value :                                                          |
; 972  :  |                                                                           |
; 973  :  |    L_var_out                                                              |
; 974  :  |             32 bit long signed integer (Word32) whose value falls in the  |
; 975  :  |             range : 0x8000 0000 <= L_var_out <= 0x7fff ffff.              |
; 976  :  |___________________________________________________________________________|
; 977  : */
; 978  : 
; 979  : Word32 L_sub (Word32 L_var1, Word32 L_var2)
; 980  : {
; 981  :     Word32 L_var_out;
; 982  : 
; 983  :     L_var_out = L_var1 - L_var2;
; 984  : 
; 985  :     if (((L_var1 ^ L_var2) & MIN_32) != 0)
; 986  :     {
; 987  :         if ((L_var_out ^ L_var1) & MIN_32)
; 988  :         {
; 989  :             L_var_out = (L_var1 < 0L) ? MIN_32 : MAX_32;
; 990  :             Overflow = 1;
; 991  :         }
; 992  :     }
; 993  : #if (WMOPS)
; 994  :     multiCounter[currCounter].L_sub++;
; 995  : #endif
; 996  :     return (L_var_out);
; 997  : }
; 998  : 
; 999  : /*___________________________________________________________________________
; 1000 :  |                                                                           |
; 1001 :  |   Function Name : L_add_c                                                 |
; 1002 :  |                                                                           |
; 1003 :  |   Purpose :                                                               |
; 1004 :  |                                                                           |
; 1005 :  |   Performs 32 bits addition of the two 32 bits variables (L_var1+L_var2+C)|
; 1006 :  |   with carry. No saturation. Generate carry and Overflow values. The car- |
; 1007 :  |   ry and overflow values are binary variables which can be tested and as- |
; 1008 :  |   signed values.                                                          |
; 1009 :  |                                                                           |
; 1010 :  |   Complexity weight : 2                                                   |
; 1011 :  |                                                                           |
; 1012 :  |   Inputs :                                                                |
; 1013 :  |                                                                           |
; 1014 :  |    L_var1   32 bit long signed integer (Word32) whose value falls in the  |
; 1015 :  |             range : 0x8000 0000 <= L_var3 <= 0x7fff ffff.                 |
; 1016 :  |                                                                           |
; 1017 :  |    L_var2   32 bit long signed integer (Word32) whose value falls in the  |
; 1018 :  |             range : 0x8000 0000 <= L_var3 <= 0x7fff ffff.                 |
; 1019 :  |                                                                           |
; 1020 :  |   Outputs :                                                               |
; 1021 :  |                                                                           |
; 1022 :  |    none                                                                   |
; 1023 :  |                                                                           |
; 1024 :  |   Return Value :                                                          |
; 1025 :  |                                                                           |
; 1026 :  |    L_var_out                                                              |
; 1027 :  |             32 bit long signed integer (Word32) whose value falls in the  |
; 1028 :  |             range : 0x8000 0000 <= L_var_out <= 0x7fff ffff.              |
; 1029 :  |                                                                           |
; 1030 :  |   Caution :                                                               |
; 1031 :  |                                                                           |
; 1032 :  |    In some cases the Carry flag has to be cleared or set before using     |
; 1033 :  |    operators which take into account its value.                           |
; 1034 :  |___________________________________________________________________________|
; 1035 : */
; 1036 : Word32 L_add_c (Word32 L_var1, Word32 L_var2)
; 1037 : {
; 1038 :     Word32 L_var_out;
; 1039 :     Word32 L_test;
; 1040 :     Flag carry_int = 0;
; 1041 : 
; 1042 :     L_var_out = L_var1 + L_var2 + Carry;
; 1043 : 
; 1044 :     L_test = L_var1 + L_var2;
; 1045 : 
; 1046 :     if ((L_var1 > 0) && (L_var2 > 0) && (L_test < 0))
; 1047 :     {
; 1048 :         Overflow = 1;
; 1049 :         carry_int = 0;
; 1050 :     }
; 1051 :     else
; 1052 :     {
; 1053 :         if ((L_var1 < 0) && (L_var2 < 0))
; 1054 :         {
; 1055 :             if (L_test >= 0)
; 1056 : 	    {
; 1057 :                 Overflow = 1;
; 1058 :                 carry_int = 1;
; 1059 : 	    }
; 1060 :             else
; 1061 : 	    {
; 1062 :                 Overflow = 0;
; 1063 :                 carry_int = 1;
; 1064 : 	    }
; 1065 :         }
; 1066 :         else
; 1067 :         {
; 1068 :             if (((L_var1 ^ L_var2) < 0) && (L_test >= 0))
; 1069 :             {
; 1070 :                 Overflow = 0;
; 1071 :                 carry_int = 1;
; 1072 :             }
; 1073 :             else
; 1074 :             {
; 1075 :                 Overflow = 0;
; 1076 :                 carry_int = 0;
; 1077 :             }
; 1078 :         }
; 1079 :     }
; 1080 : 
; 1081 :     if (Carry)
; 1082 :     {
; 1083 :         if (L_test == MAX_32)
; 1084 :         {
; 1085 :             Overflow = 1;
; 1086 :             Carry = carry_int;
; 1087 :         }
; 1088 :         else
; 1089 :         {
; 1090 :             if (L_test == (Word32) 0xFFFFFFFFL)
; 1091 :             {
; 1092 :                 Carry = 1;
; 1093 :             }
; 1094 :             else
; 1095 :             {
; 1096 :                 Carry = carry_int;
; 1097 :             }
; 1098 :         }
; 1099 :     }
; 1100 :     else
; 1101 :     {
; 1102 :         Carry = carry_int;
; 1103 :     }
; 1104 : 
; 1105 : #if (WMOPS)
; 1106 :     multiCounter[currCounter].L_add_c++;
; 1107 : #endif
; 1108 :     return (L_var_out);
; 1109 : }
; 1110 : 
; 1111 : /*___________________________________________________________________________
; 1112 :  |                                                                           |
; 1113 :  |   Function Name : L_sub_c                                                 |
; 1114 :  |                                                                           |
; 1115 :  |   Purpose :                                                               |
; 1116 :  |                                                                           |
; 1117 :  |   Performs 32 bits subtraction of the two 32 bits variables with carry    |
; 1118 :  |   (borrow) : L_var1-L_var2-C. No saturation. Generate carry and Overflow  |
; 1119 :  |   values. The carry and overflow values are binary variables which can    |
; 1120 :  |   be tested and assigned values.                                          |
; 1121 :  |                                                                           |
; 1122 :  |   Complexity weight : 2                                                   |
; 1123 :  |                                                                           |
; 1124 :  |   Inputs :                                                                |
; 1125 :  |                                                                           |
; 1126 :  |    L_var1   32 bit long signed integer (Word32) whose value falls in the  |
; 1127 :  |             range : 0x8000 0000 <= L_var3 <= 0x7fff ffff.                 |
; 1128 :  |                                                                           |
; 1129 :  |    L_var2   32 bit long signed integer (Word32) whose value falls in the  |
; 1130 :  |             range : 0x8000 0000 <= L_var3 <= 0x7fff ffff.                 |
; 1131 :  |                                                                           |
; 1132 :  |   Outputs :                                                               |
; 1133 :  |                                                                           |
; 1134 :  |    none                                                                   |
; 1135 :  |                                                                           |
; 1136 :  |   Return Value :                                                          |
; 1137 :  |                                                                           |
; 1138 :  |    L_var_out                                                              |
; 1139 :  |             32 bit long signed integer (Word32) whose value falls in the  |
; 1140 :  |             range : 0x8000 0000 <= L_var_out <= 0x7fff ffff.              |
; 1141 :  |                                                                           |
; 1142 :  |   Caution :                                                               |
; 1143 :  |                                                                           |
; 1144 :  |    In some cases the Carry flag has to be cleared or set before using     |
; 1145 :  |    operators which take into account its value.                           |
; 1146 :  |___________________________________________________________________________|
; 1147 : */
; 1148 : 
; 1149 : Word32 L_sub_c (Word32 L_var1, Word32 L_var2)
; 1150 : {
; 1151 :     Word32 L_var_out;
; 1152 :     Word32 L_test;
; 1153 :     Flag carry_int = 0;
; 1154 : 
; 1155 :     if (Carry)
; 1156 :     {
; 1157 :         Carry = 0;
; 1158 :         if (L_var2 != MIN_32)
; 1159 :         {
; 1160 :             L_var_out = L_add_c (L_var1, -L_var2);
; 1161 : #if (WMOPS)
; 1162 :             multiCounter[currCounter].L_add_c--;
; 1163 : #endif
; 1164 :         }
; 1165 :         else
; 1166 :         {
; 1167 :             L_var_out = L_var1 - L_var2;
; 1168 :             if (L_var1 > 0L)
; 1169 :             {
; 1170 :                 Overflow = 1;
; 1171 :                 Carry = 0;
; 1172 :             }
; 1173 :         }
; 1174 :     }
; 1175 :     else
; 1176 :     {
; 1177 :         L_var_out = L_var1 - L_var2 - (Word32) 0X00000001L;
; 1178 :         L_test = L_var1 - L_var2;
; 1179 : 
; 1180 :         if ((L_test < 0) && (L_var1 > 0) && (L_var2 < 0))
; 1181 :         {
; 1182 :             Overflow = 1;
; 1183 :             carry_int = 0;
; 1184 :         }
; 1185 :         else if ((L_test > 0) && (L_var1 < 0) && (L_var2 > 0))
; 1186 :         {
; 1187 :             Overflow = 1;
; 1188 :             carry_int = 1;
; 1189 :         }
; 1190 :         else if ((L_test > 0) && ((L_var1 ^ L_var2) > 0))
; 1191 :         {
; 1192 :             Overflow = 0;
; 1193 :             carry_int = 1;
; 1194 :         }
; 1195 :         if (L_test == MIN_32)
; 1196 :         {
; 1197 :             Overflow = 1;
; 1198 :             Carry = carry_int;
; 1199 :         }
; 1200 :         else
; 1201 :         {
; 1202 :             Carry = carry_int;
; 1203 :         }
; 1204 :     }
; 1205 : 
; 1206 : #if (WMOPS)
; 1207 :     multiCounter[currCounter].L_sub_c++;
; 1208 : #endif
; 1209 :     return (L_var_out);
; 1210 : }
; 1211 : 
; 1212 : /*___________________________________________________________________________
; 1213 :  |                                                                           |
; 1214 :  |   Function Name : L_negate                                                |
; 1215 :  |                                                                           |
; 1216 :  |   Purpose :                                                               |
; 1217 :  |                                                                           |
; 1218 :  |   Negate the 32 bit variable L_var1 with saturation; saturate in the case |
; 1219 :  |   where input is -2147483648 (0x8000 0000).                               |
; 1220 :  |                                                                           |
; 1221 :  |   Complexity weight : 2                                                   |
; 1222 :  |                                                                           |
; 1223 :  |   Inputs :                                                                |
; 1224 :  |                                                                           |
; 1225 :  |    L_var1   32 bit long signed integer (Word32) whose value falls in the  |
; 1226 :  |             range : 0x8000 0000 <= L_var3 <= 0x7fff ffff.                 |
; 1227 :  |                                                                           |
; 1228 :  |   Outputs :                                                               |
; 1229 :  |                                                                           |
; 1230 :  |    none                                                                   |
; 1231 :  |                                                                           |
; 1232 :  |   Return Value :                                                          |
; 1233 :  |                                                                           |
; 1234 :  |    L_var_out                                                              |
; 1235 :  |             32 bit long signed integer (Word32) whose value falls in the  |
; 1236 :  |             range : 0x8000 0000 <= L_var_out <= 0x7fff ffff.              |
; 1237 :  |___________________________________________________________________________|
; 1238 : */
; 1239 : 
; 1240 : Word32 L_negate (Word32 L_var1)
; 1241 : {
; 1242 :     Word32 L_var_out;
; 1243 : 
; 1244 :     L_var_out = (L_var1 == MIN_32) ? MAX_32 : -L_var1;
; 1245 : #if (WMOPS)
; 1246 :     multiCounter[currCounter].L_negate++;
; 1247 : #endif
; 1248 :     return (L_var_out);
; 1249 : }
; 1250 : 
; 1251 : /*___________________________________________________________________________
; 1252 :  |                                                                           |
; 1253 :  |   Function Name : mult_r                                                  |
; 1254 :  |                                                                           |
; 1255 :  |   Purpose :                                                               |
; 1256 :  |                                                                           |
; 1257 :  |   Same as mult with rounding, i.e.:                                       |
; 1258 :  |     mult_r(var1,var2) = extract_l(L_shr(((var1 * var2) + 16384),15)) and  |
; 1259 :  |     mult_r(-32768,-32768) = 32767.                                        |
; 1260 :  |                                                                           |
; 1261 :  |   Complexity weight : 2                                                   |
; 1262 :  |                                                                           |
; 1263 :  |   Inputs :                                                                |
; 1264 :  |                                                                           |
; 1265 :  |    var1                                                                   |
; 1266 :  |             16 bit short signed integer (Word16) whose value falls in the |
; 1267 :  |             range : 0xffff 8000 <= var1 <= 0x0000 7fff.                   |
; 1268 :  |                                                                           |
; 1269 :  |    var2                                                                   |
; 1270 :  |             16 bit short signed integer (Word16) whose value falls in the |
; 1271 :  |             range : 0xffff 8000 <= var1 <= 0x0000 7fff.                   |
; 1272 :  |                                                                           |
; 1273 :  |   Outputs :                                                               |
; 1274 :  |                                                                           |
; 1275 :  |    none                                                                   |
; 1276 :  |                                                                           |
; 1277 :  |   Return Value :                                                          |
; 1278 :  |                                                                           |
; 1279 :  |    var_out                                                                |
; 1280 :  |             16 bit short signed integer (Word16) whose value falls in the |
; 1281 :  |             range : 0xffff 8000 <= var_out <= 0x0000 7fff.                |
; 1282 :  |___________________________________________________________________________|
; 1283 : */
; 1284 : 
; 1285 : Word16 mult_r (Word16 var1, Word16 var2)
; 1286 : {
; 1287 :     Word16 var_out;
; 1288 :     Word32 L_product_arr;
; 1289 : 
; 1290 :     L_product_arr = (Word32) var1 *(Word32) var2;       /* product */
; 1291 :     L_product_arr += (Word32) 0x00004000L;      /* round */
; 1292 :     L_product_arr &= (Word32) 0xffff8000L;
; 1293 :     L_product_arr >>= 15;       /* shift */
; 1294 : 
; 1295 :     if (L_product_arr & (Word32) 0x00010000L)   /* sign extend when necessary */
; 1296 :     {
; 1297 :         L_product_arr |= (Word32) 0xffff0000L;
; 1298 :     }
; 1299 :     var_out = saturate (L_product_arr);
; 1300 : #if (WMOPS)
; 1301 :     multiCounter[currCounter].mult_r++;
; 1302 : #endif
; 1303 :     return (var_out);
; 1304 : }
; 1305 : 
; 1306 : /*___________________________________________________________________________
; 1307 :  |                                                                           |
; 1308 :  |   Function Name : L_shl                                                   |
; 1309 :  |                                                                           |
; 1310 :  |   Purpose :                                                               |
; 1311 :  |                                                                           |
; 1312 :  |   Arithmetically shift the 32 bit input L_var1 left var2 positions. Zero  |
; 1313 :  |   fill the var2 LSB of the result. If var2 is negative, arithmetically    |
; 1314 :  |   shift L_var1 right by -var2 with sign extension. Saturate the result in |
; 1315 :  |   case of underflows or overflows.                                        |
; 1316 :  |                                                                           |
; 1317 :  |   Complexity weight : 2                                                   |
; 1318 :  |                                                                           |
; 1319 :  |   Inputs :                                                                |
; 1320 :  |                                                                           |
; 1321 :  |    L_var1   32 bit long signed integer (Word32) whose value falls in the  |
; 1322 :  |             range : 0x8000 0000 <= L_var3 <= 0x7fff ffff.                 |
; 1323 :  |                                                                           |
; 1324 :  |    var2                                                                   |
; 1325 :  |             16 bit short signed integer (Word16) whose value falls in the |
; 1326 :  |             range : 0xffff 8000 <= var1 <= 0x0000 7fff.                   |
; 1327 :  |                                                                           |
; 1328 :  |   Outputs :                                                               |
; 1329 :  |                                                                           |
; 1330 :  |    none                                                                   |
; 1331 :  |                                                                           |
; 1332 :  |   Return Value :                                                          |
; 1333 :  |                                                                           |
; 1334 :  |    L_var_out                                                              |
; 1335 :  |             32 bit long signed integer (Word32) whose value falls in the  |
; 1336 :  |             range : 0x8000 0000 <= L_var_out <= 0x7fff ffff.              |
; 1337 :  |___________________________________________________________________________|
; 1338 : */
; 1339 : 
; 1340 : Word32 L_shl (Word32 L_var1, Word16 var2)
; 1341 : {
; 1342 :     Word32 L_var_out;
; 1343 : 
; 1344 :     if (var2 <= 0)
; 1345 :     {
; 1346 :         if (var2 < -32)
; 1347 :             var2 = -32;
; 1348 :         L_var_out = L_shr (L_var1, -var2);
; 1349 : #if (WMOPS)
; 1350 :         multiCounter[currCounter].L_shr--;
; 1351 : #endif
; 1352 :     }
; 1353 :     else
; 1354 :     {
; 1355 :         for (; var2 > 0; var2--)
; 1356 :         {
; 1357 :             if (L_var1 > (Word32) 0X3fffffffL)
; 1358 :             {
; 1359 :                 Overflow = 1;
; 1360 :                 L_var_out = MAX_32;
; 1361 :                 break;
; 1362 :             }
; 1363 :             else
; 1364 :             {
; 1365 :                 if (L_var1 < (Word32) 0xc0000000L)
; 1366 :                 {
; 1367 :                     Overflow = 1;
; 1368 :                     L_var_out = MIN_32;
; 1369 :                     break;
; 1370 :                 }
; 1371 :             }
; 1372 :             L_var1 *= 2;
; 1373 :             L_var_out = L_var1;
; 1374 :         }
; 1375 :     }
; 1376 : #if (WMOPS)
; 1377 :     multiCounter[currCounter].L_shl++;
; 1378 : #endif
; 1379 :     return (L_var_out);
; 1380 : }
; 1381 : 
; 1382 : /*___________________________________________________________________________
; 1383 :  |                                                                           |
; 1384 :  |   Function Name : L_shr                                                   |
; 1385 :  |                                                                           |
; 1386 :  |   Purpose :                                                               |
; 1387 :  |                                                                           |
; 1388 :  |   Arithmetically shift the 32 bit input L_var1 right var2 positions with  |
; 1389 :  |   sign extension. If var2 is negative, arithmetically shift L_var1 left   |
; 1390 :  |   by -var2 and zero fill the -var2 LSB of the result. Saturate the result |
; 1391 :  |   in case of underflows or overflows.                                     |
; 1392 :  |                                                                           |
; 1393 :  |   Complexity weight : 2                                                   |
; 1394 :  |                                                                           |
; 1395 :  |   Inputs :                                                                |
; 1396 :  |                                                                           |
; 1397 :  |    L_var1   32 bit long signed integer (Word32) whose value falls in the  |
; 1398 :  |             range : 0x8000 0000 <= L_var3 <= 0x7fff ffff.                 |
; 1399 :  |                                                                           |
; 1400 :  |    var2                                                                   |
; 1401 :  |             16 bit short signed integer (Word16) whose value falls in the |
; 1402 :  |             range : 0xffff 8000 <= var1 <= 0x0000 7fff.                   |
; 1403 :  |                                                                           |
; 1404 :  |   Outputs :                                                               |
; 1405 :  |                                                                           |
; 1406 :  |    none                                                                   |
; 1407 :  |                                                                           |
; 1408 :  |   Return Value :                                                          |
; 1409 :  |                                                                           |
; 1410 :  |    L_var_out                                                              |
; 1411 :  |             32 bit long signed integer (Word32) whose value falls in the  |
; 1412 :  |             range : 0x8000 0000 <= L_var_out <= 0x7fff ffff.              |
; 1413 :  |___________________________________________________________________________|
; 1414 : */
; 1415 : 
; 1416 : Word32 L_shr (Word32 L_var1, Word16 var2)
; 1417 : {
; 1418 :     Word32 L_var_out;
; 1419 : 
; 1420 :     if (var2 < 0)
; 1421 :     {
; 1422 :         if (var2 < -32)
; 1423 :             var2 = -32;
; 1424 :         L_var_out = L_shl (L_var1, -var2);
; 1425 : #if (WMOPS)
; 1426 :         multiCounter[currCounter].L_shl--;
; 1427 : #endif
; 1428 :     }
; 1429 :     else
; 1430 :     {
; 1431 :         if (var2 >= 31)
; 1432 :         {
; 1433 :             L_var_out = (L_var1 < 0L) ? -1 : 0;
; 1434 :         }
; 1435 :         else
; 1436 :         {
; 1437 :             if (L_var1 < 0)

  00115	79 17		 jns	 SHORT $LN73@dec_8i40_3

; 1438 :             {
; 1439 :                 L_var_out = ~((~L_var1) >> var2);

  00117	f7 d0		 not	 eax
  00119	d1 f8		 sar	 eax, 1
  0011b	f7 d0		 not	 eax

; 1440 :             }
; 1441 :             else

  0011d	eb 11		 jmp	 SHORT $LN72@dec_8i40_3
$LN69@dec_8i40_3:

; 490  :     }
; 491  :     else
; 492  :     {
; 493  :         Overflow = 1;

  0011f	c7 05 00 00 00
	00 01 00 00 00	 mov	 DWORD PTR _Overflow, 1

; 494  :         L_var_out = MAX_32;

  00129	b8 ff ff ff 7f	 mov	 eax, 2147483647		; 7fffffffH
$LN73@dec_8i40_3:

; 1442 :             {
; 1443 :                 L_var_out = L_var1 >> var2;

  0012e	d1 f8		 sar	 eax, 1
$LN72@dec_8i40_3:

; 139  :     L_sum = (Word32) var1 + var2;

  00130	98		 cwde
  00131	03 c6		 add	 eax, esi

; 79   :     if (L_var1 > 0X00007fffL)

  00133	3d ff 7f 00 00	 cmp	 eax, 32767		; 00007fffH
  00138	7e 11		 jle	 SHORT $LN99@dec_8i40_3

; 80   :     {
; 81   :         Overflow = 1;

  0013a	c7 05 00 00 00
	00 01 00 00 00	 mov	 DWORD PTR _Overflow, 1

; 82   :         var_out = MAX_16;

  00144	b8 ff 7f 00 00	 mov	 eax, 32767		; 00007fffH
  00149	eb 1b		 jmp	 SHORT $LN96@dec_8i40_3
$LN99@dec_8i40_3:

; 83   :     }
; 84   :     else if (L_var1 < (Word32) 0xffff8000L)

  0014b	3d 00 80 ff ff	 cmp	 eax, -32768		; ffff8000H
  00150	7d 11		 jge	 SHORT $LN97@dec_8i40_3

; 85   :     {
; 86   :         Overflow = 1;

  00152	c7 05 00 00 00
	00 01 00 00 00	 mov	 DWORD PTR _Overflow, 1

; 87   :         var_out = MIN_16;

  0015c	b8 00 80 ff ff	 mov	 eax, -32768		; ffff8000H

; 88   :     }
; 89   :     else

  00161	eb 03		 jmp	 SHORT $LN96@dec_8i40_3
$LN97@dec_8i40_3:

; 90   :     {
; 91   :         var_out = extract_l (L_var1);

  00163	0f b7 c0	 movzx	 eax, ax
$LN96@dec_8i40_3:

; 140  :     var_out = saturate (L_sum);
; 141  : #if (WMOPS)
; 142  :     multiCounter[currCounter].add++;
; 143  : #endif
; 144  :     return (var_out);
; 145  : }
; 146  : 
; 147  : /*___________________________________________________________________________
; 148  :  |                                                                           |
; 149  :  |   Function Name : sub                                                     |
; 150  :  |                                                                           |
; 151  :  |   Purpose :                                                               |
; 152  :  |                                                                           |
; 153  :  |    Performs the subtraction (var1+var2) with overflow control and satu-   |
; 154  :  |    ration; the 16 bit result is set at +32767 when overflow occurs or at  |
; 155  :  |    -32768 when underflow occurs.                                          |
; 156  :  |                                                                           |
; 157  :  |   Complexity weight : 1                                                   |
; 158  :  |                                                                           |
; 159  :  |   Inputs :                                                                |
; 160  :  |                                                                           |
; 161  :  |    var1                                                                   |
; 162  :  |             16 bit short signed integer (Word16) whose value falls in the |
; 163  :  |             range : 0xffff 8000 <= var1 <= 0x0000 7fff.                   |
; 164  :  |                                                                           |
; 165  :  |    var2                                                                   |
; 166  :  |             16 bit short signed integer (Word16) whose value falls in the |
; 167  :  |             range : 0xffff 8000 <= var1 <= 0x0000 7fff.                   |
; 168  :  |                                                                           |
; 169  :  |   Outputs :                                                               |
; 170  :  |                                                                           |
; 171  :  |    none                                                                   |
; 172  :  |                                                                           |
; 173  :  |   Return Value :                                                          |
; 174  :  |                                                                           |
; 175  :  |    var_out                                                                |
; 176  :  |             16 bit short signed integer (Word16) whose value falls in the |
; 177  :  |             range : 0xffff 8000 <= var_out <= 0x0000 7fff.                |
; 178  :  |___________________________________________________________________________|
; 179  : */
; 180  : 
; 181  : Word16 sub (Word16 var1, Word16 var2)
; 182  : {
; 183  :     Word16 var_out;
; 184  :     Word32 L_diff;
; 185  : 
; 186  :     L_diff = (Word32) var1 - var2;

  00166	0f bf f0	 movsx	 esi, ax
  00169	8b c6		 mov	 eax, esi
  0016b	2b c7		 sub	 eax, edi

; 79   :     if (L_var1 > 0X00007fffL)

  0016d	3d ff 7f 00 00	 cmp	 eax, 32767		; 00007fffH
  00172	7e 0c		 jle	 SHORT $LN111@dec_8i40_3

; 80   :     {
; 81   :         Overflow = 1;

  00174	c7 05 00 00 00
	00 01 00 00 00	 mov	 DWORD PTR _Overflow, 1

; 82   :         var_out = MAX_16;

  0017e	eb 31		 jmp	 SHORT $LN1@dec_8i40_3
$LN111@dec_8i40_3:

; 83   :     }
; 84   :     else if (L_var1 < (Word32) 0xffff8000L)

  00180	3d 00 80 ff ff	 cmp	 eax, -32768		; ffff8000H
  00185	7d 0c		 jge	 SHORT $LN109@dec_8i40_3

; 85   :     {
; 86   :         Overflow = 1;

  00187	c7 05 00 00 00
	00 01 00 00 00	 mov	 DWORD PTR _Overflow, 1

; 88   :     }
; 89   :     else

  00191	eb 05		 jmp	 SHORT $LN152@dec_8i40_3
$LN109@dec_8i40_3:
; File e:\mywork\client\pc2.0trunk\pc2.0\third_party\libamrplayer\amr\d8_31pf.c

; 218  :        if (sub (pos2, pos1) < 0)

  00193	66 85 c0	 test	 ax, ax
  00196	79 19		 jns	 SHORT $LN1@dec_8i40_3
$LN152@dec_8i40_3:
; File e:\mywork\client\pc2.0trunk\pc2.0\third_party\libamrplayer\amr\basicop2.c

; 536  :     var_out = (var1 == MIN_16) ? MAX_16 : -var1;

  00198	b8 00 80 ff ff	 mov	 eax, -32768		; ffff8000H
  0019d	66 3b c8	 cmp	 cx, ax
  001a0	75 07		 jne	 SHORT $LN118@dec_8i40_3
  001a2	b8 ff 7f 00 00	 mov	 eax, 32767		; 00007fffH
  001a7	eb 05		 jmp	 SHORT $LN119@dec_8i40_3
$LN118@dec_8i40_3:
  001a9	f7 d9		 neg	 ecx
  001ab	0f b7 c1	 movzx	 eax, cx
$LN119@dec_8i40_3:
; File e:\mywork\client\pc2.0trunk\pc2.0\third_party\libamrplayer\amr\d8_31pf.c

; 220  :           sign = negate (sign);

  001ae	0f b7 c8	 movzx	 ecx, ax
$LN1@dec_8i40_3:
; File e:\mywork\client\pc2.0trunk\pc2.0\third_party\libamrplayer\amr\basicop2.c

; 139  :     L_sum = (Word32) var1 + var2;

  001b1	8b 7d dc	 mov	 edi, DWORD PTR _cod$GSCopy$1$[ebp]
  001b4	0f bf c9	 movsx	 ecx, cx
  001b7	0f bf 04 77	 movsx	 eax, WORD PTR [edi+esi*2]
  001bb	03 c8		 add	 ecx, eax

; 79   :     if (L_var1 > 0X00007fffL)

  001bd	81 f9 ff 7f 00
	00		 cmp	 ecx, 32767		; 00007fffH
  001c3	7e 11		 jle	 SHORT $LN125@dec_8i40_3

; 80   :     {
; 81   :         Overflow = 1;

  001c5	c7 05 00 00 00
	00 01 00 00 00	 mov	 DWORD PTR _Overflow, 1

; 82   :         var_out = MAX_16;

  001cf	b8 ff 7f 00 00	 mov	 eax, 32767		; 00007fffH
  001d4	eb 1c		 jmp	 SHORT $LN122@dec_8i40_3
$LN125@dec_8i40_3:

; 83   :     }
; 84   :     else if (L_var1 < (Word32) 0xffff8000L)

  001d6	81 f9 00 80 ff
	ff		 cmp	 ecx, -32768		; ffff8000H
  001dc	7d 11		 jge	 SHORT $LN123@dec_8i40_3

; 85   :     {
; 86   :         Overflow = 1;

  001de	c7 05 00 00 00
	00 01 00 00 00	 mov	 DWORD PTR _Overflow, 1

; 87   :         var_out = MIN_16;

  001e8	b8 00 80 ff ff	 mov	 eax, -32768		; ffff8000H

; 88   :     }
; 89   :     else

  001ed	eb 03		 jmp	 SHORT $LN122@dec_8i40_3
$LN123@dec_8i40_3:

; 90   :     {
; 91   :         var_out = extract_l (L_var1);

  001ef	0f b7 c1	 movzx	 eax, cx
$LN122@dec_8i40_3:
  001f2	83 c3 02	 add	 ebx, 2
; File e:\mywork\client\pc2.0trunk\pc2.0\third_party\libamrplayer\amr\d8_31pf.c

; 222  :        cod[pos2] = add (cod[pos2], sign);              move16 (); 

  001f5	66 89 04 77	 mov	 WORD PTR [edi+esi*2], ax
  001f9	42		 inc	 edx
  001fa	bf ff 1f 00 00	 mov	 edi, 8191		; 00001fffH
  001ff	ff 4d e0	 dec	 DWORD PTR tv694[ebp]
  00202	0f 85 49 fe ff
	ff		 jne	 $LL6@dec_8i40_3

; 223  :     }
; 224  :     
; 225  :     return;
; 226  : }

  00208	8b 4d fc	 mov	 ecx, DWORD PTR __$ArrayPad$[ebp]
  0020b	5f		 pop	 edi
  0020c	5e		 pop	 esi
  0020d	33 cd		 xor	 ecx, ebp
  0020f	5b		 pop	 ebx
  00210	e8 00 00 00 00	 call	 @__security_check_cookie@4
  00215	8b e5		 mov	 esp, ebp
  00217	5d		 pop	 ebp
  00218	c3		 ret	 0
_dec_8i40_31bits ENDP
_TEXT	ENDS
; Function compile flags: /Ogtp
; File e:\mywork\client\pc2.0trunk\pc2.0\third_party\libamrplayer\amr\d8_31pf.c
; File e:\mywork\client\pc2.0trunk\pc2.0\third_party\libamrplayer\amr\basicop2.c
; File e:\mywork\client\pc2.0trunk\pc2.0\third_party\libamrplayer\amr\d8_31pf.c
; File e:\mywork\client\pc2.0trunk\pc2.0\third_party\libamrplayer\amr\basicop2.c
; File e:\mywork\client\pc2.0trunk\pc2.0\third_party\libamrplayer\amr\d8_31pf.c
; File e:\mywork\client\pc2.0trunk\pc2.0\third_party\libamrplayer\amr\basicop2.c
; File e:\mywork\client\pc2.0trunk\pc2.0\third_party\libamrplayer\amr\d8_31pf.c
; File e:\mywork\client\pc2.0trunk\pc2.0\third_party\libamrplayer\amr\basicop2.c
; File e:\mywork\client\pc2.0trunk\pc2.0\third_party\libamrplayer\amr\d8_31pf.c
; File e:\mywork\client\pc2.0trunk\pc2.0\third_party\libamrplayer\amr\basicop2.c
; File e:\mywork\client\pc2.0trunk\pc2.0\third_party\libamrplayer\amr\d8_31pf.c
; File e:\mywork\client\pc2.0trunk\pc2.0\third_party\libamrplayer\amr\basicop2.c
; File e:\mywork\client\pc2.0trunk\pc2.0\third_party\libamrplayer\amr\d8_31pf.c
; File e:\mywork\client\pc2.0trunk\pc2.0\third_party\libamrplayer\amr\basicop2.c
; File e:\mywork\client\pc2.0trunk\pc2.0\third_party\libamrplayer\amr\d8_31pf.c
; File e:\mywork\client\pc2.0trunk\pc2.0\third_party\libamrplayer\amr\basicop2.c
; File e:\mywork\client\pc2.0trunk\pc2.0\third_party\libamrplayer\amr\d8_31pf.c
; File e:\mywork\client\pc2.0trunk\pc2.0\third_party\libamrplayer\amr\basicop2.c
; File e:\mywork\client\pc2.0trunk\pc2.0\third_party\libamrplayer\amr\d8_31pf.c
; File e:\mywork\client\pc2.0trunk\pc2.0\third_party\libamrplayer\amr\basicop2.c
; File e:\mywork\client\pc2.0trunk\pc2.0\third_party\libamrplayer\amr\d8_31pf.c
; File e:\mywork\client\pc2.0trunk\pc2.0\third_party\libamrplayer\amr\basicop2.c
; File e:\mywork\client\pc2.0trunk\pc2.0\third_party\libamrplayer\amr\d8_31pf.c
; File e:\mywork\client\pc2.0trunk\pc2.0\third_party\libamrplayer\amr\basicop2.c
; File e:\mywork\client\pc2.0trunk\pc2.0\third_party\libamrplayer\amr\d8_31pf.c
;	COMDAT _decompress10
_TEXT	SEGMENT
tv1029 = -12						; size = 4
_L_product$1$ = -8					; size = 4
_LSBs$1$ = -2						; size = 2
_index1$ = 8						; size = 2
_index2$ = 12						; size = 2
_index3$ = 16						; size = 2
_pos_indx$ = 20						; size = 4
_decompress10 PROC					; COMDAT
; _MSBs$ = ecx
; _LSBs$ = dx

; 52   : {

  00000	55		 push	 ebp
  00001	8b ec		 mov	 ebp, esp
  00003	83 ec 0c	 sub	 esp, 12			; 0000000cH
; File e:\mywork\client\pc2.0trunk\pc2.0\third_party\libamrplayer\amr\basicop2.c

; 186  :     L_diff = (Word32) var1 - var2;

  00006	0f bf c1	 movsx	 eax, cx
  00009	53		 push	 ebx
  0000a	83 e8 7c	 sub	 eax, 124		; 0000007cH
; File e:\mywork\client\pc2.0trunk\pc2.0\third_party\libamrplayer\amr\d8_31pf.c

; 52   : {

  0000d	66 8b da	 mov	 bx, dx
  00010	66 89 5d fe	 mov	 WORD PTR _LSBs$1$[ebp], bx
; File e:\mywork\client\pc2.0trunk\pc2.0\third_party\libamrplayer\amr\basicop2.c

; 79   :     if (L_var1 > 0X00007fffL)

  00014	3d ff 7f 00 00	 cmp	 eax, 32767		; 00007fffH
  00019	7e 0c		 jle	 SHORT $LN11@decompress

; 81   :         Overflow = 1;

  0001b	c7 05 00 00 00
	00 01 00 00 00	 mov	 DWORD PTR _Overflow, 1

; 82   :         var_out = MAX_16;

  00025	eb 18		 jmp	 SHORT $LN225@decompress
$LN11@decompress:

; 84   :     else if (L_var1 < (Word32) 0xffff8000L)

  00027	3d 00 80 ff ff	 cmp	 eax, -32768		; ffff8000H
  0002c	7d 0c		 jge	 SHORT $LN9@decompress

; 86   :         Overflow = 1;

  0002e	c7 05 00 00 00
	00 01 00 00 00	 mov	 DWORD PTR _Overflow, 1

; 88   :     }
; 89   :     else

  00038	eb 0a		 jmp	 SHORT $LN16@decompress
$LN9@decompress:
; File e:\mywork\client\pc2.0trunk\pc2.0\third_party\libamrplayer\amr\d8_31pf.c

; 62   :    if (sub(MSBs, 124) > 0)

  0003a	66 85 c0	 test	 ax, ax
  0003d	7e 05		 jle	 SHORT $LN16@decompress
$LN225@decompress:

; 63   :    {
; 64   :       MSBs = 124;                                              move16 (); 

  0003f	b9 7c 00 00 00	 mov	 ecx, 124		; 0000007cH
$LN16@decompress:
  00044	56		 push	 esi
  00045	57		 push	 edi
; File e:\mywork\client\pc2.0trunk\pc2.0\third_party\libamrplayer\amr\basicop2.c

; 432  :     L_product = (Word32) var1 *(Word32) var2;

  00046	0f bf c9	 movsx	 ecx, cx
  00049	69 f9 1f 05 00
	00		 imul	 edi, ecx, 1311

; 433  : 
; 434  :     L_product = (L_product & (Word32) 0xffff8000L) >> 15;

  0004f	c1 ff 0f	 sar	 edi, 15			; 0000000fH
  00052	8b c7		 mov	 eax, edi
  00054	89 7d f8	 mov	 DWORD PTR _L_product$1$[ebp], edi

; 436  :     if (L_product & (Word32) 0x00010000L)

  00057	a9 00 00 01 00	 test	 eax, 65536		; 00010000H
  0005c	74 05		 je	 SHORT $LN18@decompress

; 437  :         L_product = L_product | (Word32) 0xffff0000L;

  0005e	0d 00 00 ff ff	 or	 eax, -65536		; ffff0000H
$LN18@decompress:

; 79   :     if (L_var1 > 0X00007fffL)

  00063	3d ff 7f 00 00	 cmp	 eax, 32767		; 00007fffH
  00068	7e 11		 jle	 SHORT $LN24@decompress

; 81   :         Overflow = 1;

  0006a	c7 05 00 00 00
	00 01 00 00 00	 mov	 DWORD PTR _Overflow, 1

; 82   :         var_out = MAX_16;

  00074	b8 ff 7f 00 00	 mov	 eax, 32767		; 00007fffH
  00079	eb 1b		 jmp	 SHORT $LN21@decompress
$LN24@decompress:

; 84   :     else if (L_var1 < (Word32) 0xffff8000L)

  0007b	3d 00 80 ff ff	 cmp	 eax, -32768		; ffff8000H
  00080	7d 11		 jge	 SHORT $LN22@decompress

; 86   :         Overflow = 1;

  00082	c7 05 00 00 00
	00 01 00 00 00	 mov	 DWORD PTR _Overflow, 1

; 87   :         var_out = MIN_16;

  0008c	b8 00 80 ff ff	 mov	 eax, -32768		; ffff8000H

; 88   :     }
; 89   :     else

  00091	eb 03		 jmp	 SHORT $LN21@decompress
$LN22@decompress:

; 91   :         var_out = extract_l (L_var1);

  00093	0f b7 c0	 movzx	 eax, ax
$LN21@decompress:

; 438  : 
; 439  :     var_out = saturate (L_product);
; 440  : #if (WMOPS)
; 441  :     multiCounter[currCounter].mult++;
; 442  : #endif
; 443  :     return (var_out);
; 444  : }
; 445  : 
; 446  : /*___________________________________________________________________________
; 447  :  |                                                                           |
; 448  :  |   Function Name : L_mult                                                  |
; 449  :  |                                                                           |
; 450  :  |   Purpose :                                                               |
; 451  :  |                                                                           |
; 452  :  |   L_mult is the 32 bit result of the multiplication of var1 times var2    |
; 453  :  |   with one shift left i.e.:                                               |
; 454  :  |        L_mult(var1,var2) = L_shl((var1 times var2),1) and                   |
; 455  :  |        L_mult(-32768,-32768) = 2147483647.                                |
; 456  :  |                                                                           |
; 457  :  |   Complexity weight : 1                                                   |
; 458  :  |                                                                           |
; 459  :  |   Inputs :                                                                |
; 460  :  |                                                                           |
; 461  :  |    var1                                                                   |
; 462  :  |             16 bit short signed integer (Word16) whose value falls in the |
; 463  :  |             range : 0xffff 8000 <= var1 <= 0x0000 7fff.                   |
; 464  :  |                                                                           |
; 465  :  |    var2                                                                   |
; 466  :  |             16 bit short signed integer (Word16) whose value falls in the |
; 467  :  |             range : 0xffff 8000 <= var1 <= 0x0000 7fff.                   |
; 468  :  |                                                                           |
; 469  :  |   Outputs :                                                               |
; 470  :  |                                                                           |
; 471  :  |    none                                                                   |
; 472  :  |                                                                           |
; 473  :  |   Return Value :                                                          |
; 474  :  |                                                                           |
; 475  :  |    L_var_out                                                              |
; 476  :  |             32 bit long signed integer (Word32) whose value falls in the  |
; 477  :  |             range : 0x8000 0000 <= L_var_out <= 0x7fff ffff.              |
; 478  :  |___________________________________________________________________________|
; 479  : */
; 480  : 
; 481  : Word32 L_mult (Word16 var1, Word16 var2)
; 482  : {
; 483  :     Word32 L_var_out;
; 484  : 
; 485  :     L_var_out = (Word32) var1 *(Word32) var2;

  00096	98		 cwde
  00097	6b c0 19	 imul	 eax, eax, 25

; 486  : 
; 487  :     if (L_var_out != (Word32) 0x40000000L)

  0009a	3d 00 00 00 40	 cmp	 eax, 1073741824		; 40000000H
  0009f	74 0c		 je	 SHORT $LN30@decompress

; 488  :     {
; 489  :         L_var_out *= 2;

  000a1	03 c0		 add	 eax, eax

; 495  :     }
; 496  : 
; 497  : #if (WMOPS)
; 498  :     multiCounter[currCounter].L_mult++;
; 499  : #endif
; 500  :     return (L_var_out);
; 501  : }
; 502  : 
; 503  : /*___________________________________________________________________________
; 504  :  |                                                                           |
; 505  :  |   Function Name : negate                                                  |
; 506  :  |                                                                           |
; 507  :  |   Purpose :                                                               |
; 508  :  |                                                                           |
; 509  :  |   Negate var1 with saturation, saturate in the case where input is -32768:|
; 510  :  |                negate(var1) = sub(0,var1).                                |
; 511  :  |                                                                           |
; 512  :  |   Complexity weight : 1                                                   |
; 513  :  |                                                                           |
; 514  :  |   Inputs :                                                                |
; 515  :  |                                                                           |
; 516  :  |    var1                                                                   |
; 517  :  |             16 bit short signed integer (Word16) whose value falls in the |
; 518  :  |             range : 0xffff 8000 <= var1 <= 0x0000 7fff.                   |
; 519  :  |                                                                           |
; 520  :  |   Outputs :                                                               |
; 521  :  |                                                                           |
; 522  :  |    none                                                                   |
; 523  :  |                                                                           |
; 524  :  |   Return Value :                                                          |
; 525  :  |                                                                           |
; 526  :  |    var_out                                                                |
; 527  :  |             16 bit short signed integer (Word16) whose value falls in the |
; 528  :  |             range : 0xffff 8000 <= var_out <= 0x0000 7fff.                |
; 529  :  |___________________________________________________________________________|
; 530  : */
; 531  : 
; 532  : Word16 negate (Word16 var1)
; 533  : {
; 534  :     Word16 var_out;
; 535  : 
; 536  :     var_out = (var1 == MIN_16) ? MAX_16 : -var1;
; 537  : #if (WMOPS)
; 538  :     multiCounter[currCounter].negate++;
; 539  : #endif
; 540  :     return (var_out);
; 541  : }
; 542  : 
; 543  : /*___________________________________________________________________________
; 544  :  |                                                                           |
; 545  :  |   Function Name : extract_h                                               |
; 546  :  |                                                                           |
; 547  :  |   Purpose :                                                               |
; 548  :  |                                                                           |
; 549  :  |   Return the 16 MSB of L_var1.                                            |
; 550  :  |                                                                           |
; 551  :  |   Complexity weight : 1                                                   |
; 552  :  |                                                                           |
; 553  :  |   Inputs :                                                                |
; 554  :  |                                                                           |
; 555  :  |    L_var1                                                                 |
; 556  :  |             32 bit long signed integer (Word32 ) whose value falls in the |
; 557  :  |             range : 0x8000 0000 <= L_var1 <= 0x7fff ffff.                 |
; 558  :  |                                                                           |
; 559  :  |   Outputs :                                                               |
; 560  :  |                                                                           |
; 561  :  |    none                                                                   |
; 562  :  |                                                                           |
; 563  :  |   Return Value :                                                          |
; 564  :  |                                                                           |
; 565  :  |    var_out                                                                |
; 566  :  |             16 bit short signed integer (Word16) whose value falls in the |
; 567  :  |             range : 0xffff 8000 <= var_out <= 0x0000 7fff.                |
; 568  :  |___________________________________________________________________________|
; 569  : */
; 570  : 
; 571  : Word16 extract_h (Word32 L_var1)
; 572  : {
; 573  :     Word16 var_out;
; 574  : 
; 575  :     var_out = (Word16) (L_var1 >> 16);
; 576  : #if (WMOPS)
; 577  :     multiCounter[currCounter].extract_h++;
; 578  : #endif
; 579  :     return (var_out);
; 580  : }
; 581  : 
; 582  : /*___________________________________________________________________________
; 583  :  |                                                                           |
; 584  :  |   Function Name : extract_l                                               |
; 585  :  |                                                                           |
; 586  :  |   Purpose :                                                               |
; 587  :  |                                                                           |
; 588  :  |   Return the 16 LSB of L_var1.                                            |
; 589  :  |                                                                           |
; 590  :  |   Complexity weight : 1                                                   |
; 591  :  |                                                                           |
; 592  :  |   Inputs :                                                                |
; 593  :  |                                                                           |
; 594  :  |    L_var1                                                                 |
; 595  :  |             32 bit long signed integer (Word32 ) whose value falls in the |
; 596  :  |             range : 0x8000 0000 <= L_var1 <= 0x7fff ffff.                 |
; 597  :  |                                                                           |
; 598  :  |   Outputs :                                                               |
; 599  :  |                                                                           |
; 600  :  |    none                                                                   |
; 601  :  |                                                                           |
; 602  :  |   Return Value :                                                          |
; 603  :  |                                                                           |
; 604  :  |    var_out                                                                |
; 605  :  |             16 bit short signed integer (Word16) whose value falls in the |
; 606  :  |             range : 0xffff 8000 <= var_out <= 0x0000 7fff.                |
; 607  :  |___________________________________________________________________________|
; 608  : */
; 609  : 
; 610  : Word16 extract_l (Word32 L_var1)
; 611  : {
; 612  :     Word16 var_out;
; 613  : 
; 614  :     var_out = (Word16) L_var1;
; 615  : #if (WMOPS)
; 616  :     multiCounter[currCounter].extract_l++;
; 617  : #endif
; 618  :     return (var_out);
; 619  : }
; 620  : 
; 621  : /*___________________________________________________________________________
; 622  :  |                                                                           |
; 623  :  |   Function Name : round                                                   |
; 624  :  |                                                                           |
; 625  :  |   Purpose :                                                               |
; 626  :  |                                                                           |
; 627  :  |   Round the lower 16 bits of the 32 bit input number into the MS 16 bits  |
; 628  :  |   with saturation. Shift the resulting bits right by 16 and return the 16 |
; 629  :  |   bit number:                                                             |
; 630  :  |               round(L_var1) = extract_h(L_add(L_var1,32768))              |
; 631  :  |                                                                           |
; 632  :  |   Complexity weight : 1                                                   |
; 633  :  |                                                                           |
; 634  :  |   Inputs :                                                                |
; 635  :  |                                                                           |
; 636  :  |    L_var1                                                                 |
; 637  :  |             32 bit long signed integer (Word32 ) whose value falls in the |
; 638  :  |             range : 0x8000 0000 <= L_var1 <= 0x7fff ffff.                 |
; 639  :  |                                                                           |
; 640  :  |   Outputs :                                                               |
; 641  :  |                                                                           |
; 642  :  |    none                                                                   |
; 643  :  |                                                                           |
; 644  :  |   Return Value :                                                          |
; 645  :  |                                                                           |
; 646  :  |    var_out                                                                |
; 647  :  |             16 bit short signed integer (Word16) whose value falls in the |
; 648  :  |             range : 0xffff 8000 <= var_out <= 0x0000 7fff.                |
; 649  :  |___________________________________________________________________________|
; 650  : */
; 651  : 
; 652  : Word16 round (Word32 L_var1)
; 653  : {
; 654  :     Word16 var_out;
; 655  :     Word32 L_rounded;
; 656  : 
; 657  :     L_rounded = L_add (L_var1, (Word32) 0x00008000L);
; 658  : #if (WMOPS)
; 659  :     multiCounter[currCounter].L_add--;
; 660  : #endif
; 661  :     var_out = extract_h (L_rounded);
; 662  : #if (WMOPS)
; 663  :     multiCounter[currCounter].extract_h--;
; 664  :     multiCounter[currCounter].round++;
; 665  : #endif
; 666  :     return (var_out);
; 667  : }
; 668  : 
; 669  : /*___________________________________________________________________________
; 670  :  |                                                                           |
; 671  :  |   Function Name : L_mac                                                   |
; 672  :  |                                                                           |
; 673  :  |   Purpose :                                                               |
; 674  :  |                                                                           |
; 675  :  |   Multiply var1 by var2 and shift the result left by 1. Add the 32 bit    |
; 676  :  |   result to L_var3 with saturation, return a 32 bit result:               |
; 677  :  |        L_mac(L_var3,var1,var2) = L_add(L_var3,L_mult(var1,var2)).         |
; 678  :  |                                                                           |
; 679  :  |   Complexity weight : 1                                                   |
; 680  :  |                                                                           |
; 681  :  |   Inputs :                                                                |
; 682  :  |                                                                           |
; 683  :  |    L_var3   32 bit long signed integer (Word32) whose value falls in the  |
; 684  :  |             range : 0x8000 0000 <= L_var3 <= 0x7fff ffff.                 |
; 685  :  |                                                                           |
; 686  :  |    var1                                                                   |
; 687  :  |             16 bit short signed integer (Word16) whose value falls in the |
; 688  :  |             range : 0xffff 8000 <= var1 <= 0x0000 7fff.                   |
; 689  :  |                                                                           |
; 690  :  |    var2                                                                   |
; 691  :  |             16 bit short signed integer (Word16) whose value falls in the |
; 692  :  |             range : 0xffff 8000 <= var1 <= 0x0000 7fff.                   |
; 693  :  |                                                                           |
; 694  :  |   Outputs :                                                               |
; 695  :  |                                                                           |
; 696  :  |    none                                                                   |
; 697  :  |                                                                           |
; 698  :  |   Return Value :                                                          |
; 699  :  |                                                                           |
; 700  :  |    L_var_out                                                              |
; 701  :  |             32 bit long signed integer (Word32) whose value falls in the  |
; 702  :  |             range : 0x8000 0000 <= L_var_out <= 0x7fff ffff.              |
; 703  :  |___________________________________________________________________________|
; 704  : */
; 705  : 
; 706  : Word32 L_mac (Word32 L_var3, Word16 var1, Word16 var2)
; 707  : {
; 708  :     Word32 L_var_out;
; 709  :     Word32 L_product;
; 710  : 
; 711  :     L_product = L_mult (var1, var2);
; 712  : #if (WMOPS)
; 713  :     multiCounter[currCounter].L_mult--;
; 714  : #endif
; 715  :     L_var_out = L_add (L_var3, L_product);
; 716  : #if (WMOPS)
; 717  :     multiCounter[currCounter].L_add--;
; 718  :     multiCounter[currCounter].L_mac++;
; 719  : #endif
; 720  :     return (L_var_out);
; 721  : }
; 722  : 
; 723  : /*___________________________________________________________________________
; 724  :  |                                                                           |
; 725  :  |   Function Name : L_msu                                                   |
; 726  :  |                                                                           |
; 727  :  |   Purpose :                                                               |
; 728  :  |                                                                           |
; 729  :  |   Multiply var1 by var2 and shift the result left by 1. Subtract the 32   |
; 730  :  |   bit result to L_var3 with saturation, return a 32 bit result:           |
; 731  :  |        L_msu(L_var3,var1,var2) = L_sub(L_var3,L_mult(var1,var2)).         |
; 732  :  |                                                                           |
; 733  :  |   Complexity weight : 1                                                   |
; 734  :  |                                                                           |
; 735  :  |   Inputs :                                                                |
; 736  :  |                                                                           |
; 737  :  |    L_var3   32 bit long signed integer (Word32) whose value falls in the  |
; 738  :  |             range : 0x8000 0000 <= L_var3 <= 0x7fff ffff.                 |
; 739  :  |                                                                           |
; 740  :  |    var1                                                                   |
; 741  :  |             16 bit short signed integer (Word16) whose value falls in the |
; 742  :  |             range : 0xffff 8000 <= var1 <= 0x0000 7fff.                   |
; 743  :  |                                                                           |
; 744  :  |    var2                                                                   |
; 745  :  |             16 bit short signed integer (Word16) whose value falls in the |
; 746  :  |             range : 0xffff 8000 <= var1 <= 0x0000 7fff.                   |
; 747  :  |                                                                           |
; 748  :  |   Outputs :                                                               |
; 749  :  |                                                                           |
; 750  :  |    none                                                                   |
; 751  :  |                                                                           |
; 752  :  |   Return Value :                                                          |
; 753  :  |                                                                           |
; 754  :  |    L_var_out                                                              |
; 755  :  |             32 bit long signed integer (Word32) whose value falls in the  |
; 756  :  |             range : 0x8000 0000 <= L_var_out <= 0x7fff ffff.              |
; 757  :  |___________________________________________________________________________|
; 758  : */
; 759  : 
; 760  : Word32 L_msu (Word32 L_var3, Word16 var1, Word16 var2)
; 761  : {
; 762  :     Word32 L_var_out;
; 763  :     Word32 L_product;
; 764  : 
; 765  :     L_product = L_mult (var1, var2);
; 766  : #if (WMOPS)
; 767  :     multiCounter[currCounter].L_mult--;
; 768  : #endif
; 769  :     L_var_out = L_sub (L_var3, L_product);
; 770  : #if (WMOPS)
; 771  :     multiCounter[currCounter].L_sub--;
; 772  :     multiCounter[currCounter].L_msu++;
; 773  : #endif
; 774  :     return (L_var_out);
; 775  : }
; 776  : 
; 777  : /*___________________________________________________________________________
; 778  :  |                                                                           |
; 779  :  |   Function Name : L_macNs                                                 |
; 780  :  |                                                                           |
; 781  :  |   Purpose :                                                               |
; 782  :  |                                                                           |
; 783  :  |   Multiply var1 by var2 and shift the result left by 1. Add the 32 bit    |
; 784  :  |   result to L_var3 without saturation, return a 32 bit result. Generate   |
; 785  :  |   carry and overflow values :                                             |
; 786  :  |        L_macNs(L_var3,var1,var2) = L_add_c(L_var3,L_mult(var1,var2)).     |
; 787  :  |                                                                           |
; 788  :  |   Complexity weight : 1                                                   |
; 789  :  |                                                                           |
; 790  :  |   Inputs :                                                                |
; 791  :  |                                                                           |
; 792  :  |    L_var3   32 bit long signed integer (Word32) whose value falls in the  |
; 793  :  |             range : 0x8000 0000 <= L_var3 <= 0x7fff ffff.                 |
; 794  :  |                                                                           |
; 795  :  |    var1                                                                   |
; 796  :  |             16 bit short signed integer (Word16) whose value falls in the |
; 797  :  |             range : 0xffff 8000 <= var1 <= 0x0000 7fff.                   |
; 798  :  |                                                                           |
; 799  :  |    var2                                                                   |
; 800  :  |             16 bit short signed integer (Word16) whose value falls in the |
; 801  :  |             range : 0xffff 8000 <= var1 <= 0x0000 7fff.                   |
; 802  :  |                                                                           |
; 803  :  |   Outputs :                                                               |
; 804  :  |                                                                           |
; 805  :  |    none                                                                   |
; 806  :  |                                                                           |
; 807  :  |   Return Value :                                                          |
; 808  :  |                                                                           |
; 809  :  |    L_var_out                                                              |
; 810  :  |             32 bit long signed integer (Word32) whose value falls in the  |
; 811  :  |             range : 0x8000 0000 <= L_var_out <= 0x7fff ffff.              |
; 812  :  |                                                                           |
; 813  :  |   Caution :                                                               |
; 814  :  |                                                                           |
; 815  :  |    In some cases the Carry flag has to be cleared or set before using     |
; 816  :  |    operators which take into account its value.                           |
; 817  :  |___________________________________________________________________________|
; 818  : */
; 819  : 
; 820  : Word32 L_macNs (Word32 L_var3, Word16 var1, Word16 var2)
; 821  : {
; 822  :     Word32 L_var_out;
; 823  : 
; 824  :     L_var_out = L_mult (var1, var2);
; 825  : #if (WMOPS)
; 826  :     multiCounter[currCounter].L_mult--;
; 827  : #endif
; 828  :     L_var_out = L_add_c (L_var3, L_var_out);
; 829  : #if (WMOPS)
; 830  :     multiCounter[currCounter].L_add_c--;
; 831  :     multiCounter[currCounter].L_macNs++;
; 832  : #endif
; 833  :     return (L_var_out);
; 834  : }
; 835  : 
; 836  : /*___________________________________________________________________________
; 837  :  |                                                                           |
; 838  :  |   Function Name : L_msuNs                                                 |
; 839  :  |                                                                           |
; 840  :  |   Purpose :                                                               |
; 841  :  |                                                                           |
; 842  :  |   Multiply var1 by var2 and shift the result left by 1. Subtract the 32   |
; 843  :  |   bit result from L_var3 without saturation, return a 32 bit result. Ge-  |
; 844  :  |   nerate carry and overflow values :                                      |
; 845  :  |        L_msuNs(L_var3,var1,var2) = L_sub_c(L_var3,L_mult(var1,var2)).     |
; 846  :  |                                                                           |
; 847  :  |   Complexity weight : 1                                                   |
; 848  :  |                                                                           |
; 849  :  |   Inputs :                                                                |
; 850  :  |                                                                           |
; 851  :  |    L_var3   32 bit long signed integer (Word32) whose value falls in the  |
; 852  :  |             range : 0x8000 0000 <= L_var3 <= 0x7fff ffff.                 |
; 853  :  |                                                                           |
; 854  :  |    var1                                                                   |
; 855  :  |             16 bit short signed integer (Word16) whose value falls in the |
; 856  :  |             range : 0xffff 8000 <= var1 <= 0x0000 7fff.                   |
; 857  :  |                                                                           |
; 858  :  |    var2                                                                   |
; 859  :  |             16 bit short signed integer (Word16) whose value falls in the |
; 860  :  |             range : 0xffff 8000 <= var1 <= 0x0000 7fff.                   |
; 861  :  |                                                                           |
; 862  :  |   Outputs :                                                               |
; 863  :  |                                                                           |
; 864  :  |    none                                                                   |
; 865  :  |                                                                           |
; 866  :  |   Return Value :                                                          |
; 867  :  |                                                                           |
; 868  :  |    L_var_out                                                              |
; 869  :  |             32 bit long signed integer (Word32) whose value falls in the  |
; 870  :  |             range : 0x8000 0000 <= L_var_out <= 0x7fff ffff.              |
; 871  :  |                                                                           |
; 872  :  |   Caution :                                                               |
; 873  :  |                                                                           |
; 874  :  |    In some cases the Carry flag has to be cleared or set before using     |
; 875  :  |    operators which take into account its value.                           |
; 876  :  |___________________________________________________________________________|
; 877  : */
; 878  : 
; 879  : Word32 L_msuNs (Word32 L_var3, Word16 var1, Word16 var2)
; 880  : {
; 881  :     Word32 L_var_out;
; 882  : 
; 883  :     L_var_out = L_mult (var1, var2);
; 884  : #if (WMOPS)
; 885  :     multiCounter[currCounter].L_mult--;
; 886  : #endif
; 887  :     L_var_out = L_sub_c (L_var3, L_var_out);
; 888  : #if (WMOPS)
; 889  :     multiCounter[currCounter].L_sub_c--;
; 890  :     multiCounter[currCounter].L_msuNs++;
; 891  : #endif
; 892  :     return (L_var_out);
; 893  : }
; 894  : 
; 895  : /*___________________________________________________________________________
; 896  :  |                                                                           |
; 897  :  |   Function Name : L_add                                                   |
; 898  :  |                                                                           |
; 899  :  |   Purpose :                                                               |
; 900  :  |                                                                           |
; 901  :  |   32 bits addition of the two 32 bits variables (L_var1+L_var2) with      |
; 902  :  |   overflow control and saturation; the result is set at +2147483647 when  |
; 903  :  |   overflow occurs or at -2147483648 when underflow occurs.                |
; 904  :  |                                                                           |
; 905  :  |   Complexity weight : 2                                                   |
; 906  :  |                                                                           |
; 907  :  |   Inputs :                                                                |
; 908  :  |                                                                           |
; 909  :  |    L_var1   32 bit long signed integer (Word32) whose value falls in the  |
; 910  :  |             range : 0x8000 0000 <= L_var3 <= 0x7fff ffff.                 |
; 911  :  |                                                                           |
; 912  :  |    L_var2   32 bit long signed integer (Word32) whose value falls in the  |
; 913  :  |             range : 0x8000 0000 <= L_var3 <= 0x7fff ffff.                 |
; 914  :  |                                                                           |
; 915  :  |   Outputs :                                                               |
; 916  :  |                                                                           |
; 917  :  |    none                                                                   |
; 918  :  |                                                                           |
; 919  :  |   Return Value :                                                          |
; 920  :  |                                                                           |
; 921  :  |    L_var_out                                                              |
; 922  :  |             32 bit long signed integer (Word32) whose value falls in the  |
; 923  :  |             range : 0x8000 0000 <= L_var_out <= 0x7fff ffff.              |
; 924  :  |___________________________________________________________________________|
; 925  : */
; 926  : 
; 927  : Word32 L_add (Word32 L_var1, Word32 L_var2)
; 928  : {
; 929  :     Word32 L_var_out;
; 930  : 
; 931  :     L_var_out = L_var1 + L_var2;
; 932  : 
; 933  :     if (((L_var1 ^ L_var2) & MIN_32) == 0)
; 934  :     {
; 935  :         if ((L_var_out ^ L_var1) & MIN_32)
; 936  :         {
; 937  :             L_var_out = (L_var1 < 0) ? MIN_32 : MAX_32;
; 938  :             Overflow = 1;
; 939  :         }
; 940  :     }
; 941  : #if (WMOPS)
; 942  :     multiCounter[currCounter].L_add++;
; 943  : #endif
; 944  :     return (L_var_out);
; 945  : }
; 946  : 
; 947  : /*___________________________________________________________________________
; 948  :  |                                                                           |
; 949  :  |   Function Name : L_sub                                                   |
; 950  :  |                                                                           |
; 951  :  |   Purpose :                                                               |
; 952  :  |                                                                           |
; 953  :  |   32 bits subtraction of the two 32 bits variables (L_var1-L_var2) with   |
; 954  :  |   overflow control and saturation; the result is set at +2147483647 when  |
; 955  :  |   overflow occurs or at -2147483648 when underflow occurs.                |
; 956  :  |                                                                           |
; 957  :  |   Complexity weight : 2                                                   |
; 958  :  |                                                                           |
; 959  :  |   Inputs :                                                                |
; 960  :  |                                                                           |
; 961  :  |    L_var1   32 bit long signed integer (Word32) whose value falls in the  |
; 962  :  |             range : 0x8000 0000 <= L_var3 <= 0x7fff ffff.                 |
; 963  :  |                                                                           |
; 964  :  |    L_var2   32 bit long signed integer (Word32) whose value falls in the  |
; 965  :  |             range : 0x8000 0000 <= L_var3 <= 0x7fff ffff.                 |
; 966  :  |                                                                           |
; 967  :  |   Outputs :                                                               |
; 968  :  |                                                                           |
; 969  :  |    none                                                                   |
; 970  :  |                                                                           |
; 971  :  |   Return Value :                                                          |
; 972  :  |                                                                           |
; 973  :  |    L_var_out                                                              |
; 974  :  |             32 bit long signed integer (Word32) whose value falls in the  |
; 975  :  |             range : 0x8000 0000 <= L_var_out <= 0x7fff ffff.              |
; 976  :  |___________________________________________________________________________|
; 977  : */
; 978  : 
; 979  : Word32 L_sub (Word32 L_var1, Word32 L_var2)
; 980  : {
; 981  :     Word32 L_var_out;
; 982  : 
; 983  :     L_var_out = L_var1 - L_var2;
; 984  : 
; 985  :     if (((L_var1 ^ L_var2) & MIN_32) != 0)
; 986  :     {
; 987  :         if ((L_var_out ^ L_var1) & MIN_32)
; 988  :         {
; 989  :             L_var_out = (L_var1 < 0L) ? MIN_32 : MAX_32;
; 990  :             Overflow = 1;
; 991  :         }
; 992  :     }
; 993  : #if (WMOPS)
; 994  :     multiCounter[currCounter].L_sub++;
; 995  : #endif
; 996  :     return (L_var_out);
; 997  : }
; 998  : 
; 999  : /*___________________________________________________________________________
; 1000 :  |                                                                           |
; 1001 :  |   Function Name : L_add_c                                                 |
; 1002 :  |                                                                           |
; 1003 :  |   Purpose :                                                               |
; 1004 :  |                                                                           |
; 1005 :  |   Performs 32 bits addition of the two 32 bits variables (L_var1+L_var2+C)|
; 1006 :  |   with carry. No saturation. Generate carry and Overflow values. The car- |
; 1007 :  |   ry and overflow values are binary variables which can be tested and as- |
; 1008 :  |   signed values.                                                          |
; 1009 :  |                                                                           |
; 1010 :  |   Complexity weight : 2                                                   |
; 1011 :  |                                                                           |
; 1012 :  |   Inputs :                                                                |
; 1013 :  |                                                                           |
; 1014 :  |    L_var1   32 bit long signed integer (Word32) whose value falls in the  |
; 1015 :  |             range : 0x8000 0000 <= L_var3 <= 0x7fff ffff.                 |
; 1016 :  |                                                                           |
; 1017 :  |    L_var2   32 bit long signed integer (Word32) whose value falls in the  |
; 1018 :  |             range : 0x8000 0000 <= L_var3 <= 0x7fff ffff.                 |
; 1019 :  |                                                                           |
; 1020 :  |   Outputs :                                                               |
; 1021 :  |                                                                           |
; 1022 :  |    none                                                                   |
; 1023 :  |                                                                           |
; 1024 :  |   Return Value :                                                          |
; 1025 :  |                                                                           |
; 1026 :  |    L_var_out                                                              |
; 1027 :  |             32 bit long signed integer (Word32) whose value falls in the  |
; 1028 :  |             range : 0x8000 0000 <= L_var_out <= 0x7fff ffff.              |
; 1029 :  |                                                                           |
; 1030 :  |   Caution :                                                               |
; 1031 :  |                                                                           |
; 1032 :  |    In some cases the Carry flag has to be cleared or set before using     |
; 1033 :  |    operators which take into account its value.                           |
; 1034 :  |___________________________________________________________________________|
; 1035 : */
; 1036 : Word32 L_add_c (Word32 L_var1, Word32 L_var2)
; 1037 : {
; 1038 :     Word32 L_var_out;
; 1039 :     Word32 L_test;
; 1040 :     Flag carry_int = 0;
; 1041 : 
; 1042 :     L_var_out = L_var1 + L_var2 + Carry;
; 1043 : 
; 1044 :     L_test = L_var1 + L_var2;
; 1045 : 
; 1046 :     if ((L_var1 > 0) && (L_var2 > 0) && (L_test < 0))
; 1047 :     {
; 1048 :         Overflow = 1;
; 1049 :         carry_int = 0;
; 1050 :     }
; 1051 :     else
; 1052 :     {
; 1053 :         if ((L_var1 < 0) && (L_var2 < 0))
; 1054 :         {
; 1055 :             if (L_test >= 0)
; 1056 : 	    {
; 1057 :                 Overflow = 1;
; 1058 :                 carry_int = 1;
; 1059 : 	    }
; 1060 :             else
; 1061 : 	    {
; 1062 :                 Overflow = 0;
; 1063 :                 carry_int = 1;
; 1064 : 	    }
; 1065 :         }
; 1066 :         else
; 1067 :         {
; 1068 :             if (((L_var1 ^ L_var2) < 0) && (L_test >= 0))
; 1069 :             {
; 1070 :                 Overflow = 0;
; 1071 :                 carry_int = 1;
; 1072 :             }
; 1073 :             else
; 1074 :             {
; 1075 :                 Overflow = 0;
; 1076 :                 carry_int = 0;
; 1077 :             }
; 1078 :         }
; 1079 :     }
; 1080 : 
; 1081 :     if (Carry)
; 1082 :     {
; 1083 :         if (L_test == MAX_32)
; 1084 :         {
; 1085 :             Overflow = 1;
; 1086 :             Carry = carry_int;
; 1087 :         }
; 1088 :         else
; 1089 :         {
; 1090 :             if (L_test == (Word32) 0xFFFFFFFFL)
; 1091 :             {
; 1092 :                 Carry = 1;
; 1093 :             }
; 1094 :             else
; 1095 :             {
; 1096 :                 Carry = carry_int;
; 1097 :             }
; 1098 :         }
; 1099 :     }
; 1100 :     else
; 1101 :     {
; 1102 :         Carry = carry_int;
; 1103 :     }
; 1104 : 
; 1105 : #if (WMOPS)
; 1106 :     multiCounter[currCounter].L_add_c++;
; 1107 : #endif
; 1108 :     return (L_var_out);
; 1109 : }
; 1110 : 
; 1111 : /*___________________________________________________________________________
; 1112 :  |                                                                           |
; 1113 :  |   Function Name : L_sub_c                                                 |
; 1114 :  |                                                                           |
; 1115 :  |   Purpose :                                                               |
; 1116 :  |                                                                           |
; 1117 :  |   Performs 32 bits subtraction of the two 32 bits variables with carry    |
; 1118 :  |   (borrow) : L_var1-L_var2-C. No saturation. Generate carry and Overflow  |
; 1119 :  |   values. The carry and overflow values are binary variables which can    |
; 1120 :  |   be tested and assigned values.                                          |
; 1121 :  |                                                                           |
; 1122 :  |   Complexity weight : 2                                                   |
; 1123 :  |                                                                           |
; 1124 :  |   Inputs :                                                                |
; 1125 :  |                                                                           |
; 1126 :  |    L_var1   32 bit long signed integer (Word32) whose value falls in the  |
; 1127 :  |             range : 0x8000 0000 <= L_var3 <= 0x7fff ffff.                 |
; 1128 :  |                                                                           |
; 1129 :  |    L_var2   32 bit long signed integer (Word32) whose value falls in the  |
; 1130 :  |             range : 0x8000 0000 <= L_var3 <= 0x7fff ffff.                 |
; 1131 :  |                                                                           |
; 1132 :  |   Outputs :                                                               |
; 1133 :  |                                                                           |
; 1134 :  |    none                                                                   |
; 1135 :  |                                                                           |
; 1136 :  |   Return Value :                                                          |
; 1137 :  |                                                                           |
; 1138 :  |    L_var_out                                                              |
; 1139 :  |             32 bit long signed integer (Word32) whose value falls in the  |
; 1140 :  |             range : 0x8000 0000 <= L_var_out <= 0x7fff ffff.              |
; 1141 :  |                                                                           |
; 1142 :  |   Caution :                                                               |
; 1143 :  |                                                                           |
; 1144 :  |    In some cases the Carry flag has to be cleared or set before using     |
; 1145 :  |    operators which take into account its value.                           |
; 1146 :  |___________________________________________________________________________|
; 1147 : */
; 1148 : 
; 1149 : Word32 L_sub_c (Word32 L_var1, Word32 L_var2)
; 1150 : {
; 1151 :     Word32 L_var_out;
; 1152 :     Word32 L_test;
; 1153 :     Flag carry_int = 0;
; 1154 : 
; 1155 :     if (Carry)
; 1156 :     {
; 1157 :         Carry = 0;
; 1158 :         if (L_var2 != MIN_32)
; 1159 :         {
; 1160 :             L_var_out = L_add_c (L_var1, -L_var2);
; 1161 : #if (WMOPS)
; 1162 :             multiCounter[currCounter].L_add_c--;
; 1163 : #endif
; 1164 :         }
; 1165 :         else
; 1166 :         {
; 1167 :             L_var_out = L_var1 - L_var2;
; 1168 :             if (L_var1 > 0L)
; 1169 :             {
; 1170 :                 Overflow = 1;
; 1171 :                 Carry = 0;
; 1172 :             }
; 1173 :         }
; 1174 :     }
; 1175 :     else
; 1176 :     {
; 1177 :         L_var_out = L_var1 - L_var2 - (Word32) 0X00000001L;
; 1178 :         L_test = L_var1 - L_var2;
; 1179 : 
; 1180 :         if ((L_test < 0) && (L_var1 > 0) && (L_var2 < 0))
; 1181 :         {
; 1182 :             Overflow = 1;
; 1183 :             carry_int = 0;
; 1184 :         }
; 1185 :         else if ((L_test > 0) && (L_var1 < 0) && (L_var2 > 0))
; 1186 :         {
; 1187 :             Overflow = 1;
; 1188 :             carry_int = 1;
; 1189 :         }
; 1190 :         else if ((L_test > 0) && ((L_var1 ^ L_var2) > 0))
; 1191 :         {
; 1192 :             Overflow = 0;
; 1193 :             carry_int = 1;
; 1194 :         }
; 1195 :         if (L_test == MIN_32)
; 1196 :         {
; 1197 :             Overflow = 1;
; 1198 :             Carry = carry_int;
; 1199 :         }
; 1200 :         else
; 1201 :         {
; 1202 :             Carry = carry_int;
; 1203 :         }
; 1204 :     }
; 1205 : 
; 1206 : #if (WMOPS)
; 1207 :     multiCounter[currCounter].L_sub_c++;
; 1208 : #endif
; 1209 :     return (L_var_out);
; 1210 : }
; 1211 : 
; 1212 : /*___________________________________________________________________________
; 1213 :  |                                                                           |
; 1214 :  |   Function Name : L_negate                                                |
; 1215 :  |                                                                           |
; 1216 :  |   Purpose :                                                               |
; 1217 :  |                                                                           |
; 1218 :  |   Negate the 32 bit variable L_var1 with saturation; saturate in the case |
; 1219 :  |   where input is -2147483648 (0x8000 0000).                               |
; 1220 :  |                                                                           |
; 1221 :  |   Complexity weight : 2                                                   |
; 1222 :  |                                                                           |
; 1223 :  |   Inputs :                                                                |
; 1224 :  |                                                                           |
; 1225 :  |    L_var1   32 bit long signed integer (Word32) whose value falls in the  |
; 1226 :  |             range : 0x8000 0000 <= L_var3 <= 0x7fff ffff.                 |
; 1227 :  |                                                                           |
; 1228 :  |   Outputs :                                                               |
; 1229 :  |                                                                           |
; 1230 :  |    none                                                                   |
; 1231 :  |                                                                           |
; 1232 :  |   Return Value :                                                          |
; 1233 :  |                                                                           |
; 1234 :  |    L_var_out                                                              |
; 1235 :  |             32 bit long signed integer (Word32) whose value falls in the  |
; 1236 :  |             range : 0x8000 0000 <= L_var_out <= 0x7fff ffff.              |
; 1237 :  |___________________________________________________________________________|
; 1238 : */
; 1239 : 
; 1240 : Word32 L_negate (Word32 L_var1)
; 1241 : {
; 1242 :     Word32 L_var_out;
; 1243 : 
; 1244 :     L_var_out = (L_var1 == MIN_32) ? MAX_32 : -L_var1;
; 1245 : #if (WMOPS)
; 1246 :     multiCounter[currCounter].L_negate++;
; 1247 : #endif
; 1248 :     return (L_var_out);
; 1249 : }
; 1250 : 
; 1251 : /*___________________________________________________________________________
; 1252 :  |                                                                           |
; 1253 :  |   Function Name : mult_r                                                  |
; 1254 :  |                                                                           |
; 1255 :  |   Purpose :                                                               |
; 1256 :  |                                                                           |
; 1257 :  |   Same as mult with rounding, i.e.:                                       |
; 1258 :  |     mult_r(var1,var2) = extract_l(L_shr(((var1 * var2) + 16384),15)) and  |
; 1259 :  |     mult_r(-32768,-32768) = 32767.                                        |
; 1260 :  |                                                                           |
; 1261 :  |   Complexity weight : 2                                                   |
; 1262 :  |                                                                           |
; 1263 :  |   Inputs :                                                                |
; 1264 :  |                                                                           |
; 1265 :  |    var1                                                                   |
; 1266 :  |             16 bit short signed integer (Word16) whose value falls in the |
; 1267 :  |             range : 0xffff 8000 <= var1 <= 0x0000 7fff.                   |
; 1268 :  |                                                                           |
; 1269 :  |    var2                                                                   |
; 1270 :  |             16 bit short signed integer (Word16) whose value falls in the |
; 1271 :  |             range : 0xffff 8000 <= var1 <= 0x0000 7fff.                   |
; 1272 :  |                                                                           |
; 1273 :  |   Outputs :                                                               |
; 1274 :  |                                                                           |
; 1275 :  |    none                                                                   |
; 1276 :  |                                                                           |
; 1277 :  |   Return Value :                                                          |
; 1278 :  |                                                                           |
; 1279 :  |    var_out                                                                |
; 1280 :  |             16 bit short signed integer (Word16) whose value falls in the |
; 1281 :  |             range : 0xffff 8000 <= var_out <= 0x0000 7fff.                |
; 1282 :  |___________________________________________________________________________|
; 1283 : */
; 1284 : 
; 1285 : Word16 mult_r (Word16 var1, Word16 var2)
; 1286 : {
; 1287 :     Word16 var_out;
; 1288 :     Word32 L_product_arr;
; 1289 : 
; 1290 :     L_product_arr = (Word32) var1 *(Word32) var2;       /* product */
; 1291 :     L_product_arr += (Word32) 0x00004000L;      /* round */
; 1292 :     L_product_arr &= (Word32) 0xffff8000L;
; 1293 :     L_product_arr >>= 15;       /* shift */
; 1294 : 
; 1295 :     if (L_product_arr & (Word32) 0x00010000L)   /* sign extend when necessary */
; 1296 :     {
; 1297 :         L_product_arr |= (Word32) 0xffff0000L;
; 1298 :     }
; 1299 :     var_out = saturate (L_product_arr);
; 1300 : #if (WMOPS)
; 1301 :     multiCounter[currCounter].mult_r++;
; 1302 : #endif
; 1303 :     return (var_out);
; 1304 : }
; 1305 : 
; 1306 : /*___________________________________________________________________________
; 1307 :  |                                                                           |
; 1308 :  |   Function Name : L_shl                                                   |
; 1309 :  |                                                                           |
; 1310 :  |   Purpose :                                                               |
; 1311 :  |                                                                           |
; 1312 :  |   Arithmetically shift the 32 bit input L_var1 left var2 positions. Zero  |
; 1313 :  |   fill the var2 LSB of the result. If var2 is negative, arithmetically    |
; 1314 :  |   shift L_var1 right by -var2 with sign extension. Saturate the result in |
; 1315 :  |   case of underflows or overflows.                                        |
; 1316 :  |                                                                           |
; 1317 :  |   Complexity weight : 2                                                   |
; 1318 :  |                                                                           |
; 1319 :  |   Inputs :                                                                |
; 1320 :  |                                                                           |
; 1321 :  |    L_var1   32 bit long signed integer (Word32) whose value falls in the  |
; 1322 :  |             range : 0x8000 0000 <= L_var3 <= 0x7fff ffff.                 |
; 1323 :  |                                                                           |
; 1324 :  |    var2                                                                   |
; 1325 :  |             16 bit short signed integer (Word16) whose value falls in the |
; 1326 :  |             range : 0xffff 8000 <= var1 <= 0x0000 7fff.                   |
; 1327 :  |                                                                           |
; 1328 :  |   Outputs :                                                               |
; 1329 :  |                                                                           |
; 1330 :  |    none                                                                   |
; 1331 :  |                                                                           |
; 1332 :  |   Return Value :                                                          |
; 1333 :  |                                                                           |
; 1334 :  |    L_var_out                                                              |
; 1335 :  |             32 bit long signed integer (Word32) whose value falls in the  |
; 1336 :  |             range : 0x8000 0000 <= L_var_out <= 0x7fff ffff.              |
; 1337 :  |___________________________________________________________________________|
; 1338 : */
; 1339 : 
; 1340 : Word32 L_shl (Word32 L_var1, Word16 var2)
; 1341 : {
; 1342 :     Word32 L_var_out;
; 1343 : 
; 1344 :     if (var2 <= 0)
; 1345 :     {
; 1346 :         if (var2 < -32)
; 1347 :             var2 = -32;
; 1348 :         L_var_out = L_shr (L_var1, -var2);
; 1349 : #if (WMOPS)
; 1350 :         multiCounter[currCounter].L_shr--;
; 1351 : #endif
; 1352 :     }
; 1353 :     else
; 1354 :     {
; 1355 :         for (; var2 > 0; var2--)
; 1356 :         {
; 1357 :             if (L_var1 > (Word32) 0X3fffffffL)
; 1358 :             {
; 1359 :                 Overflow = 1;
; 1360 :                 L_var_out = MAX_32;
; 1361 :                 break;
; 1362 :             }
; 1363 :             else
; 1364 :             {
; 1365 :                 if (L_var1 < (Word32) 0xc0000000L)
; 1366 :                 {
; 1367 :                     Overflow = 1;
; 1368 :                     L_var_out = MIN_32;
; 1369 :                     break;
; 1370 :                 }
; 1371 :             }
; 1372 :             L_var1 *= 2;
; 1373 :             L_var_out = L_var1;
; 1374 :         }
; 1375 :     }
; 1376 : #if (WMOPS)
; 1377 :     multiCounter[currCounter].L_shl++;
; 1378 : #endif
; 1379 :     return (L_var_out);
; 1380 : }
; 1381 : 
; 1382 : /*___________________________________________________________________________
; 1383 :  |                                                                           |
; 1384 :  |   Function Name : L_shr                                                   |
; 1385 :  |                                                                           |
; 1386 :  |   Purpose :                                                               |
; 1387 :  |                                                                           |
; 1388 :  |   Arithmetically shift the 32 bit input L_var1 right var2 positions with  |
; 1389 :  |   sign extension. If var2 is negative, arithmetically shift L_var1 left   |
; 1390 :  |   by -var2 and zero fill the -var2 LSB of the result. Saturate the result |
; 1391 :  |   in case of underflows or overflows.                                     |
; 1392 :  |                                                                           |
; 1393 :  |   Complexity weight : 2                                                   |
; 1394 :  |                                                                           |
; 1395 :  |   Inputs :                                                                |
; 1396 :  |                                                                           |
; 1397 :  |    L_var1   32 bit long signed integer (Word32) whose value falls in the  |
; 1398 :  |             range : 0x8000 0000 <= L_var3 <= 0x7fff ffff.                 |
; 1399 :  |                                                                           |
; 1400 :  |    var2                                                                   |
; 1401 :  |             16 bit short signed integer (Word16) whose value falls in the |
; 1402 :  |             range : 0xffff 8000 <= var1 <= 0x0000 7fff.                   |
; 1403 :  |                                                                           |
; 1404 :  |   Outputs :                                                               |
; 1405 :  |                                                                           |
; 1406 :  |    none                                                                   |
; 1407 :  |                                                                           |
; 1408 :  |   Return Value :                                                          |
; 1409 :  |                                                                           |
; 1410 :  |    L_var_out                                                              |
; 1411 :  |             32 bit long signed integer (Word32) whose value falls in the  |
; 1412 :  |             range : 0x8000 0000 <= L_var_out <= 0x7fff ffff.              |
; 1413 :  |___________________________________________________________________________|
; 1414 : */
; 1415 : 
; 1416 : Word32 L_shr (Word32 L_var1, Word16 var2)
; 1417 : {
; 1418 :     Word32 L_var_out;
; 1419 : 
; 1420 :     if (var2 < 0)
; 1421 :     {
; 1422 :         if (var2 < -32)
; 1423 :             var2 = -32;
; 1424 :         L_var_out = L_shl (L_var1, -var2);
; 1425 : #if (WMOPS)
; 1426 :         multiCounter[currCounter].L_shl--;
; 1427 : #endif
; 1428 :     }
; 1429 :     else
; 1430 :     {
; 1431 :         if (var2 >= 31)
; 1432 :         {
; 1433 :             L_var_out = (L_var1 < 0L) ? -1 : 0;
; 1434 :         }
; 1435 :         else
; 1436 :         {
; 1437 :             if (L_var1 < 0)

  000a3	79 17		 jns	 SHORT $LN34@decompress

; 1438 :             {
; 1439 :                 L_var_out = ~((~L_var1) >> var2);

  000a5	f7 d0		 not	 eax
  000a7	d1 f8		 sar	 eax, 1
  000a9	f7 d0		 not	 eax

; 1440 :             }
; 1441 :             else

  000ab	eb 11		 jmp	 SHORT $LN33@decompress
$LN30@decompress:

; 490  :     }
; 491  :     else
; 492  :     {
; 493  :         Overflow = 1;

  000ad	c7 05 00 00 00
	00 01 00 00 00	 mov	 DWORD PTR _Overflow, 1

; 494  :         L_var_out = MAX_32;

  000b7	b8 ff ff ff 7f	 mov	 eax, 2147483647		; 7fffffffH
$LN34@decompress:

; 1442 :             {
; 1443 :                 L_var_out = L_var1 >> var2;

  000bc	d1 f8		 sar	 eax, 1
$LN33@decompress:

; 186  :     L_diff = (Word32) var1 - var2;

  000be	98		 cwde
  000bf	2b c8		 sub	 ecx, eax

; 79   :     if (L_var1 > 0X00007fffL)

  000c1	81 f9 ff 7f 00
	00		 cmp	 ecx, 32767		; 00007fffH
  000c7	7e 11		 jle	 SHORT $LN49@decompress

; 81   :         Overflow = 1;

  000c9	c7 05 00 00 00
	00 01 00 00 00	 mov	 DWORD PTR _Overflow, 1

; 82   :         var_out = MAX_16;

  000d3	b8 ff 7f 00 00	 mov	 eax, 32767		; 00007fffH
  000d8	eb 1c		 jmp	 SHORT $LN46@decompress
$LN49@decompress:

; 84   :     else if (L_var1 < (Word32) 0xffff8000L)

  000da	81 f9 00 80 ff
	ff		 cmp	 ecx, -32768		; ffff8000H
  000e0	7d 11		 jge	 SHORT $LN47@decompress

; 86   :         Overflow = 1;

  000e2	c7 05 00 00 00
	00 01 00 00 00	 mov	 DWORD PTR _Overflow, 1

; 87   :         var_out = MIN_16;

  000ec	b8 00 80 ff ff	 mov	 eax, -32768		; ffff8000H

; 88   :     }
; 89   :     else

  000f1	eb 03		 jmp	 SHORT $LN46@decompress
$LN47@decompress:

; 91   :         var_out = extract_l (L_var1);

  000f3	0f b7 c1	 movzx	 eax, cx
$LN46@decompress:

; 432  :     L_product = (Word32) var1 *(Word32) var2;

  000f6	0f bf c8	 movsx	 ecx, ax
  000f9	69 d1 9a 19 00
	00		 imul	 edx, ecx, 6554

; 433  : 
; 434  :     L_product = (L_product & (Word32) 0xffff8000L) >> 15;

  000ff	c1 fa 0f	 sar	 edx, 15			; 0000000fH
  00102	8b c2		 mov	 eax, edx

; 436  :     if (L_product & (Word32) 0x00010000L)

  00104	a9 00 00 01 00	 test	 eax, 65536		; 00010000H
  00109	74 05		 je	 SHORT $LN54@decompress

; 437  :         L_product = L_product | (Word32) 0xffff0000L;

  0010b	0d 00 00 ff ff	 or	 eax, -65536		; ffff0000H
$LN54@decompress:

; 79   :     if (L_var1 > 0X00007fffL)

  00110	3d ff 7f 00 00	 cmp	 eax, 32767		; 00007fffH
  00115	7e 11		 jle	 SHORT $LN60@decompress

; 81   :         Overflow = 1;

  00117	c7 05 00 00 00
	00 01 00 00 00	 mov	 DWORD PTR _Overflow, 1

; 82   :         var_out = MAX_16;

  00121	b8 ff 7f 00 00	 mov	 eax, 32767		; 00007fffH
  00126	eb 1b		 jmp	 SHORT $LN57@decompress
$LN60@decompress:

; 84   :     else if (L_var1 < (Word32) 0xffff8000L)

  00128	3d 00 80 ff ff	 cmp	 eax, -32768		; ffff8000H
  0012d	7d 11		 jge	 SHORT $LN58@decompress

; 86   :         Overflow = 1;

  0012f	c7 05 00 00 00
	00 01 00 00 00	 mov	 DWORD PTR _Overflow, 1

; 87   :         var_out = MIN_16;

  00139	b8 00 80 ff ff	 mov	 eax, -32768		; ffff8000H

; 88   :     }
; 89   :     else

  0013e	eb 03		 jmp	 SHORT $LN57@decompress
$LN58@decompress:

; 91   :         var_out = extract_l (L_var1);

  00140	0f b7 c0	 movzx	 eax, ax
$LN57@decompress:

; 438  : 
; 439  :     var_out = saturate (L_product);
; 440  : #if (WMOPS)
; 441  :     multiCounter[currCounter].mult++;
; 442  : #endif
; 443  :     return (var_out);
; 444  : }
; 445  : 
; 446  : /*___________________________________________________________________________
; 447  :  |                                                                           |
; 448  :  |   Function Name : L_mult                                                  |
; 449  :  |                                                                           |
; 450  :  |   Purpose :                                                               |
; 451  :  |                                                                           |
; 452  :  |   L_mult is the 32 bit result of the multiplication of var1 times var2    |
; 453  :  |   with one shift left i.e.:                                               |
; 454  :  |        L_mult(var1,var2) = L_shl((var1 times var2),1) and                   |
; 455  :  |        L_mult(-32768,-32768) = 2147483647.                                |
; 456  :  |                                                                           |
; 457  :  |   Complexity weight : 1                                                   |
; 458  :  |                                                                           |
; 459  :  |   Inputs :                                                                |
; 460  :  |                                                                           |
; 461  :  |    var1                                                                   |
; 462  :  |             16 bit short signed integer (Word16) whose value falls in the |
; 463  :  |             range : 0xffff 8000 <= var1 <= 0x0000 7fff.                   |
; 464  :  |                                                                           |
; 465  :  |    var2                                                                   |
; 466  :  |             16 bit short signed integer (Word16) whose value falls in the |
; 467  :  |             range : 0xffff 8000 <= var1 <= 0x0000 7fff.                   |
; 468  :  |                                                                           |
; 469  :  |   Outputs :                                                               |
; 470  :  |                                                                           |
; 471  :  |    none                                                                   |
; 472  :  |                                                                           |
; 473  :  |   Return Value :                                                          |
; 474  :  |                                                                           |
; 475  :  |    L_var_out                                                              |
; 476  :  |             32 bit long signed integer (Word32) whose value falls in the  |
; 477  :  |             range : 0x8000 0000 <= L_var_out <= 0x7fff ffff.              |
; 478  :  |___________________________________________________________________________|
; 479  : */
; 480  : 
; 481  : Word32 L_mult (Word16 var1, Word16 var2)
; 482  : {
; 483  :     Word32 L_var_out;
; 484  : 
; 485  :     L_var_out = (Word32) var1 *(Word32) var2;

  00143	98		 cwde
  00144	8d 04 80	 lea	 eax, DWORD PTR [eax+eax*4]

; 486  : 
; 487  :     if (L_var_out != (Word32) 0x40000000L)

  00147	3d 00 00 00 40	 cmp	 eax, 1073741824		; 40000000H
  0014c	74 0c		 je	 SHORT $LN66@decompress

; 488  :     {
; 489  :         L_var_out *= 2;

  0014e	03 c0		 add	 eax, eax

; 495  :     }
; 496  : 
; 497  : #if (WMOPS)
; 498  :     multiCounter[currCounter].L_mult++;
; 499  : #endif
; 500  :     return (L_var_out);
; 501  : }
; 502  : 
; 503  : /*___________________________________________________________________________
; 504  :  |                                                                           |
; 505  :  |   Function Name : negate                                                  |
; 506  :  |                                                                           |
; 507  :  |   Purpose :                                                               |
; 508  :  |                                                                           |
; 509  :  |   Negate var1 with saturation, saturate in the case where input is -32768:|
; 510  :  |                negate(var1) = sub(0,var1).                                |
; 511  :  |                                                                           |
; 512  :  |   Complexity weight : 1                                                   |
; 513  :  |                                                                           |
; 514  :  |   Inputs :                                                                |
; 515  :  |                                                                           |
; 516  :  |    var1                                                                   |
; 517  :  |             16 bit short signed integer (Word16) whose value falls in the |
; 518  :  |             range : 0xffff 8000 <= var1 <= 0x0000 7fff.                   |
; 519  :  |                                                                           |
; 520  :  |   Outputs :                                                               |
; 521  :  |                                                                           |
; 522  :  |    none                                                                   |
; 523  :  |                                                                           |
; 524  :  |   Return Value :                                                          |
; 525  :  |                                                                           |
; 526  :  |    var_out                                                                |
; 527  :  |             16 bit short signed integer (Word16) whose value falls in the |
; 528  :  |             range : 0xffff 8000 <= var_out <= 0x0000 7fff.                |
; 529  :  |___________________________________________________________________________|
; 530  : */
; 531  : 
; 532  : Word16 negate (Word16 var1)
; 533  : {
; 534  :     Word16 var_out;
; 535  : 
; 536  :     var_out = (var1 == MIN_16) ? MAX_16 : -var1;
; 537  : #if (WMOPS)
; 538  :     multiCounter[currCounter].negate++;
; 539  : #endif
; 540  :     return (var_out);
; 541  : }
; 542  : 
; 543  : /*___________________________________________________________________________
; 544  :  |                                                                           |
; 545  :  |   Function Name : extract_h                                               |
; 546  :  |                                                                           |
; 547  :  |   Purpose :                                                               |
; 548  :  |                                                                           |
; 549  :  |   Return the 16 MSB of L_var1.                                            |
; 550  :  |                                                                           |
; 551  :  |   Complexity weight : 1                                                   |
; 552  :  |                                                                           |
; 553  :  |   Inputs :                                                                |
; 554  :  |                                                                           |
; 555  :  |    L_var1                                                                 |
; 556  :  |             32 bit long signed integer (Word32 ) whose value falls in the |
; 557  :  |             range : 0x8000 0000 <= L_var1 <= 0x7fff ffff.                 |
; 558  :  |                                                                           |
; 559  :  |   Outputs :                                                               |
; 560  :  |                                                                           |
; 561  :  |    none                                                                   |
; 562  :  |                                                                           |
; 563  :  |   Return Value :                                                          |
; 564  :  |                                                                           |
; 565  :  |    var_out                                                                |
; 566  :  |             16 bit short signed integer (Word16) whose value falls in the |
; 567  :  |             range : 0xffff 8000 <= var_out <= 0x0000 7fff.                |
; 568  :  |___________________________________________________________________________|
; 569  : */
; 570  : 
; 571  : Word16 extract_h (Word32 L_var1)
; 572  : {
; 573  :     Word16 var_out;
; 574  : 
; 575  :     var_out = (Word16) (L_var1 >> 16);
; 576  : #if (WMOPS)
; 577  :     multiCounter[currCounter].extract_h++;
; 578  : #endif
; 579  :     return (var_out);
; 580  : }
; 581  : 
; 582  : /*___________________________________________________________________________
; 583  :  |                                                                           |
; 584  :  |   Function Name : extract_l                                               |
; 585  :  |                                                                           |
; 586  :  |   Purpose :                                                               |
; 587  :  |                                                                           |
; 588  :  |   Return the 16 LSB of L_var1.                                            |
; 589  :  |                                                                           |
; 590  :  |   Complexity weight : 1                                                   |
; 591  :  |                                                                           |
; 592  :  |   Inputs :                                                                |
; 593  :  |                                                                           |
; 594  :  |    L_var1                                                                 |
; 595  :  |             32 bit long signed integer (Word32 ) whose value falls in the |
; 596  :  |             range : 0x8000 0000 <= L_var1 <= 0x7fff ffff.                 |
; 597  :  |                                                                           |
; 598  :  |   Outputs :                                                               |
; 599  :  |                                                                           |
; 600  :  |    none                                                                   |
; 601  :  |                                                                           |
; 602  :  |   Return Value :                                                          |
; 603  :  |                                                                           |
; 604  :  |    var_out                                                                |
; 605  :  |             16 bit short signed integer (Word16) whose value falls in the |
; 606  :  |             range : 0xffff 8000 <= var_out <= 0x0000 7fff.                |
; 607  :  |___________________________________________________________________________|
; 608  : */
; 609  : 
; 610  : Word16 extract_l (Word32 L_var1)
; 611  : {
; 612  :     Word16 var_out;
; 613  : 
; 614  :     var_out = (Word16) L_var1;
; 615  : #if (WMOPS)
; 616  :     multiCounter[currCounter].extract_l++;
; 617  : #endif
; 618  :     return (var_out);
; 619  : }
; 620  : 
; 621  : /*___________________________________________________________________________
; 622  :  |                                                                           |
; 623  :  |   Function Name : round                                                   |
; 624  :  |                                                                           |
; 625  :  |   Purpose :                                                               |
; 626  :  |                                                                           |
; 627  :  |   Round the lower 16 bits of the 32 bit input number into the MS 16 bits  |
; 628  :  |   with saturation. Shift the resulting bits right by 16 and return the 16 |
; 629  :  |   bit number:                                                             |
; 630  :  |               round(L_var1) = extract_h(L_add(L_var1,32768))              |
; 631  :  |                                                                           |
; 632  :  |   Complexity weight : 1                                                   |
; 633  :  |                                                                           |
; 634  :  |   Inputs :                                                                |
; 635  :  |                                                                           |
; 636  :  |    L_var1                                                                 |
; 637  :  |             32 bit long signed integer (Word32 ) whose value falls in the |
; 638  :  |             range : 0x8000 0000 <= L_var1 <= 0x7fff ffff.                 |
; 639  :  |                                                                           |
; 640  :  |   Outputs :                                                               |
; 641  :  |                                                                           |
; 642  :  |    none                                                                   |
; 643  :  |                                                                           |
; 644  :  |   Return Value :                                                          |
; 645  :  |                                                                           |
; 646  :  |    var_out                                                                |
; 647  :  |             16 bit short signed integer (Word16) whose value falls in the |
; 648  :  |             range : 0xffff 8000 <= var_out <= 0x0000 7fff.                |
; 649  :  |___________________________________________________________________________|
; 650  : */
; 651  : 
; 652  : Word16 round (Word32 L_var1)
; 653  : {
; 654  :     Word16 var_out;
; 655  :     Word32 L_rounded;
; 656  : 
; 657  :     L_rounded = L_add (L_var1, (Word32) 0x00008000L);
; 658  : #if (WMOPS)
; 659  :     multiCounter[currCounter].L_add--;
; 660  : #endif
; 661  :     var_out = extract_h (L_rounded);
; 662  : #if (WMOPS)
; 663  :     multiCounter[currCounter].extract_h--;
; 664  :     multiCounter[currCounter].round++;
; 665  : #endif
; 666  :     return (var_out);
; 667  : }
; 668  : 
; 669  : /*___________________________________________________________________________
; 670  :  |                                                                           |
; 671  :  |   Function Name : L_mac                                                   |
; 672  :  |                                                                           |
; 673  :  |   Purpose :                                                               |
; 674  :  |                                                                           |
; 675  :  |   Multiply var1 by var2 and shift the result left by 1. Add the 32 bit    |
; 676  :  |   result to L_var3 with saturation, return a 32 bit result:               |
; 677  :  |        L_mac(L_var3,var1,var2) = L_add(L_var3,L_mult(var1,var2)).         |
; 678  :  |                                                                           |
; 679  :  |   Complexity weight : 1                                                   |
; 680  :  |                                                                           |
; 681  :  |   Inputs :                                                                |
; 682  :  |                                                                           |
; 683  :  |    L_var3   32 bit long signed integer (Word32) whose value falls in the  |
; 684  :  |             range : 0x8000 0000 <= L_var3 <= 0x7fff ffff.                 |
; 685  :  |                                                                           |
; 686  :  |    var1                                                                   |
; 687  :  |             16 bit short signed integer (Word16) whose value falls in the |
; 688  :  |             range : 0xffff 8000 <= var1 <= 0x0000 7fff.                   |
; 689  :  |                                                                           |
; 690  :  |    var2                                                                   |
; 691  :  |             16 bit short signed integer (Word16) whose value falls in the |
; 692  :  |             range : 0xffff 8000 <= var1 <= 0x0000 7fff.                   |
; 693  :  |                                                                           |
; 694  :  |   Outputs :                                                               |
; 695  :  |                                                                           |
; 696  :  |    none                                                                   |
; 697  :  |                                                                           |
; 698  :  |   Return Value :                                                          |
; 699  :  |                                                                           |
; 700  :  |    L_var_out                                                              |
; 701  :  |             32 bit long signed integer (Word32) whose value falls in the  |
; 702  :  |             range : 0x8000 0000 <= L_var_out <= 0x7fff ffff.              |
; 703  :  |___________________________________________________________________________|
; 704  : */
; 705  : 
; 706  : Word32 L_mac (Word32 L_var3, Word16 var1, Word16 var2)
; 707  : {
; 708  :     Word32 L_var_out;
; 709  :     Word32 L_product;
; 710  : 
; 711  :     L_product = L_mult (var1, var2);
; 712  : #if (WMOPS)
; 713  :     multiCounter[currCounter].L_mult--;
; 714  : #endif
; 715  :     L_var_out = L_add (L_var3, L_product);
; 716  : #if (WMOPS)
; 717  :     multiCounter[currCounter].L_add--;
; 718  :     multiCounter[currCounter].L_mac++;
; 719  : #endif
; 720  :     return (L_var_out);
; 721  : }
; 722  : 
; 723  : /*___________________________________________________________________________
; 724  :  |                                                                           |
; 725  :  |   Function Name : L_msu                                                   |
; 726  :  |                                                                           |
; 727  :  |   Purpose :                                                               |
; 728  :  |                                                                           |
; 729  :  |   Multiply var1 by var2 and shift the result left by 1. Subtract the 32   |
; 730  :  |   bit result to L_var3 with saturation, return a 32 bit result:           |
; 731  :  |        L_msu(L_var3,var1,var2) = L_sub(L_var3,L_mult(var1,var2)).         |
; 732  :  |                                                                           |
; 733  :  |   Complexity weight : 1                                                   |
; 734  :  |                                                                           |
; 735  :  |   Inputs :                                                                |
; 736  :  |                                                                           |
; 737  :  |    L_var3   32 bit long signed integer (Word32) whose value falls in the  |
; 738  :  |             range : 0x8000 0000 <= L_var3 <= 0x7fff ffff.                 |
; 739  :  |                                                                           |
; 740  :  |    var1                                                                   |
; 741  :  |             16 bit short signed integer (Word16) whose value falls in the |
; 742  :  |             range : 0xffff 8000 <= var1 <= 0x0000 7fff.                   |
; 743  :  |                                                                           |
; 744  :  |    var2                                                                   |
; 745  :  |             16 bit short signed integer (Word16) whose value falls in the |
; 746  :  |             range : 0xffff 8000 <= var1 <= 0x0000 7fff.                   |
; 747  :  |                                                                           |
; 748  :  |   Outputs :                                                               |
; 749  :  |                                                                           |
; 750  :  |    none                                                                   |
; 751  :  |                                                                           |
; 752  :  |   Return Value :                                                          |
; 753  :  |                                                                           |
; 754  :  |    L_var_out                                                              |
; 755  :  |             32 bit long signed integer (Word32) whose value falls in the  |
; 756  :  |             range : 0x8000 0000 <= L_var_out <= 0x7fff ffff.              |
; 757  :  |___________________________________________________________________________|
; 758  : */
; 759  : 
; 760  : Word32 L_msu (Word32 L_var3, Word16 var1, Word16 var2)
; 761  : {
; 762  :     Word32 L_var_out;
; 763  :     Word32 L_product;
; 764  : 
; 765  :     L_product = L_mult (var1, var2);
; 766  : #if (WMOPS)
; 767  :     multiCounter[currCounter].L_mult--;
; 768  : #endif
; 769  :     L_var_out = L_sub (L_var3, L_product);
; 770  : #if (WMOPS)
; 771  :     multiCounter[currCounter].L_sub--;
; 772  :     multiCounter[currCounter].L_msu++;
; 773  : #endif
; 774  :     return (L_var_out);
; 775  : }
; 776  : 
; 777  : /*___________________________________________________________________________
; 778  :  |                                                                           |
; 779  :  |   Function Name : L_macNs                                                 |
; 780  :  |                                                                           |
; 781  :  |   Purpose :                                                               |
; 782  :  |                                                                           |
; 783  :  |   Multiply var1 by var2 and shift the result left by 1. Add the 32 bit    |
; 784  :  |   result to L_var3 without saturation, return a 32 bit result. Generate   |
; 785  :  |   carry and overflow values :                                             |
; 786  :  |        L_macNs(L_var3,var1,var2) = L_add_c(L_var3,L_mult(var1,var2)).     |
; 787  :  |                                                                           |
; 788  :  |   Complexity weight : 1                                                   |
; 789  :  |                                                                           |
; 790  :  |   Inputs :                                                                |
; 791  :  |                                                                           |
; 792  :  |    L_var3   32 bit long signed integer (Word32) whose value falls in the  |
; 793  :  |             range : 0x8000 0000 <= L_var3 <= 0x7fff ffff.                 |
; 794  :  |                                                                           |
; 795  :  |    var1                                                                   |
; 796  :  |             16 bit short signed integer (Word16) whose value falls in the |
; 797  :  |             range : 0xffff 8000 <= var1 <= 0x0000 7fff.                   |
; 798  :  |                                                                           |
; 799  :  |    var2                                                                   |
; 800  :  |             16 bit short signed integer (Word16) whose value falls in the |
; 801  :  |             range : 0xffff 8000 <= var1 <= 0x0000 7fff.                   |
; 802  :  |                                                                           |
; 803  :  |   Outputs :                                                               |
; 804  :  |                                                                           |
; 805  :  |    none                                                                   |
; 806  :  |                                                                           |
; 807  :  |   Return Value :                                                          |
; 808  :  |                                                                           |
; 809  :  |    L_var_out                                                              |
; 810  :  |             32 bit long signed integer (Word32) whose value falls in the  |
; 811  :  |             range : 0x8000 0000 <= L_var_out <= 0x7fff ffff.              |
; 812  :  |                                                                           |
; 813  :  |   Caution :                                                               |
; 814  :  |                                                                           |
; 815  :  |    In some cases the Carry flag has to be cleared or set before using     |
; 816  :  |    operators which take into account its value.                           |
; 817  :  |___________________________________________________________________________|
; 818  : */
; 819  : 
; 820  : Word32 L_macNs (Word32 L_var3, Word16 var1, Word16 var2)
; 821  : {
; 822  :     Word32 L_var_out;
; 823  : 
; 824  :     L_var_out = L_mult (var1, var2);
; 825  : #if (WMOPS)
; 826  :     multiCounter[currCounter].L_mult--;
; 827  : #endif
; 828  :     L_var_out = L_add_c (L_var3, L_var_out);
; 829  : #if (WMOPS)
; 830  :     multiCounter[currCounter].L_add_c--;
; 831  :     multiCounter[currCounter].L_macNs++;
; 832  : #endif
; 833  :     return (L_var_out);
; 834  : }
; 835  : 
; 836  : /*___________________________________________________________________________
; 837  :  |                                                                           |
; 838  :  |   Function Name : L_msuNs                                                 |
; 839  :  |                                                                           |
; 840  :  |   Purpose :                                                               |
; 841  :  |                                                                           |
; 842  :  |   Multiply var1 by var2 and shift the result left by 1. Subtract the 32   |
; 843  :  |   bit result from L_var3 without saturation, return a 32 bit result. Ge-  |
; 844  :  |   nerate carry and overflow values :                                      |
; 845  :  |        L_msuNs(L_var3,var1,var2) = L_sub_c(L_var3,L_mult(var1,var2)).     |
; 846  :  |                                                                           |
; 847  :  |   Complexity weight : 1                                                   |
; 848  :  |                                                                           |
; 849  :  |   Inputs :                                                                |
; 850  :  |                                                                           |
; 851  :  |    L_var3   32 bit long signed integer (Word32) whose value falls in the  |
; 852  :  |             range : 0x8000 0000 <= L_var3 <= 0x7fff ffff.                 |
; 853  :  |                                                                           |
; 854  :  |    var1                                                                   |
; 855  :  |             16 bit short signed integer (Word16) whose value falls in the |
; 856  :  |             range : 0xffff 8000 <= var1 <= 0x0000 7fff.                   |
; 857  :  |                                                                           |
; 858  :  |    var2                                                                   |
; 859  :  |             16 bit short signed integer (Word16) whose value falls in the |
; 860  :  |             range : 0xffff 8000 <= var1 <= 0x0000 7fff.                   |
; 861  :  |                                                                           |
; 862  :  |   Outputs :                                                               |
; 863  :  |                                                                           |
; 864  :  |    none                                                                   |
; 865  :  |                                                                           |
; 866  :  |   Return Value :                                                          |
; 867  :  |                                                                           |
; 868  :  |    L_var_out                                                              |
; 869  :  |             32 bit long signed integer (Word32) whose value falls in the  |
; 870  :  |             range : 0x8000 0000 <= L_var_out <= 0x7fff ffff.              |
; 871  :  |                                                                           |
; 872  :  |   Caution :                                                               |
; 873  :  |                                                                           |
; 874  :  |    In some cases the Carry flag has to be cleared or set before using     |
; 875  :  |    operators which take into account its value.                           |
; 876  :  |___________________________________________________________________________|
; 877  : */
; 878  : 
; 879  : Word32 L_msuNs (Word32 L_var3, Word16 var1, Word16 var2)
; 880  : {
; 881  :     Word32 L_var_out;
; 882  : 
; 883  :     L_var_out = L_mult (var1, var2);
; 884  : #if (WMOPS)
; 885  :     multiCounter[currCounter].L_mult--;
; 886  : #endif
; 887  :     L_var_out = L_sub_c (L_var3, L_var_out);
; 888  : #if (WMOPS)
; 889  :     multiCounter[currCounter].L_sub_c--;
; 890  :     multiCounter[currCounter].L_msuNs++;
; 891  : #endif
; 892  :     return (L_var_out);
; 893  : }
; 894  : 
; 895  : /*___________________________________________________________________________
; 896  :  |                                                                           |
; 897  :  |   Function Name : L_add                                                   |
; 898  :  |                                                                           |
; 899  :  |   Purpose :                                                               |
; 900  :  |                                                                           |
; 901  :  |   32 bits addition of the two 32 bits variables (L_var1+L_var2) with      |
; 902  :  |   overflow control and saturation; the result is set at +2147483647 when  |
; 903  :  |   overflow occurs or at -2147483648 when underflow occurs.                |
; 904  :  |                                                                           |
; 905  :  |   Complexity weight : 2                                                   |
; 906  :  |                                                                           |
; 907  :  |   Inputs :                                                                |
; 908  :  |                                                                           |
; 909  :  |    L_var1   32 bit long signed integer (Word32) whose value falls in the  |
; 910  :  |             range : 0x8000 0000 <= L_var3 <= 0x7fff ffff.                 |
; 911  :  |                                                                           |
; 912  :  |    L_var2   32 bit long signed integer (Word32) whose value falls in the  |
; 913  :  |             range : 0x8000 0000 <= L_var3 <= 0x7fff ffff.                 |
; 914  :  |                                                                           |
; 915  :  |   Outputs :                                                               |
; 916  :  |                                                                           |
; 917  :  |    none                                                                   |
; 918  :  |                                                                           |
; 919  :  |   Return Value :                                                          |
; 920  :  |                                                                           |
; 921  :  |    L_var_out                                                              |
; 922  :  |             32 bit long signed integer (Word32) whose value falls in the  |
; 923  :  |             range : 0x8000 0000 <= L_var_out <= 0x7fff ffff.              |
; 924  :  |___________________________________________________________________________|
; 925  : */
; 926  : 
; 927  : Word32 L_add (Word32 L_var1, Word32 L_var2)
; 928  : {
; 929  :     Word32 L_var_out;
; 930  : 
; 931  :     L_var_out = L_var1 + L_var2;
; 932  : 
; 933  :     if (((L_var1 ^ L_var2) & MIN_32) == 0)
; 934  :     {
; 935  :         if ((L_var_out ^ L_var1) & MIN_32)
; 936  :         {
; 937  :             L_var_out = (L_var1 < 0) ? MIN_32 : MAX_32;
; 938  :             Overflow = 1;
; 939  :         }
; 940  :     }
; 941  : #if (WMOPS)
; 942  :     multiCounter[currCounter].L_add++;
; 943  : #endif
; 944  :     return (L_var_out);
; 945  : }
; 946  : 
; 947  : /*___________________________________________________________________________
; 948  :  |                                                                           |
; 949  :  |   Function Name : L_sub                                                   |
; 950  :  |                                                                           |
; 951  :  |   Purpose :                                                               |
; 952  :  |                                                                           |
; 953  :  |   32 bits subtraction of the two 32 bits variables (L_var1-L_var2) with   |
; 954  :  |   overflow control and saturation; the result is set at +2147483647 when  |
; 955  :  |   overflow occurs or at -2147483648 when underflow occurs.                |
; 956  :  |                                                                           |
; 957  :  |   Complexity weight : 2                                                   |
; 958  :  |                                                                           |
; 959  :  |   Inputs :                                                                |
; 960  :  |                                                                           |
; 961  :  |    L_var1   32 bit long signed integer (Word32) whose value falls in the  |
; 962  :  |             range : 0x8000 0000 <= L_var3 <= 0x7fff ffff.                 |
; 963  :  |                                                                           |
; 964  :  |    L_var2   32 bit long signed integer (Word32) whose value falls in the  |
; 965  :  |             range : 0x8000 0000 <= L_var3 <= 0x7fff ffff.                 |
; 966  :  |                                                                           |
; 967  :  |   Outputs :                                                               |
; 968  :  |                                                                           |
; 969  :  |    none                                                                   |
; 970  :  |                                                                           |
; 971  :  |   Return Value :                                                          |
; 972  :  |                                                                           |
; 973  :  |    L_var_out                                                              |
; 974  :  |             32 bit long signed integer (Word32) whose value falls in the  |
; 975  :  |             range : 0x8000 0000 <= L_var_out <= 0x7fff ffff.              |
; 976  :  |___________________________________________________________________________|
; 977  : */
; 978  : 
; 979  : Word32 L_sub (Word32 L_var1, Word32 L_var2)
; 980  : {
; 981  :     Word32 L_var_out;
; 982  : 
; 983  :     L_var_out = L_var1 - L_var2;
; 984  : 
; 985  :     if (((L_var1 ^ L_var2) & MIN_32) != 0)
; 986  :     {
; 987  :         if ((L_var_out ^ L_var1) & MIN_32)
; 988  :         {
; 989  :             L_var_out = (L_var1 < 0L) ? MIN_32 : MAX_32;
; 990  :             Overflow = 1;
; 991  :         }
; 992  :     }
; 993  : #if (WMOPS)
; 994  :     multiCounter[currCounter].L_sub++;
; 995  : #endif
; 996  :     return (L_var_out);
; 997  : }
; 998  : 
; 999  : /*___________________________________________________________________________
; 1000 :  |                                                                           |
; 1001 :  |   Function Name : L_add_c                                                 |
; 1002 :  |                                                                           |
; 1003 :  |   Purpose :                                                               |
; 1004 :  |                                                                           |
; 1005 :  |   Performs 32 bits addition of the two 32 bits variables (L_var1+L_var2+C)|
; 1006 :  |   with carry. No saturation. Generate carry and Overflow values. The car- |
; 1007 :  |   ry and overflow values are binary variables which can be tested and as- |
; 1008 :  |   signed values.                                                          |
; 1009 :  |                                                                           |
; 1010 :  |   Complexity weight : 2                                                   |
; 1011 :  |                                                                           |
; 1012 :  |   Inputs :                                                                |
; 1013 :  |                                                                           |
; 1014 :  |    L_var1   32 bit long signed integer (Word32) whose value falls in the  |
; 1015 :  |             range : 0x8000 0000 <= L_var3 <= 0x7fff ffff.                 |
; 1016 :  |                                                                           |
; 1017 :  |    L_var2   32 bit long signed integer (Word32) whose value falls in the  |
; 1018 :  |             range : 0x8000 0000 <= L_var3 <= 0x7fff ffff.                 |
; 1019 :  |                                                                           |
; 1020 :  |   Outputs :                                                               |
; 1021 :  |                                                                           |
; 1022 :  |    none                                                                   |
; 1023 :  |                                                                           |
; 1024 :  |   Return Value :                                                          |
; 1025 :  |                                                                           |
; 1026 :  |    L_var_out                                                              |
; 1027 :  |             32 bit long signed integer (Word32) whose value falls in the  |
; 1028 :  |             range : 0x8000 0000 <= L_var_out <= 0x7fff ffff.              |
; 1029 :  |                                                                           |
; 1030 :  |   Caution :                                                               |
; 1031 :  |                                                                           |
; 1032 :  |    In some cases the Carry flag has to be cleared or set before using     |
; 1033 :  |    operators which take into account its value.                           |
; 1034 :  |___________________________________________________________________________|
; 1035 : */
; 1036 : Word32 L_add_c (Word32 L_var1, Word32 L_var2)
; 1037 : {
; 1038 :     Word32 L_var_out;
; 1039 :     Word32 L_test;
; 1040 :     Flag carry_int = 0;
; 1041 : 
; 1042 :     L_var_out = L_var1 + L_var2 + Carry;
; 1043 : 
; 1044 :     L_test = L_var1 + L_var2;
; 1045 : 
; 1046 :     if ((L_var1 > 0) && (L_var2 > 0) && (L_test < 0))
; 1047 :     {
; 1048 :         Overflow = 1;
; 1049 :         carry_int = 0;
; 1050 :     }
; 1051 :     else
; 1052 :     {
; 1053 :         if ((L_var1 < 0) && (L_var2 < 0))
; 1054 :         {
; 1055 :             if (L_test >= 0)
; 1056 : 	    {
; 1057 :                 Overflow = 1;
; 1058 :                 carry_int = 1;
; 1059 : 	    }
; 1060 :             else
; 1061 : 	    {
; 1062 :                 Overflow = 0;
; 1063 :                 carry_int = 1;
; 1064 : 	    }
; 1065 :         }
; 1066 :         else
; 1067 :         {
; 1068 :             if (((L_var1 ^ L_var2) < 0) && (L_test >= 0))
; 1069 :             {
; 1070 :                 Overflow = 0;
; 1071 :                 carry_int = 1;
; 1072 :             }
; 1073 :             else
; 1074 :             {
; 1075 :                 Overflow = 0;
; 1076 :                 carry_int = 0;
; 1077 :             }
; 1078 :         }
; 1079 :     }
; 1080 : 
; 1081 :     if (Carry)
; 1082 :     {
; 1083 :         if (L_test == MAX_32)
; 1084 :         {
; 1085 :             Overflow = 1;
; 1086 :             Carry = carry_int;
; 1087 :         }
; 1088 :         else
; 1089 :         {
; 1090 :             if (L_test == (Word32) 0xFFFFFFFFL)
; 1091 :             {
; 1092 :                 Carry = 1;
; 1093 :             }
; 1094 :             else
; 1095 :             {
; 1096 :                 Carry = carry_int;
; 1097 :             }
; 1098 :         }
; 1099 :     }
; 1100 :     else
; 1101 :     {
; 1102 :         Carry = carry_int;
; 1103 :     }
; 1104 : 
; 1105 : #if (WMOPS)
; 1106 :     multiCounter[currCounter].L_add_c++;
; 1107 : #endif
; 1108 :     return (L_var_out);
; 1109 : }
; 1110 : 
; 1111 : /*___________________________________________________________________________
; 1112 :  |                                                                           |
; 1113 :  |   Function Name : L_sub_c                                                 |
; 1114 :  |                                                                           |
; 1115 :  |   Purpose :                                                               |
; 1116 :  |                                                                           |
; 1117 :  |   Performs 32 bits subtraction of the two 32 bits variables with carry    |
; 1118 :  |   (borrow) : L_var1-L_var2-C. No saturation. Generate carry and Overflow  |
; 1119 :  |   values. The carry and overflow values are binary variables which can    |
; 1120 :  |   be tested and assigned values.                                          |
; 1121 :  |                                                                           |
; 1122 :  |   Complexity weight : 2                                                   |
; 1123 :  |                                                                           |
; 1124 :  |   Inputs :                                                                |
; 1125 :  |                                                                           |
; 1126 :  |    L_var1   32 bit long signed integer (Word32) whose value falls in the  |
; 1127 :  |             range : 0x8000 0000 <= L_var3 <= 0x7fff ffff.                 |
; 1128 :  |                                                                           |
; 1129 :  |    L_var2   32 bit long signed integer (Word32) whose value falls in the  |
; 1130 :  |             range : 0x8000 0000 <= L_var3 <= 0x7fff ffff.                 |
; 1131 :  |                                                                           |
; 1132 :  |   Outputs :                                                               |
; 1133 :  |                                                                           |
; 1134 :  |    none                                                                   |
; 1135 :  |                                                                           |
; 1136 :  |   Return Value :                                                          |
; 1137 :  |                                                                           |
; 1138 :  |    L_var_out                                                              |
; 1139 :  |             32 bit long signed integer (Word32) whose value falls in the  |
; 1140 :  |             range : 0x8000 0000 <= L_var_out <= 0x7fff ffff.              |
; 1141 :  |                                                                           |
; 1142 :  |   Caution :                                                               |
; 1143 :  |                                                                           |
; 1144 :  |    In some cases the Carry flag has to be cleared or set before using     |
; 1145 :  |    operators which take into account its value.                           |
; 1146 :  |___________________________________________________________________________|
; 1147 : */
; 1148 : 
; 1149 : Word32 L_sub_c (Word32 L_var1, Word32 L_var2)
; 1150 : {
; 1151 :     Word32 L_var_out;
; 1152 :     Word32 L_test;
; 1153 :     Flag carry_int = 0;
; 1154 : 
; 1155 :     if (Carry)
; 1156 :     {
; 1157 :         Carry = 0;
; 1158 :         if (L_var2 != MIN_32)
; 1159 :         {
; 1160 :             L_var_out = L_add_c (L_var1, -L_var2);
; 1161 : #if (WMOPS)
; 1162 :             multiCounter[currCounter].L_add_c--;
; 1163 : #endif
; 1164 :         }
; 1165 :         else
; 1166 :         {
; 1167 :             L_var_out = L_var1 - L_var2;
; 1168 :             if (L_var1 > 0L)
; 1169 :             {
; 1170 :                 Overflow = 1;
; 1171 :                 Carry = 0;
; 1172 :             }
; 1173 :         }
; 1174 :     }
; 1175 :     else
; 1176 :     {
; 1177 :         L_var_out = L_var1 - L_var2 - (Word32) 0X00000001L;
; 1178 :         L_test = L_var1 - L_var2;
; 1179 : 
; 1180 :         if ((L_test < 0) && (L_var1 > 0) && (L_var2 < 0))
; 1181 :         {
; 1182 :             Overflow = 1;
; 1183 :             carry_int = 0;
; 1184 :         }
; 1185 :         else if ((L_test > 0) && (L_var1 < 0) && (L_var2 > 0))
; 1186 :         {
; 1187 :             Overflow = 1;
; 1188 :             carry_int = 1;
; 1189 :         }
; 1190 :         else if ((L_test > 0) && ((L_var1 ^ L_var2) > 0))
; 1191 :         {
; 1192 :             Overflow = 0;
; 1193 :             carry_int = 1;
; 1194 :         }
; 1195 :         if (L_test == MIN_32)
; 1196 :         {
; 1197 :             Overflow = 1;
; 1198 :             Carry = carry_int;
; 1199 :         }
; 1200 :         else
; 1201 :         {
; 1202 :             Carry = carry_int;
; 1203 :         }
; 1204 :     }
; 1205 : 
; 1206 : #if (WMOPS)
; 1207 :     multiCounter[currCounter].L_sub_c++;
; 1208 : #endif
; 1209 :     return (L_var_out);
; 1210 : }
; 1211 : 
; 1212 : /*___________________________________________________________________________
; 1213 :  |                                                                           |
; 1214 :  |   Function Name : L_negate                                                |
; 1215 :  |                                                                           |
; 1216 :  |   Purpose :                                                               |
; 1217 :  |                                                                           |
; 1218 :  |   Negate the 32 bit variable L_var1 with saturation; saturate in the case |
; 1219 :  |   where input is -2147483648 (0x8000 0000).                               |
; 1220 :  |                                                                           |
; 1221 :  |   Complexity weight : 2                                                   |
; 1222 :  |                                                                           |
; 1223 :  |   Inputs :                                                                |
; 1224 :  |                                                                           |
; 1225 :  |    L_var1   32 bit long signed integer (Word32) whose value falls in the  |
; 1226 :  |             range : 0x8000 0000 <= L_var3 <= 0x7fff ffff.                 |
; 1227 :  |                                                                           |
; 1228 :  |   Outputs :                                                               |
; 1229 :  |                                                                           |
; 1230 :  |    none                                                                   |
; 1231 :  |                                                                           |
; 1232 :  |   Return Value :                                                          |
; 1233 :  |                                                                           |
; 1234 :  |    L_var_out                                                              |
; 1235 :  |             32 bit long signed integer (Word32) whose value falls in the  |
; 1236 :  |             range : 0x8000 0000 <= L_var_out <= 0x7fff ffff.              |
; 1237 :  |___________________________________________________________________________|
; 1238 : */
; 1239 : 
; 1240 : Word32 L_negate (Word32 L_var1)
; 1241 : {
; 1242 :     Word32 L_var_out;
; 1243 : 
; 1244 :     L_var_out = (L_var1 == MIN_32) ? MAX_32 : -L_var1;
; 1245 : #if (WMOPS)
; 1246 :     multiCounter[currCounter].L_negate++;
; 1247 : #endif
; 1248 :     return (L_var_out);
; 1249 : }
; 1250 : 
; 1251 : /*___________________________________________________________________________
; 1252 :  |                                                                           |
; 1253 :  |   Function Name : mult_r                                                  |
; 1254 :  |                                                                           |
; 1255 :  |   Purpose :                                                               |
; 1256 :  |                                                                           |
; 1257 :  |   Same as mult with rounding, i.e.:                                       |
; 1258 :  |     mult_r(var1,var2) = extract_l(L_shr(((var1 * var2) + 16384),15)) and  |
; 1259 :  |     mult_r(-32768,-32768) = 32767.                                        |
; 1260 :  |                                                                           |
; 1261 :  |   Complexity weight : 2                                                   |
; 1262 :  |                                                                           |
