; Listing generated by Microsoft (R) Optimizing Compiler Version 18.00.40629.0 

	TITLE	E:\mywork\client\PC2.0TRUNK\PC2.0\third_party\libAMRPlayer\AMR\d_plsf_3.c
	.686P
	.XMM
	include listing.inc
	.model	flat

INCLUDELIB OLDNAMES

	ORG $+2
_dico3_lsf DW	043H
	DW	0ffefH
	DW	042H
	DW	0fff4H
	DW	0f966H
	DW	0fdbbH
	DW	0ff98H
	DW	0fef0H
	DW	0fbccH
	DW	0fb5eH
	DW	0f8cbH
	DW	0fe88H
	DW	0fb8cH
	DW	0fc62H
	DW	0fe5cH
	DW	0ffc6H
	DW	0fefdH
	DW	0fd70H
	DW	0fb92H
	DW	0fdd7H
	DW	06fcH
	DW	04cbH
	DW	01c7H
	DW	081H
	DW	01ceH
	DW	01b9H
	DW	0ff10H
	DW	0fdf0H
	DW	0348H
	DW	0202H
	DW	082H
	DW	0ffb5H
	DW	045aH
	DW	026fH
	DW	099H
	DW	0d8H
	DW	042cH
	DW	0234H
	DW	0fffaH
	DW	0feecH
	DW	045fH
	DW	02d7H
	DW	0beH
	DW	0ffbcH
	DW	02c0H
	DW	0132H
	DW	077H
	DW	0fef8H
	DW	0149H
	DW	03dH
	DW	0ff9cH
	DW	09cH
	DW	016cH
	DW	07bH
	DW	0b7H
	DW	0ff30H
	DW	0ff55H
	DW	0ff85H
	DW	0dcH
	DW	0ffbfH
	DW	0feceH
	DW	0ffc2H
	DW	0192H
	DW	011H
	DW	0fd6cH
	DW	0fc56H
	DW	0fef6H
	DW	00H
	DW	0181H
	DW	0ebH
	DW	0114H
	DW	011dH
	DW	0140H
	DW	010cH
	DW	0feb0H
	DW	0ff38H
	DW	0fd2cH
	DW	011H
	DW	0ffacH
	DW	017dH
	DW	0fde0H
	DW	01adH
	DW	01eeH
	DW	0207H
	DW	0ff8bH
	DW	0120H
	DW	0130H
	DW	0149H
	DW	0283H
	DW	09dH
	DW	02bdH
	DW	01fcH
	DW	04b0H
	DW	0271H
	DW	031cH
	DW	0260H
	DW	03e6H
	DW	01a5H
	DW	01ecH
	DW	0278H
	DW	04b4H
	DW	030cH
	DW	01beH
	DW	084H
	DW	04e9H
	DW	034cH
	DW	0223H
	DW	01c1H
	DW	033dH
	DW	0292H
	DW	021dH
	DW	01d6H
	DW	046cH
	DW	04eaH
	DW	0396H
	DW	027fH
	DW	0223H
	DW	033H
	DW	01a7H
	DW	0117H
	DW	09H
	DW	0188H
	DW	053H
	DW	05eH
	DW	021eH
	DW	021fH
	DW	0e5H
	DW	0ff6dH
	DW	0ff3aH
	DW	081H
	DW	0c2H
	DW	0ff47H
	DW	0fca1H
	DW	0fad7H
	DW	0fed2H
	DW	01eH
	DW	0fdabH
	DW	0fd8bH
	DW	0ffedH
	DW	072H
	DW	0fc7cH
	DW	0fbc7H
	DW	01d2H
	DW	0161H
	DW	0fa35H
	DW	0f9dbH
	DW	0fH
	DW	0ff71H
	DW	0f954H
	DW	0f7f5H
	DW	0fd11H
	DW	0c4H
	DW	0f8acH
	DW	0f7edH
	DW	0fd7eH
	DW	0fefeH
	DW	0f6e1H
	DW	0fa42H
	DW	0fe3eH
	DW	0fdccH
	DW	0fdb8H
	DW	0ff46H
	DW	0fc98H
	DW	0fe62H
	DW	0f8f3H
	DW	0fc24H
	DW	0fb9bH
	DW	0fae2H
	DW	0fd2aH
	DW	0fb97H
	DW	01cH
	DW	0a9H
	DW	0fbf1H
	DW	0fca0H
	DW	0fd32H
	DW	0ff0aH
	DW	01e4H
	DW	024H
	DW	0ff17H
	DW	0ffcfH
	DW	0109H
	DW	043H
	DW	0121H
	DW	01d3H
	DW	0b2H
	DW	021fH
	DW	032aH
	DW	021cH
	DW	054H
	DW	011aH
	DW	02a0H
	DW	02bfH
	DW	0fc31H
	DW	0fcf7H
	DW	081H
	DW	011fH
	DW	0fc56H
	DW	0ff1dH
	DW	03bbH
	DW	0253H
	DW	0f9afH
	DW	0fedfH
	DW	0344H
	DW	0289H
	DW	0f8c9H
	DW	0ff29H
	DW	0452H
	DW	02ceH
	DW	0f80eH
	DW	0fbc3H
	DW	028aH
	DW	01b8H
	DW	0f7cbH
	DW	0fdefH
	DW	038bH
	DW	023fH
	DW	0f825H
	DW	0feb0H
	DW	029eH
	DW	0ccH
	DW	0f6abH
	DW	0fd4cH
	DW	0168H
	DW	089H
	DW	0f794H
	DW	0f764H
	DW	0fff7H
	DW	0118H
	DW	0fef6H
	DW	077H
	DW	027H
	DW	0c1H
	DW	04eH
	DW	0ffc5H
	DW	0ff88H
	DW	0e2H
	DW	0fc31H
	DW	0fca6H
	DW	0fcf3H
	DW	0fbb9H
	DW	0fd95H
	DW	0fe63H
	DW	0fe3dH
	DW	0fcb6H
	DW	0fb40H
	DW	0fad7H
	DW	0fcd3H
	DW	0fc8dH
	DW	0faa0H
	DW	0f9b1H
	DW	0fe76H
	DW	0fe54H
	DW	0fd1fH
	DW	0fba7H
	DW	0fddbH
	DW	0fceaH
	DW	0fc90H
	DW	0fc31H
	DW	0fc39H
	DW	0fd7eH
	DW	0fc27H
	DW	0fc8aH
	DW	0fb07H
	DW	0faafH
	DW	0fe27H
	DW	0fcdcH
	DW	0fa87H
	DW	0fa81H
	DW	0a0H
	DW	0fef7H
	DW	0fc69H
	DW	0feedH
	DW	0ff08H
	DW	0ff06H
	DW	0fd32H
	DW	0fe84H
	DW	061H
	DW	0ff99H
	DW	0fe89H
	DW	0ff1bH
	DW	0fe61H
	DW	0ff3fH
	DW	0ff79H
	DW	0fdd5H
	DW	0274H
	DW	0169H
	DW	077H
	DW	0d8H
	DW	0243H
	DW	016cH
	DW	0187H
	DW	0d1H
	DW	027aH
	DW	020aH
	DW	0ff66H
	DW	0ff6cH
	DW	020eH
	DW	0185H
	DW	0aaH
	DW	021H
	DW	069H
	DW	010bH
	DW	040H
	DW	017cH
	DW	0fa21H
	DW	0fc18H
	DW	0ffe2H
	DW	0fe8fH
	DW	0fbd2H
	DW	03aH
	DW	0287H
	DW	0dfH
	DW	0fa10H
	DW	0feddH
	DW	026dH
	DW	0133H
	DW	0fa05H
	DW	09cH
	DW	02faH
	DW	0194H
	DW	0f813H
	DW	08dH
	DW	02deH
	DW	01f3H
	DW	0f8c7H
	DW	0fd76H
	DW	0132H
	DW	0200H
	DW	0ff45H
	DW	0ff98H
	DW	0ffc5H
	DW	01b6H
	DW	086H
	DW	0ff1aH
	DW	09cH
	DW	0ff46H
	DW	0ffc3H
	DW	0fefcH
	DW	0fff0H
	DW	0aH
	DW	0fdc7H
	DW	0fffdH
	DW	0fe5bH
	DW	0fed7H
	DW	0f943H
	DW	0fdf7H
	DW	0fea6H
	DW	0b2H
	DW	0faaeH
	DW	0ffc5H
	DW	0ffd4H
	DW	09dH
	DW	0f79eH
	DW	0fe33H
	DW	0fe2aH
	DW	0fea3H
	DW	0f786H
	DW	0ffffH
	DW	0fe8fH
	DW	0ff87H
	DW	0f9d5H
	DW	0fe8bH
	DW	0fc7cH
	DW	0fc09H
	DW	0fba3H
	DW	0fdb1H
	DW	0fd9bH
	DW	0fcf0H
	DW	0fdcfH
	DW	07aH
	DW	0ffb5H
	DW	0fe3fH
	DW	0fffcH
	DW	0ff55H
	DW	0ff85H
	DW	0fe8cH
	DW	0c0H
	DW	0a8H
	DW	0ffb4H
	DW	0ff7cH
	DW	0fcH
	DW	0ff95H
	DW	0154H
	DW	0d2H
	DW	0188H
	DW	01fdH
	DW	0110H
	DW	0b5H
	DW	0ff93H
	DW	091H
	DW	0daH
	DW	077H
	DW	0fe60H
	DW	0fef9H
	DW	01e5H
	DW	0109H
	DW	0ff4bH
	DW	0fff8H
	DW	0fee2H
	DW	0e2H
	DW	0ff0cH
	DW	0ff26H
	DW	045H
	DW	0fedeH
	DW	0ff62H
	DW	0bfH
	DW	0ffffH
	DW	0ffc0H
	DW	0fdb0H
	DW	0ffa6H
	DW	0d5H
	DW	0ffa0H
	DW	0ffH
	DW	01b3H
	DW	0b2H
	DW	0ffb0H
	DW	0fe8fH
	DW	0ffeeH
	DW	0ffdfH
	DW	0ffb0H
	DW	0ffd6H
	DW	019fH
	DW	08cH
	DW	0ff22H
	DW	0477H
	DW	028bH
	DW	0289H
	DW	0149H
	DW	02ffH
	DW	022cH
	DW	0f9H
	DW	0ebH
	DW	03b4H
	DW	019dH
	DW	01baH
	DW	0117H
	DW	08dH
	DW	0153H
	DW	0164H
	DW	022dH
	DW	0fe2aH
	DW	0ff56H
	DW	063H
	DW	0edH
	DW	0fdc7H
	DW	0fce0H
	DW	0160H
	DW	0235H
	DW	011aH
	DW	01d9H
	DW	01d6H
	DW	014cH
	DW	0ff39H
	DW	0fd4eH
	DW	0fafcH
	DW	0fc6bH
	DW	0ff3fH
	DW	0fe56H
	DW	0fce0H
	DW	0fb9eH
	DW	0ffe6H
	DW	0fe8dH
	DW	0fe16H
	DW	0ff3fH
	DW	027dH
	DW	0253H
	DW	0207H
	DW	014aH
	DW	0198H
	DW	0ff8dH
	DW	04fH
	DW	0cH
	DW	01ddH
	DW	057H
	DW	0ff99H
	DW	0fe88H
	DW	0fd66H
	DW	0fea5H
	DW	0feebH
	DW	0feddH
	DW	0fe02H
	DW	0fe1fH
	DW	0a9H
	DW	0129H
	DW	0fcc3H
	DW	0fd1eH
	DW	0ff33H
	DW	0ff55H
	DW	0fec0H
	DW	0fde4H
	DW	0148H
	DW	011bH
	DW	0fca5H
	DW	0fc42H
	DW	01baH
	DW	0fffeH
	DW	022cH
	DW	02aeH
	DW	082H
	DW	038H
	DW	0567H
	DW	03f4H
	DW	02f3H
	DW	01abH
	DW	0264H
	DW	02e5H
	DW	0274H
	DW	0229H
	DW	0feadH
	DW	0fce4H
	DW	086H
	DW	0115H
	DW	0fd87H
	DW	0fbc3H
	DW	0fffeH
	DW	0ff0aH
	DW	0fc90H
	DW	0fbf5H
	DW	0f9b9H
	DW	0fbd8H
	DW	0fc1eH
	DW	0fe26H
	DW	0fb8eH
	DW	0fe18H
	DW	0fe62H
	DW	0fce5H
	DW	049H
	DW	0ff32H
	DW	0fff8H
	DW	0ff75H
	DW	01b7H
	DW	0ccH
	DW	0ff50H
	DW	0fdbeH
	DW	017H
	DW	083H
	DW	0fef3H
	DW	0fd0bH
	DW	0ff41H
	DW	0f5H
	DW	0ff93H
	DW	0feaeH
	DW	070H
	DW	013cH
	DW	078H
	DW	0fe6aH
	DW	0ff8aH
	DW	0263H
	DW	0ff4cH
	DW	0ff46H
	DW	0fd7bH
	DW	073H
	DW	0ff53H
	DW	022H
	DW	0fdfaH
	DW	0fe17H
	DW	0ff69H
	DW	03dH
	DW	0fdb9H
	DW	0fcb4H
	DW	0dcH
	DW	0ff76H
	DW	0fd57H
	DW	0fc04H
	DW	0187H
	DW	0ffefH
	DW	0fdaaH
	DW	0febfH
	DW	09dH
	DW	0fed9H
	DW	081H
	DW	09bH
	DW	0fc62H
	DW	0fc95H
	DW	0fc25H
	DW	011dH
	DW	0f1H
	DW	0ffadH
	DW	0ff83H
	DW	0ff83H
	DW	026cH
	DW	0255H
	DW	01b0H
	DW	05cH
	DW	0189H
	DW	04eH
	DW	0199H
	DW	03dH
	DW	0fe77H
	DW	0fd1dH
	DW	0fe63H
	DW	0fd14H
	DW	053H
	DW	036H
	DW	0169H
	DW	01bH
	DW	0fbc4H
	DW	082H
	DW	0feafH
	DW	0fd4aH
	DW	0f9e3H
	DW	0129H
	DW	013eH
	DW	0ffedH
	DW	0f8afH
	DW	024H
	DW	033H
	DW	0fec3H
	DW	0f6edH
	DW	0ff0aH
	DW	0e7H
	DW	0ffacH
	DW	0f6feH
	DW	0fcf1H
	DW	028H
	DW	0ff4dH
	DW	0f747H
	DW	0fc5eH
	DW	0fe26H
	DW	0fe32H
	DW	0fd0eH
	DW	0ffaaH
	DW	0fee0H
	DW	0fd8eH
	DW	0f695H
	DW	0fe39H
	DW	0ffc1H
	DW	0abH
	DW	0fbb5H
	DW	0fbbaH
	DW	0ffe6H
	DW	0ff71H
	DW	0fb57H
	DW	0fe39H
	DW	0fe6aH
	DW	0fe83H
	DW	0fda3H
	DW	0ff2eH
	DW	0ffa0H
	DW	0ffcdH
	DW	0fdbcH
	DW	0fe24H
	DW	0feecH
	DW	0fff1H
	DW	0fb55H
	DW	0fd86H
	DW	0fb4dH
	DW	0fc8fH
	DW	0fe86H
	DW	0ff23H
	DW	0fd63H
	DW	0fc48H
	DW	0252H
	DW	0b2H
	DW	0fe6dH
	DW	0fd5cH
	DW	02fbH
	DW	0147H
	DW	0259H
	DW	0122H
	DW	0acH
	DW	012cH
	DW	0cbH
	DW	09dH
	DW	0ffc8H
	DW	0feb0H
	DW	0164H
	DW	018H
	DW	0ff1cH
	DW	0fed8H
	DW	0fefdH
	DW	0ffe3H
	DW	0ff46H
	DW	0107H
	DW	01a0H
	DW	0eH
	DW	0fe9fH
	DW	0175H
	DW	0fff4H
	DW	0ff28H
	DW	0101H
	DW	060H
	DW	0aeH
	DW	039H
	DW	0fa0aH
	DW	0fd98H
	DW	0fc46H
	DW	0fe0dH
	DW	0fe0fH
	DW	0ff68H
	DW	0feb3H
	DW	07dH
	DW	069H
	DW	0c8H
	DW	0b3H
	DW	0ff9fH
	DW	0feb5H
	DW	0ff20H
	DW	02fdH
	DW	02b9H
	DW	02f8H
	DW	0100H
	DW	012dH
	DW	03bH
	DW	01c7H
	DW	0ffabH
	DW	0ccH
	DW	0120H
	DW	0fdfeH
	DW	0f0H
	DW	0fbH
	DW	0ff93H
	DW	0100H
	DW	01a1H
	DW	0ffdeH
	DW	0fe63H
	DW	065H
	DW	01aeH
	DW	0180H
	DW	09cH
	DW	0ffe1H
	DW	0fff6H
	DW	0ceH
	DW	01aaH
	DW	024dH
	DW	091H
	DW	08fH
	DW	047H
	DW	0328H
	DW	038aH
	DW	014dH
	DW	015dH
	DW	03daH
	DW	03aaH
	DW	024dH
	DW	014bH
	DW	0514H
	DW	0338H
	DW	0bbH
	DW	01fdH
	DW	0426H
	DW	028dH
	DW	017bH
	DW	01d2H
	DW	05b6H
	DW	03a9H
	DW	0191H
	DW	0112H
	DW	0313H
	DW	035dH
	DW	0109H
	DW	02H
	DW	0261H
	DW	0229H
	DW	01cH
	DW	0131H
	DW	039eH
	DW	0154H
	DW	06aH
	DW	0182H
	DW	0f1H
	DW	0fef5H
	DW	0ff6dH
	DW	0e1H
	DW	0ff4eH
	DW	0fdeaH
	DW	015bH
	DW	01f6H
	DW	0fd7dH
	DW	0fe83H
	DW	018dH
	DW	01eH
	DW	0fd75H
	DW	0fd23H
	DW	0fe4dH
	DW	018eH
	DW	0fe69H
	DW	0fd2aH
	DW	0fe1cH
	DW	0ff08H
	DW	0fcebH
	DW	0fc6eH
	DW	0fe4aH
	DW	0fe24H
	DW	0fe0eH
	DW	0fe7aH
	DW	04bH
	DW	0fed9H
	DW	0fc3cH
	DW	0fdb2H
	DW	0fda2H
	DW	096H
	DW	0ff87H
	DW	0ffcfH
	DW	0ff65H
	DW	0ffb2H
	DW	03a7H
	DW	0226H
	DW	0185H
	DW	026H
	DW	0febfH
	DW	07fH
	DW	01a8H
	DW	013bH
	DW	0fee3H
	DW	0ff8fH
	DW	011bH
	DW	0103H
	DW	0292H
	DW	0cbH
	DW	0142H
	DW	01e6H
	DW	0387H
	DW	01f9H
	DW	02ecH
	DW	01a1H
	DW	0263H
	DW	01a7H
	DW	022bH
	DW	0200H
	DW	0efH
	DW	0ffadH
	DW	0fdbeH
	DW	0ffedH
	DW	0feadH
	DW	0fd25H
	DW	015dH
	DW	0dH
	DW	0fc5aH
	DW	0fa89H
	DW	0ff8eH
	DW	0fe98H
	DW	06bH
	DW	02b4H
	DW	0b6H
	DW	05aH
	DW	0fb25H
	DW	0f9feH
	DW	0f9f1H
	DW	0fd2bH
	DW	0fdc8H
	DW	0fc79H
	DW	0faadH
	DW	0fdf3H
	DW	0fdfbH
	DW	0fcabH
	DW	0fca3H
	DW	0fc14H
	DW	0ff58H
	DW	0fd4eH
	DW	0fcbdH
	DW	03fH
	DW	0ff77H
	DW	0fdd4H
	DW	0fdddH
	DW	090H
	DW	0fee2H
	DW	0fccfH
	DW	01e5H
	DW	013fH
	DW	0ff6dH
	DW	0fe68H
	DW	020eH
	DW	0f6H
	DW	0fea5H
	DW	0fe4eH
	DW	0129H
	DW	0ffe4H
	DW	0fedeH
	DW	0fe29H
	DW	0fbaaH
	DW	0fafbH
	DW	0fe34H
	DW	0fe99H
	DW	0fc24H
	DW	0fce6H
	DW	0543H
	DW	0513H
	DW	02b2H
	DW	020bH
	DW	04c0H
	DW	042cH
	DW	0446H
	DW	02f5H
	DW	0339H
	DW	0474H
	DW	02f0H
	DW	01eeH
	DW	04e4H
	DW	0555H
	DW	04abH
	DW	0382H
	DW	0209H
	DW	041dH
	DW	0214H
	DW	01b0H
	DW	0feb2H
	DW	0ff28H
	DW	0fec7H
	DW	0fef9H
	DW	0ff60H
	DW	034H
	DW	0fe28H
	DW	0ff65H
	DW	07fH
	DW	088H
	DW	0fe84H
	DW	02cH
	DW	0353H
	DW	019aH
	DW	0ff5eH
	DW	0fe17H
	DW	07bH
	DW	0ff01H
	DW	0fce4H
	DW	0fd65H
	DW	0442H
	DW	0395H
	DW	0315H
	DW	01edH
	DW	0575H
	DW	04adH
	DW	022eH
	DW	0caH
	DW	0ffcdH
	DW	0ff8aH
	DW	0feaaH
	DW	0fd43H
	DW	053H
	DW	06cH
	DW	0ffd6H
	DW	0fe47H
	DW	03dH
	DW	05fH
	DW	011fH
	DW	0100H
	DW	0ffe5H
	DW	059H
	DW	020cH
	DW	0213H
	DW	015fH
	DW	0e3H
	DW	0250H
	DW	0221H
	DW	02b9H
	DW	09bH
	DW	0ff5cH
	DW	0133H
	DW	027eH
	DW	0112H
	DW	0fe17H
	DW	0ffceH
	DW	02f2H
	DW	0f0H
	DW	0ff5aH
	DW	0ff84H
	DW	0ff8cH
	DW	0fdbdH
	DW	0fb44H
	DW	0ffc1H
	DW	0beH
	DW	0fed9H
	DW	0fbf0H
	DW	0faf0H
	DW	093H
	DW	0fe88H
	DW	0ff4fH
	DW	0ff8fH
	DW	0349H
	DW	04d9H
	DW	041bH
	DW	029cH
	DW	02H
	DW	0125H
	DW	0227H
	DW	0130H
	DW	0fbb8H
	DW	0fc47H
	DW	0ff08H
	DW	0178H
	DW	0fd12H
	DW	0fc3bH
	DW	057H
	DW	0204H
	DW	0feedH
	DW	0fdfcH
	DW	02b1H
	DW	0187H
	DW	0fe85H
	DW	0fd7dH
	DW	036cH
	DW	0252H
	DW	0fe7aH
	DW	0fc0bH
	DW	0fd7bH
	DW	023dH
	DW	0ff95H
	DW	0fdc8H
	DW	0fd4fH
	DW	0fcc6H
	DW	0fbffH
	DW	0ffe5H
	DW	0feb8H
	DW	0ff35H
	DW	035dH
	DW	02edH
	DW	0224H
	DW	0e9H
	DW	0f984H
	DW	0fbedH
	DW	01c3H
	DW	06cH
	DW	0fd6cH
	DW	0fd94H
	DW	01aeH
	DW	0ecH
	DW	015H
	DW	0fe74H
	DW	0fb7aH
	DW	0fd89H
	DW	055cH
	DW	0512H
	DW	03c7H
	DW	0241H
	DW	0465H
	DW	0465H
	DW	024dH
	DW	01c6H
	DW	0febdH
	DW	0fc9fH
	DW	0fe2dH
	DW	099H
	DW	0fe2cH
	DW	0fd45H
	DW	0fcdcH
	DW	0fe03H
	DW	0fe78H
	DW	0fd32H
	DW	0ff34H
	DW	0ffddH
	DW	0fda5H
	DW	0fbbbH
	DW	0fdc9H
	DW	0ff5eH
	DW	0fe07H
	DW	0fc14H
	DW	0ff9aH
	DW	015eH
	DW	0dbH
	DW	0e0H
	DW	01a7H
	DW	0fcH
	DW	018bH
	DW	024fH
	DW	0260H
	DW	016bH
	DW	0fd16H
	DW	0ffa0H
	DW	0175H
	DW	0acH
	DW	0abH
	DW	0127H
	DW	02caH
	DW	0153H
	DW	0e9H
	DW	04dH
	DW	06bH
	DW	0115H
	DW	09dH
	DW	099H
	DW	0fe0dH
	DW	0fe9cH
	DW	060bH
	DW	0431H
	DW	0240H
	DW	01eeH
	DW	0fedcH
	DW	0feadH
	DW	0fe08H
	DW	0fdb0H
	DW	0fc79H
	DW	0ffb8H
	DW	0fd95H
	DW	0fe1fH
	DW	0f9c6H
	DW	0fba3H
	DW	0fdc9H
	DW	0ff02H
	DW	0fce7H
	DW	0fe05H
	DW	0fdccH
	DW	0feddH
	DW	0fe14H
	DW	0fdecH
	DW	01f6H
	DW	0230H
	DW	0fe82H
	DW	01abH
	DW	0258H
	DW	0e6H
	DW	0ff1dH
	DW	01ddH
	DW	0fbH
	DW	04bH
	DW	011dH
	DW	034aH
	DW	032dH
	DW	01dcH
	DW	0fae2H
	DW	0facbH
	DW	0baH
	DW	0179H
	DW	0fdb5H
	DW	0fc6bH
	DW	0283H
	DW	017dH
	DW	0fb5eH
	DW	0fdd7H
	DW	019bH
	DW	052H
	DW	0fb99H
	DW	0fcccH
	DW	0ff52H
	DW	0fde4H
	DW	0fda4H
	DW	077H
	DW	021fH
	DW	0cdH
	DW	0fe84H
	DW	0291H
	DW	038dH
	DW	0237H
	DW	070H
	DW	0fed6H
	DW	0fe8aH
	DW	072H
	DW	0fca7H
	DW	0ff05H
	DW	038H
	DW	09fH
	DW	0191H
	DW	0159H
	DW	0ffdeH
	DW	0ff74H
	DW	0ff91H
	DW	0fda1H
	DW	029H
	DW	0266H
	DW	0163H
	DW	0ff8eH
	DW	0ffb3H
	DW	01daH
	DW	0242H
	DW	038H
	DW	05aaH
	DW	039cH
	DW	044aH
	DW	058cH
	DW	02e5H
	DW	0190H
	DW	0f6H
	DW	016H
	DW	024cH
	DW	0139H
	DW	0ff87H
	DW	0147H
	DW	033fH
	DW	01d8H
	DW	0fb8eH
	DW	0fda0H
	DW	0358H
	DW	0228H
	DW	0fb27H
	DW	0fbd0H
	DW	027eH
	DW	0258H
	DW	0fe9aH
	DW	0feH
	DW	0feb3H
	DW	0fed1H
	DW	0fd7aH
	DW	02e3H
	DW	0166H
	DW	04aH
	DW	04caH
	DW	0687H
	DW	04c5H
	DW	0351H
	DW	08c1H
	DW	0658H
	DW	03d7H
	DW	027cH
	DW	0731H
	DW	05c5H
	DW	02edH
	DW	0180H
	DW	015eH
	DW	0107H
	DW	057H
	DW	080H
	DW	0f892H
	DW	0fc53H
	DW	0ff70H
	DW	0ffc0H
	DW	0f93aH
	DW	0ff01H
	DW	0120H
	DW	0ffe1H
	DW	0f5acH
	DW	0fb2aH
	DW	016eH
	DW	0ebH
	DW	0f995H
	DW	0fbbcH
	DW	0fac0H
	DW	0fed0H
	DW	0fde3H
	DW	0fbcdH
	DW	0fba4H
	DW	07bH
	DW	0fb66H
	DW	0ff04H
	DW	0fcd0H
	DW	0ff4cH
	DW	0fc08H
	DW	0215H
	DW	0235H
	DW	0e9H
	DW	0fe19H
	DW	0fe52H
	DW	0ff44H
	DW	014eH
	DW	0363H
	DW	04d4H
	DW	0216H
	DW	0abH
	DW	0f9caH
	DW	0f9b9H
	DW	027bH
	DW	0276H
	DW	0f76cH
	DW	0136H
	DW	039cH
	DW	019cH
	DW	0f6caH
	DW	0feb8H
	DW	03bcH
	DW	0211H
	DW	0f5b1H
	DW	0fe87H
	DW	0276H
	DW	0116H
	DW	0f5d6H
	DW	013dH
	DW	031fH
	DW	012bH
	DW	0f69aH
	DW	085H
	DW	0154H
	DW	01fH
	DW	0f794H
	DW	0fa44H
	DW	083H
	DW	07dH
	DW	0fb60H
	DW	0fe16H
	DW	0ff75H
	DW	02eH
	DW	0fd18H
	DW	01bfH
	DW	037bH
	DW	0234H
	DW	043H
	DW	0fe3dH
	DW	0286H
	DW	025cH
	DW	0fdd7H
	DW	0fe53H
	DW	0fc94H
	DW	018cH
	DW	0a2H
	DW	0ffbeH
	DW	0519H
	DW	0393H
	DW	01dfH
	DW	0243H
	DW	0440H
	DW	031aH
	DW	01c2H
	DW	0116H
	DW	0236H
	DW	0144H
	DW	0fbdfH
	DW	0ff66H
	DW	094H
	DW	0ff4fH
	DW	0f60fH
	DW	0a8H
	DW	042eH
	DW	0250H
	DW	0f6d1H
	DW	0ffd6H
	DW	0333H
	DW	0159H
	DW	0f6d8H
	DW	0fd3dH
	DW	02d1H
	DW	0faH
	DW	0f781H
	DW	0fa27H
	DW	0fecbH
	DW	07aH
	DW	0ffb2H
	DW	0ffb7H
	DW	078H
	DW	0adH
	DW	0fffcH
	DW	0106H
	DW	0fef9H
	DW	0fefbH
	DW	0fe51H
	DW	0ffc0H
	DW	0fe6bH
	DW	0fd24H
	DW	0f5cfH
	DW	074H
	DW	0ffadH
	DW	0ff3fH
	DW	0fa0bH
	DW	0fc50H
	DW	0fe23H
	DW	0fd2bH
	DW	0fe04H
	DW	0133H
	DW	0aaH
	DW	0acH
	DW	0340H
	DW	01a1H
	DW	0340H
	DW	02aeH
	DW	0ff1fH
	DW	0b1H
	DW	037eH
	DW	0332H
	DW	0fe1eH
	DW	0fe7bH
	DW	04ffH
	DW	040fH
	DW	0fe81H
	DW	0c9H
	DW	0fea2H
	DW	028H
	DW	02daH
	DW	027bH
	DW	0e2H
	DW	020eH
	DW	01f7H
	DW	01ceH
	DW	0152H
	DW	018eH
	DW	0217H
	DW	02caH
	DW	028H
	DW	0fee6H
	DW	05caH
	DW	05bfH
	DW	043dH
	DW	02dbH
	DW	0619H
	DW	0430H
	DW	038dH
	DW	02b5H
	DW	058bH
	DW	0502H
	DW	0379H
	DW	036fH
	DW	0481H
	DW	02d8H
	DW	04a2H
	DW	0348H
	DW	0ff1eH
	DW	046aH
	DW	03b5H
	DW	02b1H
	DW	0fe12H
	DW	0fc26H
	DW	0f9ecH
	DW	0ff80H
	DW	0fdc8H
	DW	0fd2fH
	DW	0fd37H
	DW	0ffe6H
	DW	013dH
	DW	020cH
	DW	046H
	DW	087H
	DW	0fe6bH
	DW	0fc9fH
	DW	0f91aH
	DW	0fd74H
	DW	0ff52H
	DW	0fcdfH
	DW	0375H
	DW	0305H
	DW	0ff67H
	DW	0ffa5H
	DW	044bH
	DW	02efH
	DW	0fe06H
	DW	0fb83H
	DW	0355H
	DW	0286H
	DW	0f1H
	DW	030eH
	DW	0207H
	DW	021bH
	DW	073dH
	DW	06a4H
	DW	044dH
	DW	02acH
	DW	0fb1fH
	DW	0fa32H
	DW	0fe30H
	DW	0bcH
	DW	0fc83H
	DW	0fa7fH
	DW	0fae0H
	DW	0feabH
	DW	0ff79H
	DW	01b6H
	DW	0ff51H
	DW	012H
	DW	0457H
	DW	03d0H
	DW	013fH
	DW	0d0H
	DW	0fa6aH
	DW	0f918H
	DW	053H
	DW	01caH
	DW	0fdeeH
	DW	0fc18H
	DW	0133H
	DW	081H
	DW	0fcb8H
	DW	0fff1H
	DW	0ffe3H
	DW	0fe9cH
	DW	0fc71H
	DW	0fc64H
	DW	0fb85H
	DW	0ff0eH
	DW	0ff89H
	DW	0fdf0H
	DW	07fH
	DW	0ff7bH
	DW	0fd07H
	DW	0fd03H
	DW	0beH
	DW	0ffadH
	DW	0fec5H
	DW	037fH
	DW	020aH
	DW	0e7H
	DW	0ff22H
	DW	066H
	DW	0ffc1H
	DW	0fe54H
	DW	013cH
	DW	02bbH
	DW	017bH
	DW	046H
	DW	019H
	DW	02ccH
	DW	013aH
	DW	0ff94H
	DW	01fbH
	DW	036aH
	DW	0236H
	DW	0eeH
	DW	06cH
	DW	03adH
	DW	0207H
	DW	0c3H
	DW	01a9H
	DW	0ffc4H
	DW	0fe55H
	DW	0101H
	DW	08bH
	DW	0ff99H
	DW	0fd8aH
	DW	01beH
	DW	014eH
	DW	0172H
	DW	019cH
	DW	030H
	DW	0ff54H
	DW	0fd4eH
	DW	0fee5H
	DW	022dH
	DW	0bbH
	DW	0fee2H
	DW	09eH
	DW	01e3H
	DW	08cH
	DW	010eH
	DW	0fea8H
	DW	0fd89H
	DW	039cH
	DW	0243H
	DW	0ff8cH
	DW	084H
	DW	08eH
	DW	01d2H
	DW	0ffbcH
	DW	0ffc0H
	DW	0e6H
	DW	0ff6fH
	DW	0fed2H
	DW	0fde2H
	DW	0fcddH
	DW	0fc70H
	DW	03faH
	DW	02e1H
	DW	0fcfbH
	DW	03f7H
	DW	0276H
	DW	0129H
	DW	0f5dcH
	DW	05fH
	DW	01bdH
	DW	0150H
	DW	0f7b6H
	DW	01ebH
	DW	01feH
	DW	0bfH
	DW	0fb1bH
	DW	0a1H
	DW	0fffeH
	DW	0febcH
	DW	0fa56H
	DW	0fd87H
	DW	0fd38H
	DW	0ff97H
	DW	0fcb6H
	DW	0ff02H
	DW	0fe65H
	DW	064H
	DW	0fd80H
	DW	0fedeH
	DW	03f2H
	DW	02fbH
	DW	0fd76H
	DW	0139H
	DW	0491H
	DW	02daH
	DW	08cH
	DW	01f9H
	DW	0406H
	DW	02feH
	DW	0304H
	DW	011fH
	DW	042bH
	DW	0337H
	DW	01efH
	DW	02edH
	DW	0131H
	DW	0143H
	DW	0ff5cH
	DW	01ceH
	DW	04eH
	DW	018fH
	DW	0feaaH
	DW	0fc96H
	DW	045H
	DW	0255H
	DW	0fff0H
	DW	026cH
	DW	026dH
	DW	0151H
	DW	0ff76H
	DW	0fe44H
	DW	0fef7H
	DW	0daH
	DW	054H
	DW	0fe3eH
	DW	03b9H
	DW	029aH
	DW	0ff22H
	DW	0fcddH
	DW	021dH
	DW	025cH
	DW	0fc67H
	DW	0faa0H
	DW	0f4H
	DW	074H
	DW	0fcb7H
	DW	0fd2dH
	DW	0276H
	DW	024cH
	DW	08cH
	DW	0297H
	DW	0126H
	DW	0170H
	DW	03a7H
	DW	0416H
	DW	0371H
	DW	02f7H
	DW	06d2H
	DW	05b8H
	DW	0394H
	DW	0274H
	DW	01b4H
	DW	03c3H
	DW	0119H
	DW	01H
	DW	0ff89H
	DW	04aH
	DW	021eH
	DW	0d5H
	DW	01H
	DW	0fdc9H
	DW	012dH
	DW	0f1H
	DW	0104H
	DW	01b3H
	DW	0deH
	DW	018cH
	DW	03a8H
	DW	03bdH
	DW	0454H
	DW	02bfH
	DW	01feH
	DW	01faH
	DW	0328H
	DW	01deH
	DW	0259H
	DW	02b6H
	DW	03c0H
	DW	026cH
	DW	03ccH
	DW	02e5H
	DW	03d4H
	DW	0258H
	DW	0342H
	DW	02cdH
	DW	02ffH
	DW	02acH
	DW	0283H
	DW	03ccH
	DW	03a7H
	DW	027eH
	DW	01f5H
	DW	0295H
	DW	02d0H
	DW	0353H
	DW	0ff97H
	DW	0fd88H
	DW	0fed1H
	DW	0ff8bH
	DW	0fe53H
	DW	082H
	DW	0315H
	DW	01baH
	DW	0fdf6H
	DW	0ff44H
	DW	02c0H
	DW	0175H
	DW	0fd09H
	DW	02aH
	DW	032eH
	DW	020bH
	DW	0fdedH
	DW	0fb8fH
	DW	0175H
	DW	0242H
	DW	0fd56H
	DW	0fb4dH
	DW	0fe39H
	DW	011dH
	DW	0fb75H
	DW	0f9d7H
	DW	0fbb6H
	DW	02cH
	DW	051H
	DW	0ffaeH
	DW	02c8H
	DW	016bH
	DW	01ddH
	DW	0f6H
	DW	03baH
	DW	026eH
	DW	0644H
	DW	0656H
	DW	04fdH
	DW	037bH
	DW	0581H
	DW	035bH
	DW	039cH
	DW	037cH
	DW	0306H
	DW	0411H
	DW	03b3H
	DW	0476H
	DW	028H
	DW	0fddeH
	DW	0ffb5H
	DW	0120H
	DW	0fd98H
	DW	0ff96H
	DW	0fd47H
	DW	0ffe6H
	DW	0ff57H
	DW	0ff60H
	DW	0fc85H
	DW	0fd1dH
	DW	0fee9H
	DW	0fe80H
	DW	0fbfbH
	DW	0fea2H
	DW	06f5H
	DW	051cH
	DW	0416H
	DW	0330H
	DW	062cH
	DW	05fdH
	DW	05c0H
	DW	049aH
	DW	05e1H
	DW	0434H
	DW	04c0H
	DW	0383H
	DW	037aH
	DW	0388H
	DW	0234H
	DW	028eH
	DW	0398H
	DW	02b4H
	DW	03fdH
	DW	0358H
	DW	0fe13H
	DW	084H
	DW	0b1H
	DW	01f9H
	DW	047H
	DW	0c3H
	DW	0ffe4H
	DW	061H
	DW	01c8H
	DW	015fH
	DW	0ff5cH
	DW	058H
	DW	01b7H
	DW	0116H
	DW	0ffd8H
	DW	015eH
	DW	0573H
	DW	03b5H
	DW	0eaH
	DW	0ffa1H
	DW	0fcdbH
	DW	0fe28H
	DW	026H
	DW	0ff5dH
	DW	016fH
	DW	0ff9eH
	DW	01e9H
	DW	020bH
	DW	0401H
	DW	049aH
	DW	04bcH
	DW	038aH
	DW	013fH
	DW	0522H
	DW	032eH
	DW	01cdH
	DW	0ff85H
	DW	0fde1H
	DW	0fcdcH
	DW	01bfH
	DW	0fd14H
	DW	0febcH
	DW	0fc7fH
	DW	0fb99H
	DW	0fd1fH
	DW	0fe0bH
	DW	0fcebH
	DW	0fd37H
	DW	02cbH
	DW	0309H
	DW	04d7H
	DW	039aH
	DW	079dH
	DW	0793H
	DW	0558H
	DW	0361H
	DW	02daH
	DW	0370H
	DW	02f6H
	DW	0184H
	DW	0fc99H
	DW	01c6H
	DW	011H
	DW	0ff05H
	DW	0fe83H
	DW	0fcd6H
	DW	0f9d1H
	DW	0efH
	DW	0fdf7H
	DW	0fc3aH
	DW	0fce8H
	DW	0103H
	DW	0fc86H
	DW	0fab2H
	DW	0fcfeH
	DW	0ffb7H
	DW	0a6H
	DW	015dH
	DW	0ff2cH
	DW	0143H
	DW	0fcb8H
	DW	0fed3H
	DW	01d9H
	DW	01b3H
	DW	0fd59H
	DW	0fe30H
	DW	02d8H
	DW	015fH
	DW	0ff64H
	DW	0ff39H
	DW	029bH
	DW	01b0H
	DW	01dH
	DW	0ff04H
	DW	019fH
	DW	01e0H
	DW	0fd25H
	DW	0fe85H
	DW	091H
	DW	022fH
	DW	0fdf0H
	DW	0fd89H
	DW	0fb7aH
	DW	0ff61H
	DW	01bdH
	DW	0111H
	DW	07bH
	DW	027fH
	DW	0175H
	DW	0ff82H
	DW	0320H
	DW	0238H
	DW	054H
	DW	0ff5eH
	DW	02d0H
	DW	02c8H
	DW	0fcc2H
	DW	0fde8H
	DW	0ff47H
	DW	0deH
	DW	0198H
	DW	01c4H
	DW	01f5H
	DW	0303H
	DW	0fc7fH
	DW	0fab5H
	DW	0ffbdH
	DW	01baH
	DW	0fce8H
	DW	0fa82H
	DW	0236H
	DW	025aH
	DW	0a7H
	DW	0febaH
	DW	01fdH
	DW	014aH
	DW	0ffa1H
	DW	0fd8eH
	DW	0fd26H
	DW	0fea8H
	DW	0684H
	DW	04c1H
	DW	030bH
	DW	01c7H
	DW	0524H
	DW	033cH
	DW	0248H
	DW	02cfH
	DW	0194H
	DW	0ffe1H
	DW	03f5H
	DW	0315H
	DW	059H
	DW	06bH
	DW	037bH
	DW	0225H
	DW	0367H
	DW	062dH
	DW	0395H
	DW	029fH
	DW	0362H
	DW	05c7H
	DW	0509H
	DW	0356H
	DW	0187H
	DW	042cH
	DW	0462H
	DW	032cH
	DW	04eH
	DW	0fdceH
	DW	0159H
	DW	0233H
	DW	01adH
	DW	0ff99H
	DW	01a1H
	DW	0313H
	DW	0ff86H
	DW	0fe4bH
	DW	019bH
	DW	0314H
	DW	0fc6fH
	DW	0fe5fH
	DW	025aH
	DW	02f2H
	DW	0ff1eH
	DW	0fff0H
	DW	097H
	DW	02f8H
	DW	0fd44H
	DW	076H
	DW	0ff98H
	DW	0fff2H
	DW	0fb98H
	DW	030H
	DW	011cH
	DW	0189H
	DW	0fe7aH
	DW	0fe5dH
	DW	0fd81H
	DW	0ff8cH
	DW	0fc72H
	DW	0132H
	DW	013cH
	DW	0fff3H
	DW	04b7H
	DW	03d8H
	DW	0335H
	DW	029dH
	DW	0fb55H
	DW	0fd4bH
	DW	08cH
	DW	0ff2bH
	DW	0fc8cH
	DW	0fe60H
	DW	0ff39H
	DW	0fdd2H
	DW	0fd98H
	DW	0f5H
	DW	0fe6cH
	DW	0fd68H
	DW	0106H
	DW	038H
	DW	0fd97H
	DW	0fd2cH
	DW	0ffabH
	DW	0fe15H
	DW	0fec0H
	DW	0fd70H
	DW	0fdc6H
	DW	0fcc1H
	DW	0ff7fH
	DW	0fdf0H
	DW	0fa1eH
	DW	0ffc1H
	DW	0fe91H
	DW	0fe7fH
	DW	0fe9aH
	DW	0febfH
	DW	04H
	DW	033H
	DW	0fe92H
	DW	0ff2aH
	DW	013fH
	DW	01ffH
	DW	092H
	DW	029fH
	DW	0ffefH
	DW	0feddH
	DW	0ff92H
	DW	01d0H
	DW	0ff75H
	DW	0fe10H
	DW	0ff36H
	DW	0dcH
	DW	0fec8H
	DW	0fd89H
	DW	0fd6cH
	DW	0ffb7H
	DW	0fd71H
	DW	0fcccH
	DW	0fd6aH
	DW	0fd73H
	DW	0faf8H
	DW	0fca7H
	DW	0fe52H
	DW	0fc47H
	DW	0fc41H
	DW	0fef8H
	DW	0ffcfH
	DW	0fe2cH
	DW	0ffb8H
	DW	0fe83H
	DW	0fea2H
	DW	0fdcdH
	DW	0ff3fH
	DW	0fe69H
	DW	037H
	DW	0fe68H
	DW	0fcddH
	DW	0bH
	DW	0fecbH
	DW	0289H
	DW	0bcH
	DW	0ff3aH
	DW	0fe00H
	DW	01cdH
	DW	0ffb1H
	DW	0fe36H
	DW	0fadaH
	DW	0fef9H
	DW	0ff7aH
	DW	0fdf5H
	DW	0f987H
	DW	0fe4dH
	DW	0fe11H
	DW	0fd03H
	DW	039H
	DW	0fea5H
	DW	0fe62H
	DW	01b2H
	DW	0fb8bH
	DW	0ff0eH
	DW	0fd68H
	DW	0fca7H
	DW	022H
	DW	0ffbcH
	DW	0fd3dH
	DW	0feaeH
_mr795_1_lsf DW	0fc86H
	DW	0f9f2H
	DW	0f613H
	DW	0fccdH
	DW	0fc36H
	DW	0afH
	DW	0fcc6H
	DW	0fb2eH
	DW	0fd06H
	DW	0fda9H
	DW	0ffeaH
	DW	027aH
	DW	0fcd5H
	DW	0fc25H
	DW	0fc7aH
	DW	0febdH
	DW	0cbH
	DW	01aH
	DW	0fe81H
	DW	0ff15H
	DW	0fcf3H
	DW	0fe71H
	DW	04eeH
	DW	038aH
	DW	0fc5cH
	DW	0fa89H
	DW	0fa9cH
	DW	0fd90H
	DW	05dH
	DW	057H
	DW	0fe62H
	DW	0fde5H
	DW	0fd4dH
	DW	025H
	DW	0279H
	DW	01feH
	DW	0fe7dH
	DW	0fe24H
	DW	0faceH
	DW	018fH
	DW	042H
	DW	0107H
	DW	0fe69H
	DW	0ffcfH
	DW	0feb1H
	DW	0fe5fH
	DW	0411H
	DW	0749H
	DW	0fcf5H
	DW	0fbbfH
	DW	0fa60H
	DW	0fd16H
	DW	0fca6H
	DW	0340H
	DW	0fdbbH
	DW	0fd09H
	DW	0fe8dH
	DW	0fd5fH
	DW	0fe06H
	DW	0828H
	DW	0fdd0H
	DW	0fd86H
	DW	0fb65H
	DW	010fH
	DW	0f1H
	DW	0eH
	DW	0fe4aH
	DW	0ff0cH
	DW	0fe73H
	DW	01cfH
	DW	04b2H
	DW	0417H
	DW	0fda2H
	DW	0fce3H
	DW	0fa62H
	DW	0ffcdH
	DW	0febdH
	DW	01e1H
	DW	0ff20H
	DW	0fdb8H
	DW	0fdf1H
	DW	01eeH
	DW	0371H
	DW	02aaH
	DW	0fe4fH
	DW	0feceH
	DW	0fc16H
	DW	022aH
	DW	0293H
	DW	0deH
	DW	0abH
	DW	0ff60H
	DW	0fe9fH
	DW	02a9H
	DW	0706H
	DW	061dH
	DW	0fcacH
	DW	0fb63H
	DW	0f961H
	DW	0feb0H
	DW	0fd66H
	DW	072H
	DW	0fdbbH
	DW	0fd0cH
	DW	0fd18H
	DW	0ff3dH
	DW	0177H
	DW	01f1H
	DW	0fe2fH
	DW	0fcdcH
	DW	0fbb6H
	DW	09aH
	DW	011aH
	DW	0ff7dH
	DW	0ffceH
	DW	0ff41H
	DW	0fd31H
	DW	0143H
	DW	02dcH
	DW	0606H
	DW	0fd2eH
	DW	0fccdH
	DW	0fa84H
	DW	069H
	DW	0ff06H
	DW	0b9H
	DW	0ff4eH
	DW	0fe0aH
	DW	0fd1aH
	DW	0141H
	DW	01feH
	DW	0457H
	DW	0febdH
	DW	0fdc9H
	DW	0fc3aH
	DW	07fH
	DW	01e4H
	DW	0152H
	DW	0ff60H
	DW	034H
	DW	0feaeH
	DW	02dcH
	DW	0557H
	DW	0612H
	DW	0fd8eH
	DW	0fcdeH
	DW	0f960H
	DW	0fee2H
	DW	0fdb6H
	DW	02a4H
	DW	0fd49H
	DW	0fea9H
	DW	0fe8eH
	DW	0fe16H
	DW	0127H
	DW	0765H
	DW	0fd8aH
	DW	0fdc2H
	DW	0fc0aH
	DW	0ffb0H
	DW	0285H
	DW	0ffbbH
	DW	0fffaH
	DW	0fec2H
	DW	0fe94H
	DW	030eH
	DW	05aaH
	DW	040eH
	DW	0fec7H
	DW	0fd23H
	DW	0fa8dH
	DW	078H
	DW	03cH
	DW	01ddH
	DW	0fef8H
	DW	0fdb7H
	DW	0ff85H
	DW	02c7H
	DW	04ddH
	DW	0279H
	DW	0ffa5H
	DW	0fe9dH
	DW	0fc08H
	DW	0303H
	DW	02f6H
	DW	0105H
	DW	0fdH
	DW	051H
	DW	0fe26H
	DW	03a2H
	DW	08a7H
	DW	06b8H
	DW	0fcd8H
	DW	0fbb5H
	DW	0f87bH
	DW	0fdd0H
	DW	0fcf2H
	DW	0a9H
	DW	0fcdcH
	DW	0fbceH
	DW	0ff44H
	DW	0fd8eH
	DW	0ffc9H
	DW	057dH
	DW	0fd4aH
	DW	0fd34H
	DW	0fb56H
	DW	0fd6cH
	DW	0162H
	DW	0149H
	DW	0fdfeH
	DW	0ffc9H
	DW	0fde1H
	DW	016eH
	DW	0409H
	DW	049eH
	DW	0fd6eH
	DW	0fc41H
	DW	0fab3H
	DW	0ffc9H
	DW	0ff48H
	DW	05dH
	DW	0fda3H
	DW	0fee2H
	DW	0fd6aH
	DW	0194H
	DW	01c1H
	DW	033bH
	DW	0fee2H
	DW	0fea2H
	DW	0fb11H
	DW	0274H
	DW	0132H
	DW	0e3H
	DW	0fff0H
	DW	093H
	DW	0fd91H
	DW	0baH
	DW	039bH
	DW	0862H
	DW	0fd5eH
	DW	0fc86H
	DW	0f9baH
	DW	0fe45H
	DW	0ff1cH
	DW	0153H
	DW	0fe8fH
	DW	0fceaH
	DW	0fe67H
	DW	0e7H
	DW	056H
	DW	05bdH
	DW	0fe40H
	DW	0fdbbH
	DW	0fbdbH
	DW	0252H
	DW	01c2H
	DW	0ff4fH
	DW	0ff84H
	DW	0ff56H
	DW	0fe41H
	DW	029fH
	DW	0487H
	DW	057cH
	DW	0fe24H
	DW	0fd65H
	DW	0fa19H
	DW	0ffb3H
	DW	0ff76H
	DW	02ccH
	DW	0ff4fH
	DW	0fe8cH
	DW	0fe83H
	DW	01c3H
	DW	03a6H
	DW	0393H
	DW	0ff06H
	DW	0fe50H
	DW	0fccaH
	DW	0110H
	DW	033cH
	DW	01beH
	DW	01aH
	DW	013H
	DW	0ffe1H
	DW	02baH
	DW	069cH
	DW	0878H
	DW	0fd7aH
	DW	0fc2fH
	DW	0f87cH
	DW	0ff4dH
	DW	0fe27H
	DW	010cH
	DW	0fe85H
	DW	0fd17H
	DW	0fd4dH
	DW	0bH
	DW	07fH
	DW	0409H
	DW	0fe18H
	DW	0fc6bH
	DW	0fcc7H
	DW	03dH
	DW	0143H
	DW	087H
	DW	093H
	DW	0ff6fH
	DW	0fd52H
	DW	02adH
	DW	0312H
	DW	0692H
	DW	0fe06H
	DW	0fcb0H
	DW	0faefH
	DW	023H
	DW	05aH
	DW	0deH
	DW	0ffe9H
	DW	0fea6H
	DW	0fd62H
	DW	01c7H
	DW	024fH
	DW	0507H
	DW	0ff35H
	DW	0fdafH
	DW	0fbc2H
	DW	028cH
	DW	0160H
	DW	01b5H
	DW	027H
	DW	03fH
	DW	0fe37H
	DW	0349H
	DW	04f1H
	DW	0839H
	DW	0fdf8H
	DW	0fc8eH
	DW	0f9d0H
	DW	0feb8H
	DW	0fd39H
	DW	058dH
	DW	0fdacH
	DW	0feaaH
	DW	0ffbaH
	DW	0d1H
	DW	0adH
	DW	0788H
	DW	0fe59H
	DW	0fdaaH
	DW	0fc67H
	DW	01a5H
	DW	025dH
	DW	0ffdaH
	DW	0fffeH
	DW	0ff0bH
	DW	0ff81H
	DW	0380H
	DW	07b1H
	DW	046fH
	DW	0fe85H
	DW	0fdfaH
	DW	0f9d5H
	DW	0adH
	DW	076H
	DW	02f1H
	DW	0ffc9H
	DW	0fe83H
	DW	0ffccH
	DW	03d9H
	DW	03fdH
	DW	02f1H
	DW	0fffeH
	DW	0feddH
	DW	0fc85H
	DW	02f1H
	DW	03e0H
	DW	01a7H
	DW	0108H
	DW	083H
	DW	0ff3cH
	DW	037fH
	DW	08e2H
	DW	09efH
	DW	0fd85H
	DW	0fbc0H
	DW	0f63dH
	DW	0fdefH
	DW	0fc2aH
	DW	020eH
	DW	0fd04H
	DW	0fcc2H
	DW	0fddcH
	DW	0fe4cH
	DW	013cH
	DW	0257H
	DW	0fd5dH
	DW	0fc54H
	DW	0fd16H
	DW	0ffc7H
	DW	0ecH
	DW	0fff5H
	DW	0ff37H
	DW	0ffafH
	DW	0fce2H
	DW	010H
	DW	034dH
	DW	0616H
	DW	0fd1fH
	DW	0fc27H
	DW	0fb44H
	DW	0fe2cH
	DW	011H
	DW	0122H
	DW	0fee9H
	DW	0fdb8H
	DW	0fd44H
	DW	0b7H
	DW	0336H
	DW	02c1H
	DW	0fef7H
	DW	0fe14H
	DW	0fb5dH
	DW	01a5H
	DW	098H
	DW	01d4H
	DW	0fe7aH
	DW	0a6H
	DW	0fef4H
	DW	027H
	DW	060eH
	DW	074cH
	DW	0fd85H
	DW	0fc3aH
	DW	0f9ddH
	DW	0fe3bH
	DW	0fe14H
	DW	038eH
	DW	0fee4H
	DW	0fbfdH
	DW	0ffb5H
	DW	0ff4bH
	DW	0ff7bH
	DW	073cH
	DW	0fe43H
	DW	0fd90H
	DW	0fb6aH
	DW	01a4H
	DW	016fH
	DW	0ffcfH
	DW	0fe7bH
	DW	0ff2cH
	DW	0ff57H
	DW	02c3H
	DW	0431H
	DW	04b8H
	DW	0fde5H
	DW	0fd3aH
	DW	0fa57H
	DW	053H
	DW	0ff5dH
	DW	01e4H
	DW	0ff14H
	DW	0fde1H
	DW	0fe9dH
	DW	0152H
	DW	0497H
	DW	032eH
	DW	0ff0aH
	DW	0fecbH
	DW	0fc42H
	DW	025eH
	DW	02f8H
	DW	03cH
	DW	0a6H
	DW	0fff8H
	DW	0ff5dH
	DW	0feceH
	DW	0739H
	DW	0a03H
	DW	0fd15H
	DW	0fbffH
	DW	0f909H
	DW	0fe5dH
	DW	0fe42H
	DW	0d1H
	DW	0fd32H
	DW	0fdcaH
	DW	0fdeaH
	DW	0fe06H
	DW	02b5H
	DW	0359H
	DW	0fe31H
	DW	0fd47H
	DW	0fbc6H
	DW	0145H
	DW	01afH
	DW	0ff32H
	DW	0fff1H
	DW	0fff8H
	DW	0fd05H
	DW	0221H
	DW	0397H
	DW	05eeH
	DW	0fd9dH
	DW	0fcf1H
	DW	0fadfH
	DW	0100H
	DW	0ffc9H
	DW	0d0H
	DW	0ff5bH
	DW	0fea4H
	DW	0fd6aH
	DW	0141H
	DW	02a8H
	DW	03a2H
	DW	0febaH
	DW	0fe53H
	DW	0fc49H
	DW	01e4H
	DW	01beH
	DW	023aH
	DW	0ff3bH
	DW	048H
	DW	0ffb7H
	DW	038dH
	DW	05afH
	DW	06cdH
	DW	0fdcdH
	DW	0fd1fH
	DW	0f84aH
	DW	0ff84H
	DW	0fe60H
	DW	02ceH
	DW	0fe22H
	DW	0fe6cH
	DW	0fec6H
	DW	0fff0H
	DW	01beH
	DW	0664H
	DW	0fdd9H
	DW	0fde7H
	DW	0fd12H
	DW	0ffc6H
	DW	027eH
	DW	0d6H
	DW	037H
	DW	0ff47H
	DW	0fef1H
	DW	047cH
	DW	0515H
	DW	04bcH
	DW	0fe1dH
	DW	0fd61H
	DW	0fb10H
	DW	075H
	DW	011dH
	DW	021fH
	DW	0ff34H
	DW	0fe79H
	DW	0ff91H
	DW	0201H
	DW	0602H
	DW	0356H
	DW	0ff8eH
	DW	0ff42H
	DW	0fc2eH
	DW	036dH
	DW	0253H
	DW	01d0H
	DW	0104H
	DW	0104H
	DW	0fec9H
	DW	02ecH
	DW	08ebH
	DW	08a8H
	DW	0fdfbH
	DW	0fc4fH
	DW	0f785H
	DW	0febaH
	DW	0fd3cH
	DW	017aH
	DW	0fcd4H
	DW	0fd4dH
	DW	0ff18H
	DW	0fdd0H
	DW	02afH
	DW	0581H
	DW	0fd24H
	DW	0fd4eH
	DW	0fcbcH
	DW	0fe99H
	DW	0285H
	DW	0182H
	DW	0fef7H
	DW	03eH
	DW	0fd5aH
	DW	091H
	DW	066cH
	DW	04b8H
	DW	0fdd5H
	DW	0fc24H
	DW	0fb2fH
	DW	0ffb2H
	DW	0eH
	DW	072H
	DW	0feb9H
	DW	0fe9aH
	DW	0fe17H
	DW	0188H
	DW	02a5H
	DW	02b9H
	DW	0ff37H
	DW	0ff14H
	DW	0fb8cH
	DW	02b5H
	DW	01c1H
	DW	0b2H
	DW	0ff0dH
	DW	0100H
	DW	0fe4fH
	DW	0263H
	DW	0569H
	DW	0998H
	DW	0fd9cH
	DW	0fc7bH
	DW	0fa48H
	DW	0fecdH
	DW	0ffefH
	DW	01f3H
	DW	0fec5H
	DW	0fd65H
	DW	0ff02H
	DW	0100H
	DW	01acH
	DW	05b7H
	DW	0fe1aH
	DW	0fe5aH
	DW	0fbe0H
	DW	028fH
	DW	0172H
	DW	012H
	DW	0ff9aH
	DW	0ff47H
	DW	0feecH
	DW	02f3H
	DW	062aH
	DW	0537H
	DW	0fe18H
	DW	0fda5H
	DW	0fa76H
	DW	0b6H
	DW	0ffa3H
	DW	0366H
	DW	0ffb7H
	DW	0fe36H
	DW	0fea4H
	DW	0343H
	DW	035eH
	DW	03bdH
	DW	0fee6H
	DW	0feb3H
	DW	0fd16H
	DW	0223H
	DW	0347H
	DW	01acH
	DW	0111H
	DW	0ffa7H
	DW	0dH
	DW	03acH
	DW	06acH
	DW	0a10H
	DW	0fe5eH
	DW	0fbc4H
	DW	0f922H
	DW	0ffd4H
	DW	0fe9aH
	DW	0103H
	DW	0fe0fH
	DW	0fd7dH
	DW	0fdd0H
	DW	063H
	DW	022dH
	DW	03c1H
	DW	0fe5bH
	DW	0fd02H
	DW	0fc6bH
	DW	0127H
	DW	0146H
	DW	0b8H
	DW	0afH
	DW	0fH
	DW	0fd8eH
	DW	0214H
	DW	036eH
	DW	07bdH
	DW	0fe45H
	DW	0fd00H
	DW	0fb05H
	DW	0ddH
	DW	09cH
	DW	010cH
	DW	027H
	DW	0fe95H
	DW	0fe07H
	DW	02b7H
	DW	0304H
	DW	0474H
	DW	0ff5eH
	DW	0fe35H
	DW	0fc70H
	DW	02c5H
	DW	01bcH
	DW	0292H
	DW	019H
	DW	012fH
	DW	0fec8H
	DW	04f4H
	DW	0582H
	DW	06b3H
	DW	0fed7H
	DW	0fd02H
	DW	0f8d4H
	DW	0fef9H
	DW	0ff94H
	DW	042eH
	DW	0fe6aH
	DW	0fff3H
	DW	0ff7fH
	DW	039H
	DW	01b6H
	DW	0aaeH
	DW	0fe8aH
	DW	0fe19H
	DW	0fcbdH
	DW	0130H
	DW	02b8H
	DW	0a4H
	DW	068H
	DW	0ff15H
	DW	05H
	DW	064bH
	DW	076cH
	DW	0577H
	DW	0ff1bH
	DW	0fdbaH
	DW	0fad3H
	DW	0195H
	DW	0c0H
	DW	0331H
	DW	0ffa9H
	DW	0fe4aH
	DW	06fH
	DW	0404H
	DW	04afH
	DW	03e1H
	DW	044H
	DW	0ff51H
	DW	0fc5aH
	DW	0409H
	DW	045dH
	DW	01c3H
	DW	01deH
	DW	0c8H
	DW	0ff08H
	DW	084fH
	DW	0a88H
	DW	07faH
	DW	0fcbdH
	DW	0fad5H
	DW	0f7adH
	DW	0fce1H
	DW	0fd4cH
	DW	01d2H
	DW	0fcd4H
	DW	0fbf8H
	DW	0fe2bH
	DW	0fd92H
	DW	0120H
	DW	0398H
	DW	0fd43H
	DW	0fcb7H
	DW	0fbd2H
	DW	0fe65H
	DW	0200H
	DW	08H
	DW	0fe7aH
	DW	0ffa5H
	DW	0fd18H
	DW	0ffe2H
	DW	0413H
	DW	0489H
	DW	0fccaH
	DW	0fb84H
	DW	0fb7cH
	DW	0fedaH
	DW	0ffd2H
	DW	06eH
	DW	0fe65H
	DW	0fe8aH
	DW	0fd5aH
	DW	0d6H
	DW	0213H
	DW	029cH
	DW	0fe6aH
	DW	0fe5cH
	DW	0fb56H
	DW	01e7H
	DW	0e8H
	DW	012fH
	DW	0fec2H
	DW	05bH
	DW	0fe28H
	DW	07bH
	DW	04d0H
	DW	098dH
	DW	0fd2eH
	DW	0fc48H
	DW	0fa29H
	DW	0fd1eH
	DW	0fd5dH
	DW	0534H
	DW	0fde1H
	DW	0fda2H
	DW	0ff2dH
	DW	0ffa1H
	DW	0ff9eH
	DW	05e4H
	DW	0fddbH
	DW	0fdfeH
	DW	0fb57H
	DW	01d9H
	DW	0d3H
	DW	049H
	DW	0fee0H
	DW	0ff90H
	DW	0fe7bH
	DW	0219H
	DW	0534H
	DW	04eaH
	DW	0fdc9H
	DW	0fd0dH
	DW	0f9f7H
	DW	047H
	DW	0fee5H
	DW	0278H
	DW	0ff56H
	DW	0fe1fH
	DW	0fe13H
	DW	02a9H
	DW	03eaH
	DW	0331H
	DW	0fe9cH
	DW	0feb5H
	DW	0fc93H
	DW	01a3H
	DW	02c2H
	DW	015aH
	DW	0f1H
	DW	0ffdeH
	DW	0febaH
	DW	0179H
	DW	079eH
	DW	075bH
	DW	0fd29H
	DW	0fbcdH
	DW	0f9a7H
	DW	0ff17H
	DW	0fde1H
	DW	074H
	DW	0fdf4H
	DW	0fcdaH
	DW	0fdb7H
	DW	0ffb7H
	DW	01deH
	DW	02d9H
	DW	0fee0H
	DW	0fc63H
	DW	0fb89H
	DW	0adH
	DW	01bfH
	DW	0ffccH
	DW	044H
	DW	0ff1bH
	DW	0fda2H
	DW	01c1H
	DW	0211H
	DW	0705H
	DW	0fdb1H
	DW	0fc95H
	DW	0faadH
	DW	0b7H
	DW	0ff70H
	DW	0144H
	DW	0ff99H
	DW	0fe3cH
	DW	0fd66H
	DW	026fH
	DW	01e8H
	DW	0498H
	DW	0ff12H
	DW	0fe01H
	DW	0fc14H
	DW	0146H
	DW	0228H
	DW	01caH
	DW	088H
	DW	06cH
	DW	0fec1H
	DW	0272H
	DW	053fH
	DW	075bH
	DW	0fe16H
	DW	0fd7aH
	DW	0f93eH
	DW	0ff46H
	DW	0fe3fH
	DW	03d8H
	DW	0fd1eH
	DW	0ffb4H
	DW	0ff56H
	DW	0fddaH
	DW	02f3H
	DW	0a00H
	DW	0fe10H
	DW	0fe02H
	DW	0fc4dH
	DW	0d2H
	DW	02b6H
	DW	0ffccH
	DW	054H
	DW	0febeH
	DW	0ff39H
	DW	0442H
	DW	0659H
	DW	04c8H
	DW	0fe88H
	DW	0fda5H
	DW	0fa8cH
	DW	0157H
	DW	04aH
	DW	0278H
	DW	0ff51H
	DW	0fe0aH
	DW	0ffe0H
	DW	03ccH
	DW	0534H
	DW	02deH
	DW	034H
	DW	0fed9H
	DW	0fba7H
	DW	0429H
	DW	0396H
	DW	0a0H
	DW	0189H
	DW	06bH
	DW	0fe73H
	DW	04beH
	DW	0a59H
	DW	06cdH
	DW	0fd88H
	DW	0fb4fH
	DW	0f89dH
	DW	0fd31H
	DW	0feebH
	DW	0161H
	DW	0fd75H
	DW	0fc90H
	DW	0ff86H
	DW	0ff2dH
	DW	0d1H
	DW	053aH
	DW	0fdceH
	DW	0fd36H
	DW	0fbddH
	DW	0ff30H
	DW	0184H
	DW	09fH
	DW	0fec0H
	DW	0ffc3H
	DW	0fdd9H
	DW	0125H
	DW	0444H
	DW	05a3H
	DW	0fd78H
	DW	0fc9fH
	DW	0fb1bH
	DW	0ffcfH
	DW	0ff71H
	DW	0131H
	DW	0fe6fH
	DW	0ff1dH
	DW	0fdb7H
	DW	0231H
	DW	0214H
	DW	039fH
	DW	0ff8bH
	DW	0fe45H
	DW	0fb5cH
	DW	01fbH
	DW	01b4H
	DW	0124H
	DW	0ffb1H
	DW	0e9H
	DW	0fe36H
	DW	029fH
	DW	0401H
	DW	095cH
	DW	0fd87H
	DW	0fcb6H
	DW	0fa0bH
	DW	0feccH
	DW	0fee2H
	DW	0280H
	DW	0fe8bH
	DW	0fd93H
	DW	0fe69H
	DW	01a2H
	DW	0fdH
	DW	0519H
	DW	0fec5H
	DW	0fdbbH
	DW	0fb8fH
	DW	023cH
	DW	02adH
	DW	0fee7H
	DW	03dH
	DW	0ffbcH
	DW	0fe8dH
	DW	03dfH
	DW	044dH
	DW	05daH
	DW	0fe13H
	DW	0fd55H
	DW	0faaeH
	DW	0ffd1H
	DW	0a4H
	DW	02c0H
	DW	0ff00H
	DW	0fec6H
	DW	0fef4H
	DW	0277H
	DW	03b5H
	DW	041cH
	DW	0ff8aH
	DW	0fea4H
	DW	0fcbfH
	DW	044H
	DW	049cH
	DW	0238H
	DW	098H
	DW	075H
	DW	022H
	DW	0459H
	DW	076eH
	DW	08bfH
	DW	0fda7H
	DW	0fc41H
	DW	0f956H
	DW	0ff71H
	DW	0fe17H
	DW	01e0H
	DW	0feb4H
	DW	0fd71H
	DW	0fdc2H
	DW	036H
	DW	0161H
	DW	04a8H
	DW	0fe32H
	DW	0fd74H
	DW	0fce4H
	DW	096H
	DW	0225H
	DW	070H
	DW	0c3H
	DW	0ff91H
	DW	0fdfdH
	DW	02a7H
	DW	0454H
	DW	066fH
	DW	0fdd2H
	DW	0fd13H
	DW	0fb3fH
	DW	0fff7H
	DW	0110H
	DW	0155H
	DW	0ffcbH
	DW	0fef7H
	DW	0fde9H
	DW	01e9H
	DW	034bH
	DW	0512H
	DW	0ff88H
	DW	0fe1eH
	DW	0fbf8H
	DW	0278H
	DW	021fH
	DW	0198H
	DW	0b3H
	DW	0132H
	DW	0fdf2H
	DW	0464H
	DW	05b8H
	DW	08c4H
	DW	0fe5fH
	DW	0fceeH
	DW	0f9e6H
	DW	0ff20H
	DW	0fe80H
	DW	0554H
	DW	0fe87H
	DW	0fe35H
	DW	0ffe7H
	DW	0181H
	DW	01e9H
	DW	087eH
	DW	0feb4H
	DW	0fd75H
	DW	0fcc3H
	DW	0220H
	DW	0229H
	DW	03dH
	DW	016H
	DW	0ff8fH
	DW	0ffa7H
	DW	0468H
	DW	06bdH
	DW	05f4H
	DW	0ff28H
	DW	0fe8bH
	DW	0f98bH
	DW	0a1H
	DW	013cH
	DW	038cH
	DW	0ff5bH
	DW	0ff22H
	DW	0ffbdH
	DW	0552H
	DW	0497H
	DW	0315H
	DW	049H
	DW	0ff04H
	DW	0fd01H
	DW	02e2H
	DW	03a4H
	DW	0268H
	DW	016aH
	DW	0f6H
	DW	0ff82H
	DW	0313H
	DW	0a5eH
	DW	0bd3H
	DW	0fd4dH
	DW	0fbaeH
	DW	0f772H
	DW	0fdcbH
	DW	0fdb4H
	DW	020cH
	DW	0fdb2H
	DW	0fc2dH
	DW	0fe16H
	DW	0fef9H
	DW	018dH
	DW	03d6H
	DW	0fdbfH
	DW	0fcbbH
	DW	0fc4fH
	DW	0ffeaH
	DW	01b3H
	DW	0ffcfH
	DW	0ff42H
	DW	0ff8aH
	DW	0fd8bH
	DW	0ffa8H
	DW	04d8H
	DW	05e9H
	DW	0fd84H
	DW	0fbe5H
	DW	0fc05H
	DW	0feddH
	DW	0bdH
	DW	0103H
	DW	0feffH
	DW	0fe2aH
	DW	0fd8bH
	DW	091H
	DW	03b1H
	DW	037eH
	DW	0febaH
	DW	0fe94H
	DW	0fbbaH
	DW	021fH
	DW	0104H
	DW	0276H
	DW	0ff36H
	DW	0bdH
	DW	0ff2fH
	DW	0165H
	DW	0563H
	DW	082bH
	DW	0fdc7H
	DW	0fbcdH
	DW	0fa57H
	DW	0fd36H
	DW	0ff11H
	DW	0397H
	DW	0fe5cH
	DW	0fd3fH
	DW	0ffacH
	DW	0ff93H
	DW	0ff8eH
	DW	0967H
	DW	0fe63H
	DW	0fdefH
	DW	0fb67H
	DW	01e2H
	DW	0170H
	DW	083H
	DW	0ff46H
	DW	0ffb8H
	DW	0ff7dH
	DW	035dH
	DW	04e7H
	DW	04c4H
	DW	0fd9dH
	DW	0fd6eH
	DW	0fac3H
	DW	0e3H
	DW	0ff87H
	DW	0277H
	DW	0ff50H
	DW	0fe17H
	DW	0ff26H
	DW	02e9H
	DW	0497H
	DW	03bdH
	DW	0febfH
	DW	0ff6cH
	DW	0fc58H
	DW	029fH
	DW	03c6H
	DW	0d8H
	DW	0154H
	DW	0fffdH
	DW	0ff71H
	DW	01d5H
	DW	0738H
	DW	0985H
	DW	0fd27H
	DW	0fc3fH
	DW	0f96dH
	DW	0ff2bH
	DW	0ff02H
	DW	0141H
	DW	0fe01H
	DW	0fe4aH
	DW	0fdf7H
	DW	0ff82H
	DW	02d5H
	DW	0387H
	DW	0feacH
	DW	0fd53H
	DW	0fbf8H
	DW	013cH
	DW	01e0H
	DW	014H
	DW	017H
	DW	0ffa7H
	DW	0fdd9H
	DW	0161H
	DW	041bH
	DW	06fdH
	DW	0fde0H
	DW	0fd0bH
	DW	0faacH
	DW	012aH
	DW	0ffe7H
	DW	01b4H
	DW	0ff9cH
	DW	0fe78H
	DW	0fdf9H
	DW	01d3H
	DW	02f2H
	DW	0436H
	DW	0ff2eH
	DW	0fe72H
	DW	0fbcaH
	DW	026cH
	DW	0292H
	DW	0276H
	DW	021H
	DW	093H
	DW	0ff4eH
	DW	0399H
	DW	0697H
	DW	0781H
	DW	0febbH
	DW	0fdf0H
	DW	0f846H
	DW	02H
	DW	0fee3H
	DW	038eH
	DW	0fe8dH
	DW	0fe16H
	DW	0ff1aH
	DW	00H
	DW	0255H
	DW	07daH
	DW	0fe10H
	DW	0fe75H
	DW	0fcbeH
	DW	025H
	DW	03b1H
	DW	0f5H
	DW	0b5H
	DW	0ff60H
	DW	0ff70H
	DW	05c9H
	DW	055dH
	DW	054dH
	DW	0fe9dH
	DW	0fda7H
	DW	0fb0aH
	DW	012aH
	DW	0142H
	DW	02a0H
	DW	0ff3fH
	DW	0feb0H
	DW	04dH
	DW	0441H
	DW	05fdH
	DW	039aH
	DW	0b1H
	DW	0ffd9H
	DW	0fb9bH
	DW	03e4H
	DW	030dH
	DW	0218H
	DW	01c8H
	DW	016eH
	DW	0fe50H
	DW	0587H
	DW	0988H
	DW	08e7H
	DW	0fe2eH
	DW	0fd0aH
	DW	0f6ebH
	DW	0fed1H
	DW	0fe03H
	DW	0183H
	DW	0fd29H
	DW	0fdd3H
	DW	042H
	DW	0ff6fH
	DW	0283H
	DW	04e0H
	DW	0fde0H
	DW	0fd5cH
	DW	0fc6cH
	DW	0ff1fH
	DW	035eH
	DW	024cH
	DW	0ff68H
	DW	028H
	DW	0fdebH
	DW	01a7H
	DW	058fH
	DW	0616H
	DW	0fdc4H
	DW	0fcb5H
	DW	0fb87H
	DW	0ff80H
	DW	055H
	DW	01cdH
	DW	0ff12H
	DW	0feffH
	DW	0fdb8H
	DW	025dH
	DW	02ecH
	DW	035dH
	DW	018H
	DW	0ff36H
	DW	0fa7fH
	DW	031dH
	DW	01e7H
	DW	012fH
	DW	0ff4bH
	DW	016cH
	DW	0ff4aH
	DW	0268H
	DW	0562H
	DW	0b7eH
	DW	0fe12H
	DW	0fcacH
	DW	0fa5fH
	DW	0fedcH
	DW	03dH
	DW	032cH
	DW	0ffacH
	DW	0fd2dH
	DW	0ff4aH
	DW	022bH
	DW	0214H
	DW	05e2H
	DW	0fe93H
	DW	0fe13H
	DW	0fbdfH
	DW	0336H
	DW	024cH
	DW	0bH
	DW	0fff2H
	DW	0ffeeH
	DW	0ff1aH
	DW	03e9H
	DW	0579H
	DW	05abH
	DW	0fe26H
	DW	0fdc7H
	DW	0faf4H
	DW	012eH
	DW	03eH
	DW	0426H
	DW	0ffbaH
	DW	0fe88H
	DW	0ff22H
	DW	03d6H
	DW	03ceH
	DW	047dH
	DW	0ff3cH
	DW	0ff16H
	DW	0fce5H
	DW	01dfH
	DW	044aH
	DW	01f3H
	DW	016aH
	DW	03aH
	DW	046H
	DW	047bH
	DW	0815H
	DW	0b29H
	DW	0fe19H
	DW	0fc92H
	DW	0f8e0H
	DW	049H
	DW	0fee0H
	DW	015cH
	DW	0fe9aH
	DW	0fe0cH
	DW	0fe04H
	DW	0c7H
	DW	02d1H
	DW	04daH
	DW	0ffb2H
	DW	0fd47H
	DW	0fce5H
	DW	0169H
	DW	0218H
	DW	0c4H
	DW	0176H
	DW	06eH
	DW	0fd21H
	DW	034fH
	DW	041bH
	DW	0768H
	DW	0fe92H
	DW	0fd37H
	DW	0fb62H
	DW	013bH
	DW	0140H
	DW	01adH
	DW	048H
	DW	0ff29H
	DW	0fe3eH
	DW	02f7H
	DW	0376H
	DW	0553H
	DW	0ffe2H
	DW	0fe54H
	DW	0fcbeH
	DW	035dH
	DW	0273H
	DW	031cH
	DW	076H
	DW	01d4H
	DW	0fee9H
	DW	054bH
	DW	075bH
	DW	0765H
	DW	0ff44H
	DW	0fd7eH
	DW	0f9b4H
	DW	03fH
	DW	0ff51H
	DW	04aeH
	DW	0fe5eH
	DW	0ff2dH
	DW	033H
	DW	019eH
	DW	024bH
	DW	0a29H
	DW	0ff16H
	DW	0fdd3H
	DW	0fca6H
	DW	01a8H
	DW	0379H
	DW	0deH
	DW	088H
	DW	0ff9bH
	DW	053H
	DW	0585H
	DW	08e6H
	DW	0567H
	DW	0ffacH
	DW	0fe43H
	DW	0fa93H
	DW	019eH
	DW	0139H
	DW	0415H
	DW	01dH
	DW	0fea9H
	DW	041H
	DW	0610H
	DW	066fH
	DW	03d4H
	DW	0b7H
	DW	0ffa5H
	DW	0fcc3H
	DW	04f9H
	DW	0585H
	DW	0168H
	DW	0229H
	DW	0110H
	DW	0ff95H
	DW	0633H
	DW	0c4dH
	DW	0a2bH
_mr515_3_lsf DW	01a3H
	DW	0a3H
	DW	0ffe2H
	DW	0fefaH
	DW	0fe39H
	DW	0fcebH
	DW	0fa6aH
	DW	0fd2fH
	DW	03eeH
	DW	0298H
	DW	010dH
	DW	019H
	DW	026bH
	DW	0104H
	DW	0b7H
	DW	060H
	DW	0fc38H
	DW	0fab2H
	DW	0fe7cH
	DW	087H
	DW	0fd4bH
	DW	0343H
	DW	01c8H
	DW	09aH
	DW	0451H
	DW	02bfH
	DW	0239H
	DW	016bH
	DW	0659H
	DW	052eH
	DW	03d9H
	DW	02ecH
	DW	0ff24H
	DW	0dbH
	DW	04cH
	DW	0ff30H
	DW	0fa51H
	DW	0f982H
	DW	031H
	DW	095H
	DW	0fc3cH
	DW	0ff54H
	DW	0fd10H
	DW	0feb0H
	DW	0271H
	DW	0d1H
	DW	0ff06H
	DW	0ffbeH
	DW	0fc07H
	DW	0fcbaH
	DW	0fffeH
	DW	013dH
	DW	0f788H
	DW	0fa33H
	DW	0ff76H
	DW	07bH
	DW	0f8acH
	DW	0f7cdH
	DW	0fdf7H
	DW	055H
	DW	0fc39H
	DW	0fe92H
	DW	0fd49H
	DW	0fc8fH
	DW	0fc67H
	DW	0fc0dH
	DW	0fd05H
	DW	0fc4bH
	DW	0ff84H
	DW	0ff00H
	DW	0fea0H
	DW	0fd6cH
	DW	0b2H
	DW	01cfH
	DW	0162H
	DW	0130H
	DW	0f930H
	DW	0fdb1H
	DW	0fee6H
	DW	04fH
	DW	0f737H
	DW	0afH
	DW	0363H
	DW	01f3H
	DW	0ff76H
	DW	0ff4cH
	DW	0ff4bH
	DW	0ffebH
	DW	0f70dH
	DW	0fb27H
	DW	0fe34H
	DW	0fdf8H
	DW	0fcfdH
	DW	01c3H
	DW	0fff6H
	DW	0feccH
	DW	010fH
	DW	0ffbfH
	DW	04H
	DW	0d6H
	DW	0fee9H
	DW	0fe4dH
	DW	0ffd5H
	DW	0fea4H
	DW	0fd62H
	DW	023H
	DW	0ffbfH
	DW	0ff2dH
	DW	0326H
	DW	0217H
	DW	055H
	DW	0129H
	DW	039H
	DW	0efH
	DW	02d2H
	DW	01edH
	DW	0e1H
	DW	0295H
	DW	0348H
	DW	0223H
	DW	0fde4H
	DW	0fe88H
	DW	0eH
	DW	015dH
	DW	01d5H
	DW	02d1H
	DW	014bH
	DW	0a2H
	DW	0fde0H
	DW	0fd10H
	DW	0ffc2H
	DW	0fff6H
	DW	018eH
	DW	0ffa8H
	DW	02d4H
	DW	02bdH
	DW	0ffedH
	DW	0fdebH
	DW	0ffa2H
	DW	0259H
	DW	088H
	DW	0ffb9H
	DW	0fd57H
	DW	0fd15H
	DW	0ff5aH
	DW	0fea8H
	DW	0105H
	DW	0ffceH
	DW	0a1H
	DW	0ffccH
	DW	01e5H
	DW	0151H
	DW	0f975H
	DW	032H
	DW	0beH
	DW	0ffa3H
	DW	0f716H
	DW	0ff19H
	DW	0ff3eH
	DW	0ffaeH
	DW	0ffa1H
	DW	0fdadH
	DW	0ff66H
	DW	080H
	DW	037eH
	DW	01f5H
	DW	024cH
	DW	01c9H
	DW	0fea7H
	DW	0ceH
	DW	07aH
	DW	06eH
	DW	0fd89H
	DW	0ff1dH
	DW	0fdc7H
	DW	03H
	DW	0198H
	DW	0efH
	DW	018dH
	DW	0e2H
	DW	0ff3bH
	DW	0fffeH
	DW	080H
	DW	01ebH
	DW	0501H
	DW	0388H
	DW	0124H
	DW	0d7H
	DW	021aH
	DW	0132H
	DW	0103H
	DW	01fdH
	DW	0fd5bH
	DW	0fbe9H
	DW	0dH
	DW	0141H
	DW	0fd59H
	DW	0fdb4H
	DW	0fe9aH
	DW	0ff2cH
	DW	0fdd2H
	DW	0f3H
	DW	0286H
	DW	01dfH
	DW	01e6H
	DW	0156H
	DW	027aH
	DW	0214H
	DW	06bH
	DW	0322H
	DW	014bH
	DW	088H
	DW	0ff90H
	DW	0fe72H
	DW	0fbf9H
	DW	0fee2H
	DW	0febaH
	DW	0fd3fH
	DW	0120H
	DW	0110H
	DW	0513H
	DW	0478H
	DW	049aH
	DW	035cH
	DW	0fe59H
	DW	079H
	DW	0fe7fH
	DW	0ff6cH
	DW	0fed9H
	DW	0fed2H
	DW	0fcbeH
	DW	0fccdH
	DW	010H
	DW	0ffe8H
	DW	0ff37H
	DW	0fe24H
	DW	022bH
	DW	05bH
	DW	0ff0bH
	DW	0126H
	DW	0ffdaH
	DW	0fe85H
	DW	0fc3eH
	DW	0fb3bH
	DW	0fb59H
	DW	0fa12H
	DW	0feefH
	DW	0fe75H
	DW	0fe7aH
	DW	0fc0bH
	DW	0fd7bH
	DW	023dH
	DW	0f8cdH
	DW	0fbfaH
	DW	01f9H
	DW	01d4H
	DW	02e8H
	DW	03b3H
	DW	0261H
	DW	01edH
	DW	0fd4fH
	DW	0fb6cH
	DW	0fd8cH
	DW	0ff79H
	DW	0fbfeH
	DW	0c3H
	DW	019bH
	DW	0c4H
	DW	062eH
	DW	047bH
	DW	023fH
	DW	0151H
	DW	0fb29H
	DW	0fcf7H
	DW	0fd78H
	DW	0ff72H
	DW	0253H
	DW	0339H
	DW	03c7H
	DW	02dfH
	DW	0fb4aH
	DW	0fc36H
	DW	0ffafH
	DW	0feaaH
	DW	0fd17H
	DW	0dH
	DW	0ffb8H
	DW	0177H
	DW	01c6H
	DW	013H
	DW	057fH
	DW	0399H
	DW	0f991H
	DW	0ff54H
	DW	035dH
	DW	0232H
	DW	03a0H
	DW	0601H
	DW	0427H
	DW	02e4H
	DW	0f658H
	DW	0fc48H
	DW	0108H
	DW	052H
	DW	0fe0aH
	DW	0fc3bH
	DW	0facaH
	DW	07bH
	DW	0363H
	DW	04d4H
	DW	0216H
	DW	0abH
	DW	0f6f0H
	DW	0fe34H
	DW	030cH
	DW	016bH
	DW	0fb5aH
	DW	0fd97H
	DW	0fcH
	DW	0ffc3H
	DW	0ff52H
	DW	022H
	DW	03f3H
	DW	0314H
	DW	0f6e3H
	DW	0f7H
	DW	01a7H
	DW	099H
	DW	0fff0H
	DW	0fe9dH
	DW	0106H
	DW	01c1H
	DW	0f9d8H
	DW	0fbcfH
	DW	0fde0H
	DW	0fe8dH
	DW	0fd99H
	DW	0fecfH
	DW	041bH
	DW	0325H
	DW	02afH
	DW	0210H
	DW	06H
	DW	0ff4aH
	DW	03a7H
	DW	036bH
	DW	03eaH
	DW	0329H
	DW	0c7H
	DW	0101H
	DW	07eH
	DW	04cH
	DW	0fdb8H
	DW	0fb8eH
	DW	0257H
	DW	022cH
	DW	0fbafH
	DW	0fa91H
	DW	0f9c9H
	DW	0fdf9H
	DW	0fc2fH
	DW	0fad3H
	DW	06cH
	DW	015bH
	DW	0fd2eH
	DW	0fc31H
	DW	016dH
	DW	065H
	DW	0ff6fH
	DW	02a9H
	DW	0f9H
	DW	0ff67H
	DW	00H
	DW	0feb2H
	DW	0fdc6H
	DW	09fH
	DW	019cH
	DW	011dH
	DW	0feb0H
	DW	0fd97H
	DW	0fc47H
	DW	0fc3aH
	DW	0377H
	DW	02b1H
	DW	0fb1dH
	DW	054H
	DW	0ff47H
	DW	0fe72H
	DW	0fdb0H
	DW	01b1H
	DW	0414H
	DW	028dH
	DW	055H
	DW	0149H
	DW	0ffd8H
	DW	0169H
	DW	0fe4fH
	DW	0fd3fH
	DW	01d2H
	DW	023eH
	DW	0ff66H
	DW	028eH
	DW	0250H
	DW	0122H
	DW	0ff59H
	DW	048H
	DW	015dH
	DW	0afH
	DW	02a2H
	DW	0129H
	DW	03d1H
	DW	02d0H
	DW	04d3H
	DW	04b4H
	DW	02f5H
	DW	01e8H
	DW	0fe70H
	DW	0fef3H
	DW	021aH
	DW	0174H
	DW	0fabaH
	DW	0fa95H
	DW	0fb56H
	DW	0ffa5H
	DW	04eeH
	DW	036cH
	DW	0307H
	DW	02bcH
	DW	0fda9H
	DW	0ffdaH
	DW	0fe52H
	DW	0fd2eH
	DW	07b8H
	DW	065eH
	DW	03dfH
	DW	0260H
	DW	06fH
	DW	0114H
	DW	0ff1eH
	DW	0ffa0H
	DW	0fc4dH
	DW	0fe7cH
	DW	0fff5H
	DW	0fff9H
	DW	0fed1H
	DW	0fdedH
	DW	0fcb9H
	DW	0152H
	DW	06c6H
	DW	06aeH
	DW	057dH
	DW	03f5H
	DW	0fdfcH
	DW	0fca9H
	DW	0fd7bH
	DW	0d2H
	DW	0fd50H
	DW	0fe60H
	DW	0201H
	DW	0e6H
	DW	0fccaH
	DW	0fd83H
	DW	0fb86H
	DW	0fec0H
	DW	0fc48H
	DW	0fd6eH
	DW	0fd4aH
	DW	0b7H
	DW	0ff8eH
	DW	0fd91H
	DW	0332H
	DW	02a2H
	DW	0ff41H
	DW	0ff34H
	DW	02dbH
	DW	027bH
	DW	033H
	DW	04c5H
	DW	0373H
	DW	0240H
	DW	0fc46H
	DW	0fe51H
	DW	033aH
	DW	0256H
	DW	0feaaH
	DW	0fd0dH
	DW	0fc7cH
	DW	0fe69H
	DW	0fb9aH
	DW	0fe9eH
	DW	0ff32H
	DW	0fe00H
	DW	0fdddH
	DW	0fcd6H
	DW	0fe9bH
	DW	0fd94H
	DW	042H
	DW	0203H
	DW	0ffb7H
	DW	0fe66H
	DW	0fc98H
	DW	0fc4fH
	DW	0fa5cH
	DW	0fb35H
	DW	0bfH
	DW	0ffefH
	DW	0fde0H
	DW	0ff19H
	DW	0f9fcH
	DW	0fde0H
	DW	0fc7bH
	DW	0fc8aH
_dico2_lsf DW	032H
	DW	047H
	DW	0fff7H
	DW	0feaeH
	DW	0fd46H
	DW	0fa81H
	DW	066H
	DW	0ff76H
	DW	0fcccH
	DW	0fecaH
	DW	0fe2bH
	DW	0fb85H
	DW	019eH
	DW	043H
	DW	0fef5H
	DW	0424H
	DW	032eH
	DW	05a1H
	DW	060cH
	DW	0550H
	DW	04f8H
	DW	06daH
	DW	0767H
	DW	067dH
	DW	07e3H
	DW	0855H
	DW	071cH
	DW	0710H
	DW	090eH
	DW	0735H
	DW	0284H
	DW	0ffa3H
	DW	01c6H
	DW	035aH
	DW	0149H
	DW	0ff78H
	DW	01e9H
	DW	0fefeH
	DW	0ff80H
	DW	0ff3aH
	DW	0fd17H
	DW	0ffd7H
	DW	0ffccH
	DW	0fef7H
	DW	0fc27H
	DW	015aH
	DW	089H
	DW	01dfH
	DW	0f933H
	DW	0fd14H
	DW	0fd54H
	DW	0fb75H
	DW	0f943H
	DW	0fe91H
	DW	0fc81H
	DW	0fb87H
	DW	0fcf0H
	DW	0fe18H
	DW	0fc4eH
	DW	0fc38H
	DW	0ffabH
	DW	0fe7aH
	DW	0fd2bH
	DW	0d7H
	DW	0feacH
	DW	0ff55H
	DW	03fcH
	DW	0394H
	DW	07b1H
	DW	0234H
	DW	0b3H
	DW	02eaH
	DW	0296H
	DW	03d1H
	DW	06c6H
	DW	0377H
	DW	026eH
	DW	0392H
	DW	03abH
	DW	0358H
	DW	048dH
	DW	0135H
	DW	02b0H
	DW	0323H
	DW	0395H
	DW	0a1H
	DW	023aH
	DW	076H
	DW	0ffecH
	DW	0fee5H
	DW	0fcd0H
	DW	0ffd6H
	DW	0ccH
	DW	0fb34H
	DW	0febbH
	DW	0fe32H
	DW	0fc3dH
	DW	0ff36H
	DW	0ff71H
	DW	0fc24H
	DW	0fe1cH
	DW	0fe97H
	DW	0fd42H
	DW	0fc2eH
	DW	0fe23H
	DW	0fed2H
	DW	0fceaH
	DW	0fb5cH
	DW	0ff9cH
	DW	0fceeH
	DW	0fbc0H
	DW	0fbe2H
	DW	0fc4dH
	DW	0f96cH
	DW	0ff36H
	DW	0fcb5H
	DW	0fcf2H
	DW	0fbf1H
	DW	0fa9eH
	DW	0fc7bH
	DW	0fd90H
	DW	0ff92H
	DW	0ffabH
	DW	0164H
	DW	0d5H
	DW	0fff6H
	DW	0fe13H
	DW	016cH
	DW	0306H
	DW	01a9H
	DW	0336H
	DW	01dfH
	DW	0ffadH
	DW	022dH
	DW	0208H
	DW	0fc20H
	DW	0f9e8H
	DW	0fdc4H
	DW	0fda5H
	DW	0fd1bH
	DW	0ffe6H
	DW	0fe0aH
	DW	0fd82H
	DW	0fc79H
	DW	0d1H
	DW	0132H
	DW	093H
	DW	0fec4H
	DW	0fdafH
	DW	0fdacH
	DW	0ffabH
	DW	0ff2dH
	DW	0ff1fH
	DW	0fc6aH
	DW	0fdefH
	DW	075H
	DW	0e9H
	DW	0fe49H
	DW	0fd1eH
	DW	044dH
	DW	02efH
	DW	0279H
	DW	05b1H
	DW	06b4H
	DW	05e7H
	DW	06e5H
	DW	05b1H
	DW	038eH
	DW	0462H
	DW	0484H
	DW	0351H
	DW	054aH
	DW	0364H
	DW	01d6H
	DW	0fc99H
	DW	0fb82H
	DW	0f8fcH
	DW	0fc99H
	DW	0fca3H
	DW	0fc20H
	DW	0ff8aH
	DW	09bH
	DW	0d4H
	DW	0fbe5H
	DW	0fcafH
	DW	0fda2H
	DW	0fba3H
	DW	0f8c7H
	DW	0f542H
	DW	0fc05H
	DW	0fa6dH
	DW	0f8b3H
	DW	0172H
	DW	0ff48H
	DW	0fe62H
	DW	03bfH
	DW	01edH
	DW	068H
	DW	03beH
	DW	040fH
	DW	021fH
	DW	09aH
	DW	028dH
	DW	0c9H
	DW	04e1H
	DW	01fbH
	DW	096H
	DW	0297H
	DW	01f7H
	DW	0e6H
	DW	026fH
	DW	0309H
	DW	02a3H
	DW	0293H
	DW	058H
	DW	0ff92H
	DW	034bH
	DW	0f4H
	DW	0e0H
	DW	017eH
	DW	021dH
	DW	012eH
	DW	02d4H
	DW	01b1H
	DW	029aH
	DW	048eH
	DW	02deH
	DW	0155H
	DW	0ff76H
	DW	014H
	DW	0fe73H
	DW	0fb61H
	DW	0fe58H
	DW	0ffd2H
	DW	0febfH
	DW	0fea0H
	DW	0ff84H
	DW	0535H
	DW	03fdH
	DW	0438H
	DW	0106H
	DW	016eH
	DW	02d3H
	DW	039aH
	DW	011bH
	DW	0fdd9H
	DW	01fH
	DW	0fd84H
	DW	0fd9dH
	DW	0fd4fH
	DW	0fd47H
	DW	0fe61H
	DW	0fc48H
	DW	0fcf5H
	DW	0ff37H
	DW	0facfH
	DW	0fdaaH
	DW	0fe99H
	DW	0fc47H
	DW	0fafbH
	DW	0a6H
	DW	01edH
	DW	0131H
	DW	0ddH
	DW	034eH
	DW	02bfH
	DW	0262H
	DW	0348H
	DW	03a8H
	DW	0306H
	DW	0fd2dH
	DW	0fad4H
	DW	0fb13H
	DW	0fe9bH
	DW	0fbffH
	DW	0fa94H
	DW	0fbb8H
	DW	0faa0H
	DW	0fe93H
	DW	0fa78H
	DW	0f8a7H
	DW	0fda0H
	DW	0f8faH
	DW	0f941H
	DW	0fd5eH
	DW	0fddfH
	DW	0fb6bH
	DW	0fd41H
	DW	02a6H
	DW	0312H
	DW	094H
	DW	0ff85H
	DW	02b8H
	DW	0508H
	DW	0284H
	DW	015eH
	DW	0fff6H
	DW	019eH
	DW	0266H
	DW	0fH
	DW	089H
	DW	0158H
	DW	0ff2dH
	DW	0fcd2H
	DW	0fa18H
	DW	0fccdH
	DW	0fe79H
	DW	0fc5eH
	DW	0fdb4H
	DW	02fH
	DW	0fdb1H
	DW	0fc7eH
	DW	0fc73H
	DW	0fbb7H
	DW	0ff5dH
	DW	0fb08H
	DW	0fb71H
	DW	0ff63H
	DW	0fa48H
	DW	0fa0bH
	DW	0fe7bH
	DW	0fb06H
	DW	0fb5cH
	DW	0fd90H
	DW	029fH
	DW	0d5H
	DW	01c6H
	DW	07cH
	DW	0feeeH
	DW	0fdf3H
	DW	0fd27H
	DW	0fe10H
	DW	0ff68H
	DW	0fac0H
	DW	07aH
	DW	087H
	DW	0f4a7H
	DW	0fdb3H
	DW	0fe76H
	DW	0f940H
	DW	01b9H
	DW	0ffceH
	DW	05c4H
	DW	0388H
	DW	0313H
	DW	013cH
	DW	0ecH
	DW	0fe48H
	DW	0fea5H
	DW	0d9H
	DW	019dH
	DW	0fc71H
	DW	0fc6bH
	DW	079H
	DW	0fe39H
	DW	0fc5cH
	DW	0caH
	DW	0ffa4H
	DW	0fe2fH
	DW	0fe89H
	DW	01e8H
	DW	0186H
	DW	01daH
	DW	036cH
	DW	02d9H
	DW	013cH
	DW	0f8e9H
	DW	0fae0H
	DW	0fd63H
	DW	057H
	DW	03c2H
	DW	01b0H
	DW	0233H
	DW	0ff07H
	DW	0fbdeH
	DW	0faH
	DW	011dH
	DW	0451H
	DW	0475H
	DW	01abH
	DW	02b8H
	DW	0fbf2H
	DW	0f980H
	DW	0f9d2H
	DW	0fc4cH
	DW	015aH
	DW	0a0H
	DW	0fecbH
	DW	0fef0H
	DW	0fca6H
	DW	029eH
	DW	0270H
	DW	04e2H
	DW	0fc50H
	DW	0fe68H
	DW	0fd66H
	DW	0fda2H
	DW	0fec0H
	DW	0fe80H
	DW	0fe14H
	DW	0e6H
	DW	041H
	DW	014eH
	DW	0ffceH
	DW	0fff0H
	DW	0fff0H
	DW	0fd4eH
	DW	0fa8bH
	DW	06ffH
	DW	06b4H
	DW	0577H
	DW	09aeH
	DW	080fH
	DW	057cH
	DW	04ddH
	DW	05bfH
	DW	0592H
	DW	0fe82H
	DW	0fbf3H
	DW	0fffeH
	DW	0adH
	DW	0fe72H
	DW	0479H
	DW	05d3H
	DW	07e8H
	DW	0709H
	DW	0304H
	DW	04faH
	DW	05e2H
	DW	0595H
	DW	06c7H
	DW	07d1H
	DW	0437H
	DW	04c2H
	DW	04f9H
	DW	0fb7eH
	DW	0f8c5H
	DW	0facfH
	DW	0fcd8H
	DW	0fb93H
	DW	0fbb8H
	DW	0fe3dH
	DW	0fbf7H
	DW	0f946H
	DW	041H
	DW	0242H
	DW	0ffacH
	DW	0fa3cH
	DW	0f67eH
	DW	0f90eH
	DW	0fd03H
	DW	0faaaH
	DW	0fe12H
	DW	0ff26H
	DW	0fdaeH
	DW	0fc5dH
	DW	0151H
	DW	0ff14H
	DW	0232H
	DW	0935H
	DW	0a66H
	DW	0792H
	DW	05d1H
	DW	04fcH
	DW	036aH
	DW	0bdH
	DW	0166H
	DW	0176H
	DW	0fa11H
	DW	0f717H
	DW	0f6d6H
	DW	0fc39H
	DW	0fb09H
	DW	0f7d1H
	DW	0fd8cH
	DW	0fb5cH
	DW	0f9faH
	DW	067dH
	DW	0413H
	DW	0222H
	DW	0235H
	DW	0425H
	DW	02dcH
	DW	0ffc0H
	DW	0fcbcH
	DW	0fe4eH
	DW	0fe4cH
	DW	0ffa0H
	DW	0cbH
	DW	0436H
	DW	04c0H
	DW	0664H
	DW	038bH
	DW	05feH
	DW	03daH
	DW	0146H
	DW	03c5H
	DW	034dH
	DW	08eH
	DW	0ffacH
	DW	0c5H
	DW	01d6H
	DW	094bH
	DW	0622H
	DW	046dH
	DW	01d6H
	DW	04beH
	DW	018bH
	DW	0560H
	DW	04b0H
	DW	0465H
	DW	0412H
	DW	015cH
	DW	0fde1H
	DW	0fb2eH
	DW	0fe88H
	DW	0ff29H
	DW	0ff4bH
	DW	01e1H
	DW	0f865H
	DW	0f9abH
	DW	0ff2eH
	DW	0fd12H
	DW	0fb5fH
	DW	0186H
	DW	01dH
	DW	0fe71H
	DW	01bH
	DW	0334H
	DW	04d4H
	DW	02f3H
	DW	02b7H
	DW	03d3H
	DW	0199H
	DW	0ff52H
	DW	04adH
	DW	040bH
	DW	0390H
	DW	054cH
	DW	0736H
	DW	0fc20H
	DW	0fa63H
	DW	01e4H
	DW	0fa33H
	DW	0f95cH
	DW	0d0H
	DW	0fe64H
	DW	04b4H
	DW	0598H
	DW	0fef1H
	DW	0380H
	DW	0478H
	DW	0fe60H
	DW	06f1H
	DW	059aH
	DW	0f960H
	DW	0f5acH
	DW	0ff34H
	DW	0f903H
	DW	0f9f1H
	DW	0409H
	DW	0f988H
	DW	0f9e9H
	DW	0517H
	DW	0fb1bH
	DW	0f9cbH
	DW	0439H
	DW	0fd63H
	DW	0fbb9H
	DW	0ffbeH
	DW	0fd56H
	DW	0140H
	DW	0fea7H
	DW	0293H
	DW	0131H
	DW	042dH
	DW	0faf4H
	DW	0fcdcH
	DW	0ffedH
	DW	0f99dH
	DW	0faf5H
	DW	01dH
	DW	0f96dH
	DW	0fe0fH
	DW	047H
	DW	0fee1H
	DW	0fff9H
	DW	0ff9cH
	DW	0fe12H
	DW	0fc3eH
	DW	0ff13H
	DW	0354H
	DW	0759H
	DW	06ccH
	DW	0fb3fH
	DW	0fa95H
	DW	0e3H
	DW	0fd6cH
	DW	012eH
	DW	0175H
	DW	060H
	DW	043fH
	DW	04e9H
	DW	0fbceH
	DW	0f97bH
	DW	0a0H
	DW	01e5H
	DW	081cH
	DW	0706H
	DW	0fc5aH
	DW	0ff24H
	DW	0228H
	DW	0fdacH
	DW	0fd9cH
	DW	0edH
	DW	0150H
	DW	06b8H
	DW	036fH
	DW	0283H
	DW	0275H
	DW	01b2H
	DW	04f3H
	DW	020aH
	DW	0661H
	DW	0fH
	DW	0f4H
	DW	0fe47H
	DW	05c3H
	DW	02cdH
	DW	0b8H
	DW	071bH
	DW	0636H
	DW	06adH
	DW	03dcH
	DW	0105H
	DW	03a9H
	DW	082dH
	DW	0929H
	DW	05f0H
	DW	085bH
	DW	0742H
	DW	0646H
	DW	0fdbfH
	DW	0fdbdH
	DW	0fb4dH
	DW	0fc44H
	DW	087H
	DW	0fe18H
	DW	0fe30H
	DW	033H
	DW	0feaeH
	DW	0fd8bH
	DW	0fea4H
	DW	0fd2dH
	DW	047aH
	DW	0819H
	DW	05a2H
	DW	0890H
	DW	05baH
	DW	038fH
	DW	0fa5cH
	DW	0f9dcH
	DW	0f71aH
	DW	0578H
	DW	02c6H
	DW	0511H
	DW	0537H
	DW	0279H
	DW	03a0H
	DW	059aH
	DW	0892H
	DW	0a22H
	DW	0976H
	DW	089cH
	DW	0759H
	DW	03d6H
	DW	08c2H
	DW	073eH
	DW	017cH
	DW	0318H
	DW	0479H
	DW	0ffc1H
	DW	0fde5H
	DW	019eH
	DW	0ff04H
	DW	0fc3cH
	DW	0fec6H
	DW	0fb13H
	DW	0fd55H
	DW	0fcf4H
	DW	0fcc1H
	DW	0fdf2H
	DW	0fc13H
	DW	0f97eH
	DW	0fb91H
	DW	0fe58H
	DW	0f9b5H
	DW	0fe3cH
	DW	0fed5H
	DW	04f4H
	DW	0418H
	DW	0282H
	DW	047bH
	DW	0355H
	DW	0358H
	DW	0fd5dH
	DW	0feb0H
	DW	08bH
	DW	08dcH
	DW	053fH
	DW	058aH
	DW	01dH
	DW	0300H
	DW	031dH
	DW	0fb38H
	DW	01a7H
	DW	0234H
	DW	0fadaH
	DW	0fbc6H
	DW	0f5H
	DW	0faeaH
	DW	0fcd4H
	DW	023dH
	DW	0faeeH
	DW	0f9afH
	DW	0286H
	DW	0fc38H
	DW	0342H
	DW	02d3H
	DW	03e1H
	DW	0674H
	DW	07ebH
	DW	0ff41H
	DW	0fccfH
	DW	01b0H
	DW	0296H
	DW	03cH
	DW	0c6H
	DW	0272H
	DW	03e5H
	DW	0532H
	DW	0670H
	DW	07abH
	DW	0509H
	DW	0f9c3H
	DW	0ffa3H
	DW	0ffd3H
	DW	0fbc0H
	DW	025H
	DW	0ffacH
	DW	0675H
	DW	0a2fH
	DW	0921H
	DW	0429H
	DW	07f8H
	DW	0949H
	DW	0473H
	DW	0916H
	DW	0846H
	DW	035bH
	DW	0165H
	DW	05e6H
	DW	0298H
	DW	04cbH
	DW	044bH
	DW	01dfH
	DW	0550H
	DW	0390H
	DW	0769H
	DW	06daH
	DW	07e3H
	DW	0490H
	DW	0775H
	DW	06f8H
	DW	018fH
	DW	022H
	DW	0100H
	DW	0fdafH
	DW	0fed0H
	DW	0fbe3H
	DW	0223H
	DW	069eH
	DW	057fH
	DW	0287H
	DW	0ff9dH
	DW	0feabH
	DW	05d4H
	DW	066fH
	DW	04a6H
	DW	026H
	DW	0fd7cH
	DW	0ff2cH
	DW	018bH
	DW	034eH
	DW	0deH
	DW	0fd40H
	DW	0fd03H
	DW	0fd34H
	DW	0fd2cH
	DW	0f854H
	DW	0f50cH
	DW	0ff6aH
	DW	0123H
	DW	0ffaeH
	DW	04d1H
	DW	05b3H
	DW	03efH
	DW	0ff74H
	DW	0ff65H
	DW	099H
	DW	01b7H
	DW	0129H
	DW	0620H
	DW	0fa07H
	DW	0fe66H
	DW	0fd84H
	DW	0600H
	DW	01c7H
	DW	0ff13H
	DW	0fad0H
	DW	0ff75H
	DW	0fefcH
	DW	0213H
	DW	022aH
	DW	0364H
	DW	010dH
	DW	04f0H
	DW	025eH
	DW	0ff17H
	DW	0373H
	DW	01cfH
	DW	02e6H
	DW	0258H
	DW	0ff88H
	DW	0ffb7H
	DW	01a5H
	DW	0d4H
	DW	0fe49H
	DW	0ffc6H
	DW	0324H
	DW	0fafaH
	DW	0fb27H
	DW	02d8H
	DW	0126H
	DW	0fe16H
	DW	032H
	DW	0fdb1H
	DW	0fc77H
	DW	0fb1aH
	DW	02aH
	DW	0fd51H
	DW	093H
	DW	0ffe7H
	DW	0111H
	DW	0254H
	DW	0fec9H
	DW	04bdH
	DW	0259H
	DW	0fd0eH
	DW	0351H
	DW	0248H
	DW	01adH
	DW	025fH
	DW	024bH
	DW	0fda6H
	DW	0ff5aH
	DW	01cdH
	DW	0fce4H
	DW	0fcc9H
	DW	0309H
	DW	0564H
	DW	038eH
	DW	06dbH
	DW	077H
	DW	0589H
	DW	03ccH
	DW	0ff25H
	DW	0fc90H
	DW	0f9c4H
	DW	0fbe7H
	DW	0fc0eH
	DW	01b6H
	DW	0fd37H
	DW	0fa9dH
	DW	04eH
	DW	00H
	DW	0fe41H
	DW	0fb65H
	DW	0fb90H
	DW	0fad9H
	DW	0f9dbH
	DW	08c8H
	DW	06e7H
	DW	051dH
	DW	03b2H
	DW	062fH
	DW	0598H
	DW	047eH
	DW	01e2H
	DW	01b4H
	DW	0fe2bH
	DW	0fbacH
	DW	026aH
	DW	0fe41H
	DW	0fc3aH
	DW	0440H
	DW	0fb1cH
	DW	0fa15H
	DW	0ff8eH
	DW	0fbb0H
	DW	0f828H
	DW	0fdbdH
	DW	0d2H
	DW	0265H
	DW	01f1H
	DW	0f849H
	DW	0fa63H
	DW	0282H
	DW	0fb0bH
	DW	0fca8H
	DW	03f3H
	DW	0f992H
	DW	0fb5fH
	DW	0427H
	DW	0f9edH
	DW	0fd60H
	DW	04b4H
	DW	0f964H
	DW	0fba6H
	DW	026fH
	DW	0fc2dH
	DW	0fad2H
	DW	0fb03H
	DW	021bH
	DW	0ff6dH
	DW	037eH
	DW	0fab6H
	DW	0fc7fH
	DW	0fe4eH
	DW	0378H
	DW	01dbH
	DW	01acH
	DW	099H
	DW	0fe80H
	DW	0152H
	DW	0fa2cH
	DW	0fe01H
	DW	0167H
	DW	0fc32H
	DW	0fba5H
	DW	0fe2aH
	DW	069H
	DW	0fddaH
	DW	02a5H
	DW	0fc57H
	DW	0fb87H
	DW	036dH
	DW	017cH
	DW	0fefcH
	DW	0d2H
	DW	0695H
	DW	039cH
	DW	04e8H
	DW	06efH
	DW	04a6H
	DW	0447H
	DW	058bH
	DW	0277H
	DW	0215H
	DW	0273H
	DW	012bH
	DW	0fea5H
	DW	0fe65H
	DW	0fdeaH
	DW	0287H
	DW	0fd76H
	DW	01dH
	DW	0fdadH
	DW	0fe86H
	DW	0faa9H
	DW	061bH
	DW	057aH
	DW	0461H
	DW	05b9H
	DW	0441H
	DW	0582H
	DW	0288H
	DW	0f7d0H
	DW	0fbbeH
	DW	0fffaH
	DW	0137H
	DW	0ff3eH
	DW	0fc9bH
	DW	0fd81H
	DW	0fcc1H
	DW	01a0H
	DW	0fb76H
	DW	0fb38H
	DW	0545H
	DW	0fb21H
	DW	0fc53H
	DW	0715H
	DW	0f76fH
	DW	0f83dH
	DW	01c5H
	DW	0fd95H
	DW	0faa9H
	DW	0fc44H
	DW	0f9baH
	DW	0f84cH
	DW	0fa1dH
	DW	0fb69H
	DW	0fbdfH
	DW	0fbb0H
	DW	0fe87H
	DW	0259H
	DW	0c9H
	DW	0754H
	DW	0339H
	DW	0176H
	DW	0fe52H
	DW	0fad5H
	DW	01dH
	DW	0fa8bH
	DW	0fb1fH
	DW	0facdH
	DW	0fc11H
	DW	0fa20H
	DW	03c0H
	DW	0fa87H
	DW	0f827H
	DW	0c5H
	DW	0fa9dH
	DW	0f863H
	DW	0ff14H
	DW	0fbcbH
	DW	07bH
	DW	01a6H
	DW	0267H
	DW	04f5H
	DW	0222H
	DW	0feceH
	DW	05f6H
	DW	0388H
	DW	04aaH
	DW	06fcH
	DW	0499H
	DW	0fd8eH
	DW	0fc8cH
	DW	0fa0aH
	DW	0c7H
	DW	02feH
	DW	05e0H
	DW	0fbd7H
	DW	035eH
	DW	0c5H
	DW	0fbf6H
	DW	0f913H
	DW	0fc89H
	DW	0fce0H
	DW	091H
	DW	0257H
	DW	0fb92H
	DW	0fdf9H
	DW	0272H
	DW	0fb4bH
	DW	0f87aH
	DW	01f4H
	DW	0fc72H
	DW	0fbefH
	DW	0fa8dH
	DW	0fa3cH
	DW	0f9e1H
	DW	0fc37H
	DW	0fdf5H
	DW	034aH
	DW	022H
	DW	0702H
	DW	0286H
	DW	035eH
	DW	0fb49H
	DW	0f8a0H
	DW	0fc16H
	DW	0ffb2H
	DW	0fff7H
	DW	0fd60H
	DW	0414H
	DW	02f7H
	DW	050H
	DW	0fda8H
	DW	0473H
	DW	03fbH
	DW	039H
	DW	07d0H
	DW	058eH
	DW	0fcbfH
	DW	0586H
	DW	0461H
	DW	0fb4eH
	DW	065eH
	DW	04ecH
	DW	0fe33H
	DW	058cH
	DW	04dcH
	DW	0601H
	DW	03cfH
	DW	0fdH
	DW	0fee5H
	DW	0144H
	DW	0fe99H
	DW	0257H
	DW	0ff3dH
	DW	06aH
	DW	024cH
	DW	03eH
	DW	0fdb5H
	DW	0fd0bH
	DW	0285H
	DW	0cdH
	DW	033H
	DW	04b1H
	DW	02f6H
	DW	0fb47H
	DW	02a1H
	DW	0fe7aH
	DW	0fd90H
	DW	062dH
	DW	03adH
	DW	0ff69H
	DW	03ffH
	DW	02dfH
	DW	0b04H
	DW	0515H
	DW	02b2H
	DW	0fed2H
	DW	020cH
	DW	0ff9dH
	DW	0fc7cH
	DW	0f9ccH
	DW	0fb5bH
	DW	043cH
	DW	0fbH
	DW	0eeH
	DW	07deH
	DW	0700H
	DW	03f2H
	DW	04ddH
	DW	0661H
	DW	06cdH
	DW	0fb35H
	DW	0f9fcH
	DW	0fb48H
	DW	0fd93H
	DW	01c8H
	DW	0ff93H
	DW	028H
	DW	0ffbfH
	DW	0314H
	DW	0fcdbH
	DW	0fd45H
	DW	0fabaH
	DW	0fdb9H
	DW	0388H
	DW	0340H
	DW	0fcdfH
	DW	0214H
	DW	0252H
	DW	07b4H
	DW	0580H
	DW	0547H
	DW	0fb67H
	DW	0f8a8H
	DW	0f7beH
	DW	0fcfbH
	DW	0238H
	DW	03b4H
	DW	0fc09H
	DW	0437H
	DW	04ecH
	DW	0fba9H
	DW	01e2H
	DW	0ff7eH
	DW	06f2H
	DW	0414H
	DW	030cH
	DW	0fa2dH
	DW	0f5H
	DW	0390H
	DW	0fec4H
	DW	0fb8bH
	DW	0fc6bH
	DW	0fde8H
	DW	0fa5eH
	DW	0f6d6H
	DW	0fcefH
	DW	0f9f6H
	DW	0f83cH
	DW	0f82dH
	DW	0101H
	DW	038dH
	DW	0f8c7H
	DW	0fd87H
	DW	0fb47H
	DW	0f9feH
	DW	0f882H
	DW	0fbe2H
	DW	0646H
	DW	08bfH
	DW	0628H
	DW	0fdc9H
	DW	0fa24H
	DW	0f9f8H
	DW	0fb01H
	DW	0c3H
	DW	0559H
	DW	0fccfH
	DW	0125H
	DW	04c3H
	DW	0fdf3H
	DW	0276H
	DW	04adH
	DW	0f95eH
	DW	0f687H
	DW	0f8d0H
	DW	0fed1H
	DW	02dbH
	DW	02ebH
	DW	0fb6fH
	DW	0ff05H
	DW	010dH
	DW	0fc4aH
	DW	0ffb5H
	DW	0694H
	DW	0fb62H
	DW	0fe3bH
	DW	03edH
	DW	0f9c1H
	DW	0249H
	DW	017aH
	DW	0f7e5H
	DW	0fdc5H
	DW	0fe55H
	DW	0fdefH
	DW	0fb79H
	DW	0fb6dH
	DW	0fee5H
	DW	0ff33H
	DW	0fdccH
	DW	0fce4H
	DW	04deH
	DW	02cdH
	DW	08e5H
	DW	039fH
	DW	021bH
	DW	0fe3aH
	DW	022fH
	DW	01b8H
	DW	0fd33H
	DW	05b4H
	DW	064fH
	DW	0fbfaH
	DW	041cH
	DW	064aH
	DW	0fb6fH
	DW	0ff76H
	DW	034fH
	DW	0e2H
	DW	027H
	DW	0fd9cH
	DW	0fb1dH
	DW	0ff96H
	DW	0fd27H
	DW	0fd75H
	DW	03c8H
	DW	0516H
	DW	0fd36H
	DW	0fd84H
	DW	06bfH
	DW	0161H
	DW	042dH
	DW	019aH
	DW	0fce2H
	DW	0ff64H
	DW	044bH
	DW	0fdc2H
	DW	0396H
	DW	01beH
	DW	0fae2H
	DW	03f4H
	DW	01d2H
	DW	0580H
	DW	0637H
	DW	02fdH
	DW	0595H
	DW	0564H
	DW	06ddH
	DW	079dH
	DW	07a4H
	DW	094aH
	DW	062aH
	DW	07ffH
	DW	0864H
	DW	0394H
	DW	062H
	DW	0fff9H
	DW	0765H
	DW	058aH
	DW	085dH
	DW	015cH
	DW	057dH
	DW	062bH
	DW	098H
	DW	046eH
	DW	0709H
	DW	0fef5H
	DW	09aH
	DW	0573H
	DW	0fb72H
	DW	01d5H
	DW	041eH
	DW	0fb8aH
	DW	0fe6bH
	DW	0fbcfH
	DW	0fac3H
	DW	0f728H
	DW	0f9d3H
	DW	0fe94H
	DW	0365H
	DW	06aaH
	DW	0fb76H
	DW	0225H
	DW	060eH
	DW	0fb37H
	DW	0f874H
	DW	0f97eH
	DW	0fa33H
	DW	0f847H
	DW	0f7f9H
	DW	0f941H
	DW	0fc76H
	DW	0ff9eH
	DW	0f897H
	DW	0e9H
	DW	05d4H
	DW	037cH
	DW	06cH
	DW	0feb5H
	DW	0f940H
	DW	0fb6eH
	DW	0f95cH
	DW	0fbdcH
	DW	07bcH
	DW	06feH
	DW	0fbd2H
	DW	0f933H
	DW	0f88bH
	DW	0fff5H
	DW	0603H
	DW	0525H
	DW	0f9c0H
	DW	05eH
	DW	01f1H
	DW	01a5H
	DW	01bbH
	DW	0ff3bH
	DW	0f9d6H
	DW	0fea3H
	DW	0fc1eH
	DW	0fda9H
	DW	0fde5H
	DW	0474H
	DW	0fc3bH
	DW	0fa75H
	DW	0ff7fH
	DW	0fac3H
	DW	0afH
	DW	0fe41H
	DW	0fe89H
	DW	051fH
	DW	0807H
	DW	0fe8dH
	DW	0fd76H
	DW	0fecdH
	DW	0fbcfH
	DW	025dH
	DW	016dH
	DW	0f7f7H
	DW	0ff8fH
	DW	01aeH
	DW	028cH
	DW	0392H
	DW	03c7H
	DW	0fc0cH
	DW	0f9ceH
	DW	0f6edH
	DW	05e1H
	DW	04e0H
	DW	022fH
	DW	0106H
	DW	0fe1aH
	DW	0fe6fH
	DW	0f941H
	DW	053eH
	DW	060aH
	DW	032H
	DW	038H
	DW	01b0H
	DW	0feb6H
	DW	077H
	DW	0fda4H
	DW	0fa13H
	DW	0fbc8H
	DW	0fcd6H
	DW	03b2H
	DW	0467H
	DW	041fH
	DW	0fa88H
	DW	0f959H
	DW	0f950H
	DW	0fb0aH
	DW	0fd40H
	DW	0fadbH
	DW	0327H
	DW	071dH
	DW	0477H
	DW	0ac8H
	DW	0646H
	DW	087bH
	DW	0460H
	DW	0199H
	DW	0ff6aH
	DW	0ff6dH
	DW	0194H
	DW	03bfH
	DW	0987H
	DW	0777H
	DW	088dH
	DW	0fc76H
	DW	0ff73H
	DW	0fc9eH
	DW	0fc78H
	DW	0ff72H
	DW	0fe36H
	DW	0fdd3H
	DW	0fd3cH
	DW	0f971H
	DW	0fcc2H
	DW	0fa69H
	DW	0f9d1H
	DW	0f8ceH
	DW	0fabeH
	DW	0fbc2H
	DW	0f9bcH
	DW	0fef0H
	DW	0393H
	DW	0fb54H
	DW	0304H
	DW	0420H
	DW	0fd82H
	DW	0fb2eH
	DW	0f897H
	DW	0fe0cH
	DW	0ffafH
	DW	0fccaH
	DW	0faf7H
	DW	0f9b3H
	DW	0fd21H
	DW	0ff8bH
	DW	0311H
	DW	0a8H
	DW	0fbbeH
	DW	046dH
	DW	039aH
	DW	0fbb8H
	DW	0fd16H
	DW	0568H
	DW	011fH
	DW	0fdddH
	DW	0fbd9H
	DW	0faa0H
	DW	0f767H
	DW	0fb4cH
	DW	0f780H
	DW	0f9deH
	DW	0f923H
	DW	0fa19H
	DW	0f73fH
	DW	0fcfdH
	DW	0f937H
	DW	044bH
	DW	033eH
	DW	0f9ccH
	DW	02d4H
	DW	04dbH
	DW	0f9faH
	DW	02b5H
	DW	0325H
	DW	0f966H
	DW	0ff10H
	DW	0681H
	DW	0f95cH
	DW	0fffcH
	DW	0fd64H
	DW	0865H
	DW	0330H
	DW	0412H
	DW	0fcceH
	DW	0f8cfH
	DW	016H
	DW	0fd04H
	DW	0fe05H
	DW	01c1H
	DW	0fb81H
	DW	0fd97H
	DW	0121H
	DW	0fcb5H
	DW	0f9c4H
	DW	0ff10H
	DW	01f2H
	DW	0ff16H
	DW	0fd6fH
	DW	0fd10H
	DW	01e0H
	DW	068eH
	DW	0fec1H
	DW	0fe1fH
	DW	0c1H
	DW	0fcd5H
	DW	0abH
	DW	0ff89H
	DW	0f7b0H
	DW	0ff36H
	DW	0fcb0H
	DW	06b5H
	DW	0474H
	DW	06a4H
_past_rq_init DW 0fefeH
	DW	0fec2H
	DW	0fe49H
	DW	0fd86H
	DW	0fd70H
	DW	0fcfbH
	DW	0fd39H
	DW	0fe0aH
	DW	0fef4H
	DW	0ff3fH
	DW	0fffeH
	DW	07dH
	DW	07aH
	DW	0ffd9H
	DW	0fff7H
	DW	069H
	DW	081H
	DW	011bH
	DW	0174H
	DW	023fH
	DW	0feebH
	DW	0febcH
	DW	0ff3bH
	DW	0fe19H
	DW	0fe43H
	DW	0fe96H
	DW	0fedcH
	DW	0ffe5H
	DW	0b1H
	DW	021fH
	DW	0156H
	DW	0205H
	DW	0204H
	DW	082H
	DW	01bH
	DW	0ff98H
	DW	0ff88H
	DW	0ff74H
	DW	0ffb6H
	DW	0ffc8H
	DW	0fdccH
	DW	0fc51H
	DW	0fa10H
	DW	0fc3bH
	DW	0fcd2H
	DW	0fdf2H
	DW	0febeH
	DW	0fffeH
	DW	09fH
	DW	0291H
	DW	0fec8H
	DW	0fee4H
	DW	0fe7eH
	DW	0fdabH
	DW	0fe13H
	DW	0fdf2H
	DW	0fe5eH
	DW	0ff1bH
	DW	069H
	DW	01c1H
	DW	0fdd3H
	DW	0fc9aH
	DW	0fbcdH
	DW	0fc69H
	DW	0fc4aH
	DW	0fd10H
	DW	0fd3bH
	DW	0fec4H
	DW	03eH
	DW	01e6H
	DW	0fec6H
	DW	0ff41H
	DW	0ff35H
	DW	0feb6H
	DW	0ff60H
	DW	0ff99H
	DW	0ffcdH
	DW	083H
	DW	0152H
	DW	0203H
_dico1_lsf DW	06H
	DW	052H
	DW	0ff7dH
	DW	09aH
	DW	0ffc8H
	DW	0fd21H
	DW	0b7H
	DW	0ffbfH
	DW	0fef7H
	DW	09H
	DW	0ff2eH
	DW	0fe97H
	DW	071H
	DW	02ceH
	DW	0719H
	DW	03f2H
	DW	04beH
	DW	0625H
	DW	0359H
	DW	0535H
	DW	08e4H
	DW	033bH
	DW	0620H
	DW	078dH
	DW	02cdH
	DW	07c5H
	DW	089eH
	DW	0346H
	DW	0494H
	DW	071fH
	DW	02d1H
	DW	03e8H
	DW	086aH
	DW	011eH
	DW	01dcH
	DW	05e5H
	DW	0ff09H
	DW	0fdedH
	DW	0e6H
	DW	093H
	DW	0ffaeH
	DW	0239H
	DW	01aH
	DW	0ff4fH
	DW	0fc50H
	DW	0ffe5H
	DW	0feefH
	DW	02b4H
	DW	0ff5cH
	DW	0fef8H
	DW	0ff49H
	DW	0e0H
	DW	0316H
	DW	040fH
	DW	0383H
	DW	03b2H
	DW	0259H
	DW	01e5H
	DW	0303H
	DW	047eH
	DW	020cH
	DW	02a5H
	DW	0387H
	DW	0ff74H
	DW	0177H
	DW	030aH
	DW	019aH
	DW	02a4H
	DW	01adH
	DW	012dH
	DW	0212H
	DW	03f1H
	DW	02cfH
	DW	0286H
	DW	026H
	DW	0e2H
	DW	016fH
	DW	028H
	DW	091H
	DW	0ffd3H
	DW	0fe07H
	DW	0122H
	DW	079H
	DW	0ff87H
	DW	012eH
	DW	07fH
	DW	0a6H
	DW	0ff84H
	DW	0fe81H
	DW	0fc44H
	DW	0fe9aH
	DW	0fe39H
	DW	0fc2fH
	DW	02cbH
	DW	036eH
	DW	037eH
	DW	03d2H
	DW	039bH
	DW	0d3H
	DW	01ddH
	DW	0110H
	DW	040H
	DW	0bcH
	DW	0ffb2H
	DW	011H
	DW	0ff71H
	DW	0ffbfH
	DW	026H
	DW	0283H
	DW	024aH
	DW	026dH
	DW	0ff7aH
	DW	0fe56H
	DW	0fd75H
	DW	015bH
	DW	0221H
	DW	0b04H
	DW	04a4H
	DW	0aa6H
	DW	098aH
	DW	08eH
	DW	0ffb0H
	DW	06c7H
	DW	011bH
	DW	082H
	DW	01cdH
	DW	0fefaH
	DW	0fe71H
	DW	0fb87H
	DW	0fe65H
	DW	09bH
	DW	01aeH
	DW	0149H
	DW	0177H
	DW	030bH
	DW	035H
	DW	0ff1eH
	DW	0ff75H
	DW	0ff7fH
	DW	0ff14H
	DW	0692H
	DW	011dH
	DW	02e8H
	DW	052fH
	DW	02e2H
	DW	02b9H
	DW	0680H
	DW	0138H
	DW	0199H
	DW	010aH
	DW	0145H
	DW	02d0H
	DW	087H
	DW	01H
	DW	0ddH
	DW	01c5H
	DW	08H
	DW	0cbH
	DW	091H
	DW	012bH
	DW	0280H
	DW	02f8H
	DW	01dH
	DW	01d4H
	DW	027eH
	DW	067H
	DW	01adH
	DW	017bH
	DW	01a4H
	DW	03baH
	DW	03a4H
	DW	052eH
	DW	04baH
	DW	04eaH
	DW	02c0H
	DW	03f4H
	DW	0480H
	DW	0ff5aH
	DW	0fe44H
	DW	0fef6H
	DW	0fec4H
	DW	0ff7eH
	DW	0fe88H
	DW	0bfH
	DW	047fH
	DW	0770H
	DW	0ff10H
	DW	0fde1H
	DW	0fb14H
	DW	0ff90H
	DW	010cH
	DW	04b7H
	DW	046H
	DW	0426H
	DW	062fH
	DW	0116H
	DW	0550H
	DW	0626H
	DW	0fefeH
	DW	0fef0H
	DW	0fd00H
	DW	013H
	DW	0233H
	DW	08c0H
	DW	0fffdH
	DW	0fef7H
	DW	087H
	DW	0fed9H
	DW	0fdb1H
	DW	0fe7cH
	DW	08cH
	DW	0162H
	DW	0ff32H
	DW	0fefcH
	DW	0fe08H
	DW	0fce5H
	DW	0fe4fH
	DW	0fd32H
	DW	0fad9H
	DW	06dH
	DW	014bH
	DW	03c2H
	DW	0fe53H
	DW	0ffa9H
	DW	028cH
	DW	0fed8H
	DW	01aaH
	DW	03fbH
	DW	0ff11H
	DW	0307H
	DW	0353H
	DW	01e9H
	DW	0536H
	DW	0431H
	DW	0feb2H
	DW	0feb4H
	DW	019H
	DW	021fH
	DW	04b6H
	DW	070fH
	DW	0146H
	DW	03dH
	DW	02d7H
	DW	0242H
	DW	0351H
	DW	057dH
	DW	0ff30H
	DW	0feebH
	DW	0149H
	DW	0ff68H
	DW	040H
	DW	029dH
	DW	0fe4eH
	DW	0fd5aH
	DW	0fd29H
	DW	0fe3aH
	DW	0ffb9H
	DW	0fbH
	DW	025dH
	DW	01e0H
	DW	0feH
	DW	0fe1eH
	DW	0bH
	DW	03e4H
	DW	0fedfH
	DW	018bH
	DW	01e6H
	DW	02d2H
	DW	0419H
	DW	05a0H
	DW	0ffe2H
	DW	0fec4H
	DW	0fceeH
	DW	0ff96H
	DW	0ff8dH
	DW	0fd95H
	DW	035dH
	DW	05c2H
	DW	0584H
	DW	041fH
	DW	0556H
	DW	04a0H
	DW	032cH
	DW	04d5H
	DW	039dH
	DW	02aH
	DW	0ff05H
	DW	0fdc0H
	DW	0156H
	DW	08dH
	DW	0fe3aH
	DW	0ff58H
	DW	0ffb0H
	DW	054fH
	DW	0feaaH
	DW	0fd70H
	DW	0f91dH
	DW	064H
	DW	0335H
	DW	02d5H
	DW	03deH
	DW	02ebH
	DW	0320H
	DW	014cH
	DW	01b8H
	DW	0238H
	DW	0297H
	DW	017bH
	DW	0354H
	DW	070H
	DW	0a5H
	DW	0fe8fH
	DW	0255H
	DW	038eH
	DW	011aH
	DW	0fff8H
	DW	0342H
	DW	0501H
	DW	0fea0H
	DW	023cH
	DW	02b7H
	DW	01ceH
	DW	08c6H
	DW	070eH
	DW	0159H
	DW	0beH
	DW	055eH
	DW	01a0H
	DW	0393H
	DW	0876H
	DW	0a8H
	DW	0ffaeH
	DW	0118H
	DW	0fdfcH
	DW	0fe42H
	DW	0348H
	DW	02fH
	DW	0215H
	DW	02cH
	DW	0fe96H
	DW	0fd39H
	DW	0fb89H
	DW	016H
	DW	0c1H
	DW	05c0H
	DW	0ffabH
	DW	0e9H
	DW	0715H
	DW	0ffc2H
	DW	0243H
	DW	05e0H
	DW	0226H
	DW	03b0H
	DW	06d5H
	DW	02d3H
	DW	028aH
	DW	047cH
	DW	03ccH
	DW	0374H
	DW	0573H
	DW	0fe57H
	DW	0283H
	DW	00H
	DW	03e8H
	DW	03b8H
	DW	044aH
	DW	0f9H
	DW	05a6H
	DW	02a0H
	DW	0feb2H
	DW	0ffa9H
	DW	087cH
	DW	0fdd6H
	DW	075aH
	DW	0a70H
	DW	08cH
	DW	0722H
	DW	073dH
	DW	0398H
	DW	06d5H
	DW	0a1eH
	DW	0434H
	DW	078dH
	DW	07f6H
	DW	0ff77H
	DW	0fe45H
	DW	0f9edH
	DW	04f5H
	DW	0496H
	DW	01d4H
	DW	0fe13H
	DW	0ff86H
	DW	05f1H
	DW	0fe3dH
	DW	0409H
	DW	04beH
	DW	01e2H
	DW	069fH
	DW	045eH
	DW	032fH
	DW	0289H
	DW	0180H
	DW	0fe42H
	DW	0fd4cH
	DW	06bH
	DW	0fec1H
	DW	0fda3H
	DW	0ff8aH
	DW	0ff31H
	DW	0fe07H
	DW	020dH
	DW	0fe2cH
	DW	0fff4H
	DW	0ab0H
	DW	04bH
	DW	078eH
	DW	0519H
	DW	0370H
	DW	0936H
	DW	08dbH
	DW	0505H
	DW	0627H
	DW	07d4H
	DW	0ffd0H
	DW	0fed0H
	DW	0fb5eH
	DW	0fe4dH
	DW	0fe33H
	DW	0ff05H
	DW	0fe92H
	DW	0fe6cH
	DW	0fdddH
	DW	0fedfH
	DW	0fda3H
	DW	0fdabH
	DW	0fde6H
	DW	0fcd6H
	DW	0ff5bH
	DW	0ff88H
	DW	03H
	DW	0164H
	DW	027fH
	DW	04d9H
	DW	05deH
	DW	060H
	DW	0b1H
	DW	02eeH
	DW	0fe4dH
	DW	0fdb7H
	DW	0fb6aH
	DW	0fe9cH
	DW	06dH
	DW	0ffb1H
	DW	0fe1bH
	DW	0120H
	DW	07d5H
	DW	09H
	DW	045cH
	DW	02dbH
	DW	0370H
	DW	0856H
	DW	03b2H
	DW	0fef7H
	DW	0631H
	DW	0429H
	DW	0485H
	DW	04baH
	DW	034bH
	DW	0fe0eH
	DW	0fd64H
	DW	01afH
	DW	0176H
	DW	0141H
	DW	0ff1bH
	DW	05a0H
	DW	0835H
	DW	0565H
	DW	01c1H
	DW	01cdH
	DW	0483H
	DW	0ff97H
	DW	027H
	DW	0fe80H
	DW	0fef9H
	DW	016fH
	DW	0b6H
	DW	0fe8dH
	DW	0fd6cH
	DW	0305H
	DW	0ff44H
	DW	047fH
	DW	03cbH
	DW	0535H
	DW	0660H
	DW	059bH
	DW	0306H
	DW	04f3H
	DW	04c5H
	DW	0fe1eH
	DW	0fcc0H
	DW	0fa2fH
	DW	0ff13H
	DW	0ff2eH
	DW	035cH
	DW	037aH
	DW	064fH
	DW	0428H
	DW	01d8H
	DW	0426H
	DW	04a8H
	DW	0b9H
	DW	0435H
	DW	03ddH
	DW	0fdc8H
	DW	0fc20H
	DW	0f958H
	DW	0fe3fH
	DW	0fc7aH
	DW	0f805H
	DW	0ff72H
	DW	0fe87H
	DW	0fe36H
	DW	0ff2eH
	DW	0fdd6H
	DW	0fbfbH
	DW	0fff5H
	DW	046dH
	DW	08d9H
	DW	0feb7H
	DW	0fd5dH
	DW	0fc83H
	DW	0ff06H
	DW	0291H
	DW	04a3H
	DW	0207H
	DW	05e6H
	DW	06f3H
	DW	0208H
	DW	021bH
	DW	057bH
	DW	020fH
	DW	058dH
	DW	0516H
	DW	0fdcdH
	DW	0fc99H
	DW	0fb20H
	DW	0ff6dH
	DW	0fe31H
	DW	036fH
	DW	0ffb4H
	DW	091eH
	DW	0b18H
	DW	0233H
	DW	0a0dH
	DW	0951H
	DW	0278H
	DW	0786H
	DW	0b68H
	DW	02cfH
	DW	07e7H
	DW	0730H
	DW	0fddfH
	DW	0fd2dH
	DW	0454H
	DW	081H
	DW	0ff83H
	DW	0374H
	DW	0589H
	DW	0660H
	DW	039dH
	DW	0ffa2H
	DW	061eH
	DW	06d7H
	DW	0feabH
	DW	05fdH
	DW	060fH
	DW	024fH
	DW	018bH
	DW	0feeeH
	DW	0ffb4H
	DW	03d5H
	DW	0b0fH
	DW	099H
	DW	0ba9H
	DW	0734H
	DW	0408H
	DW	0a05H
	DW	0abdH
	DW	05e4H
	DW	0b10H
	DW	0757H
	DW	0317H
	DW	04afH
	DW	021aH
	DW	0ff42H
	DW	0fe3bH
	DW	05d1H
	DW	0feeaH
	DW	0fddcH
	DW	0486H
	DW	0ff0bH
	DW	0795H
	DW	07fcH
	DW	0400H
	DW	0618H
	DW	0672H
	DW	0200H
	DW	0fdH
	DW	01d2H
	DW	0ffc2H
	DW	0febdH
	DW	047fH
	DW	0fe27H
	DW	0fe88H
	DW	01fbH
	DW	0fe4fH
	DW	0564H
	DW	0872H
	DW	0383H
	DW	0797H
	DW	05a5H
	DW	086H
	DW	02c0H
	DW	01b8H
	DW	01ccH
	DW	020dH
	DW	0ffe4H
	DW	0fe3eH
	DW	0117H
	DW	053aH
	DW	00H
	DW	03cbH
	DW	0fcH
	DW	0fe43H
	DW	0fd8dH
	DW	0fc21H
	DW	0fea4H
	DW	0fda6H
	DW	0fa70H
	DW	018eH
	DW	02c8H
	DW	0678H
	DW	0ff95H
	DW	013aH
	DW	0ff4eH
	DW	05dH
	DW	08b2H
	DW	08beH
	DW	0206H
	DW	0351H
	DW	0290H
	DW	0fe32H
	DW	0fd39H
	DW	0fe41H
	DW	0aeH
	DW	0ffdeH
	DW	04a7H
	DW	0ff89H
	DW	02aH
	DW	03edH
	DW	0fe8cH
	DW	0112H
	DW	02f6H
	DW	040cH
	DW	0930H
	DW	072eH
	DW	02a3H
	DW	06bcH
	DW	05daH
	DW	01aeH
	DW	0506H
	DW	0855H
	DW	0ff7fH
	DW	0fe49H
	DW	00H
	DW	0fe8bH
	DW	0320H
	DW	0860H
	DW	06H
	DW	0633H
	DW	09aeH
	DW	01deH
	DW	0254H
	DW	0850H
	DW	0fe54H
	DW	0fd20H
	DW	05e1H
	DW	0181H
	DW	0b2H
	DW	03d4H
	DW	08bH
	DW	01c1H
	DW	04c9H
	DW	0fdf2H
	DW	0fcb6H
	DW	0fc2aH
	DW	091H
	DW	0612H
	DW	04daH
	DW	026fH
	DW	05a8H
	DW	0290H
	DW	015dH
	DW	03f8H
	DW	05caH
	DW	01fH
	DW	0fee8H
	DW	019fH
	DW	0fec4H
	DW	02d4H
	DW	0669H
	DW	0168H
	DW	0422H
	DW	022cH
	DW	0fe4cH
	DW	0fe9aH
	DW	04b1H
	DW	0fe9dH
	DW	0463H
	DW	0793H
	DW	0191H
	DW	0630H
	DW	08c8H
	DW	0fdf1H
	DW	0fc0cH
	DW	0163H
	DW	0e9H
	DW	0eeH
	DW	08b9H
	DW	0fddaH
	DW	0fc7fH
	DW	0fd81H
	DW	0fe93H
	DW	0fe0bH
	DW	07a5H
	DW	0185H
	DW	0744H
	DW	0655H
	DW	0a2H
	DW	046cH
	DW	04f0H
	DW	0ff13H
	DW	0496H
	DW	056eH
	DW	0fd80H
	DW	0fe65H
	DW	074H
	DW	0ff1cH
	DW	069eH
	DW	08faH
	DW	0667H
	DW	088aH
	DW	08dbH
	DW	0232H
	DW	04f9H
	DW	0a62H
	DW	0143H
	DW	0152H
	DW	06eeH
	DW	0242H
	DW	0453H
	DW	0354H
	DW	016H
	DW	0252H
	DW	03a6H
	DW	0ff71H
	DW	02ceH
	DW	01beH
	ORG $+6
_mean_lsf DW	060aH
	DW	08e0H
	DW	0ec2H
	DW	01570H
	DW	01b3cH
	DW	020beH
	DW	0273fH
	DW	02bddH
	DW	031deH
	DW	03592H
	ORG $+6
_pred_fac DW	02554H
	DW	02a11H
	DW	0311bH
	DW	033ecH
	DW	0382dH
	DW	02d83H
	DW	0295cH
	DW	02627H
	DW	02191H
	DW	01954H
PUBLIC	_Init_D_plsf_3
PUBLIC	_D_plsf_3
; Function compile flags: /Ogtp
; File e:\mywork\client\pc2.0trunk\pc2.0\third_party\libamrplayer\amr\d_plsf_3.c
; File e:\mywork\client\pc2.0trunk\pc2.0\third_party\libamrplayer\amr\basicop2.c
; File e:\mywork\client\pc2.0trunk\pc2.0\third_party\libamrplayer\amr\d_plsf_3.c
; File e:\mywork\client\pc2.0trunk\pc2.0\third_party\libamrplayer\amr\basicop2.c
; File e:\mywork\client\pc2.0trunk\pc2.0\third_party\libamrplayer\amr\d_plsf_3.c
; File e:\mywork\client\pc2.0trunk\pc2.0\third_party\libamrplayer\amr\basicop2.c
; File e:\mywork\client\pc2.0trunk\pc2.0\third_party\libamrplayer\amr\d_plsf_3.c
; File e:\mywork\client\pc2.0trunk\pc2.0\third_party\libamrplayer\amr\basicop2.c
; File e:\mywork\client\pc2.0trunk\pc2.0\third_party\libamrplayer\amr\d_plsf_3.c
; File e:\mywork\client\pc2.0trunk\pc2.0\third_party\libamrplayer\amr\basicop2.c
; File e:\mywork\client\pc2.0trunk\pc2.0\third_party\libamrplayer\amr\d_plsf_3.c
; File e:\mywork\client\pc2.0trunk\pc2.0\third_party\libamrplayer\amr\basicop2.c
; File e:\mywork\client\pc2.0trunk\pc2.0\third_party\libamrplayer\amr\d_plsf_3.c
; File e:\mywork\client\pc2.0trunk\pc2.0\third_party\libamrplayer\amr\basicop2.c
; File e:\mywork\client\pc2.0trunk\pc2.0\third_party\libamrplayer\amr\d_plsf_3.c
; File e:\mywork\client\pc2.0trunk\pc2.0\third_party\libamrplayer\amr\basicop2.c
; File e:\mywork\client\pc2.0trunk\pc2.0\third_party\libamrplayer\amr\d_plsf_3.c
; File e:\mywork\client\pc2.0trunk\pc2.0\third_party\libamrplayer\amr\basicop2.c
; File e:\mywork\client\pc2.0trunk\pc2.0\third_party\libamrplayer\amr\d_plsf_3.c
; File e:\mywork\client\pc2.0trunk\pc2.0\third_party\libamrplayer\amr\basicop2.c
; File e:\mywork\client\pc2.0trunk\pc2.0\third_party\libamrplayer\amr\d_plsf_3.c
; File e:\mywork\client\pc2.0trunk\pc2.0\third_party\libamrplayer\amr\basicop2.c
; File e:\mywork\client\pc2.0trunk\pc2.0\third_party\libamrplayer\amr\d_plsf_3.c
; File e:\mywork\client\pc2.0trunk\pc2.0\third_party\libamrplayer\amr\basicop2.c
; File e:\mywork\client\pc2.0trunk\pc2.0\third_party\libamrplayer\amr\d_plsf_3.c
; File e:\mywork\client\pc2.0trunk\pc2.0\third_party\libamrplayer\amr\basicop2.c
; File e:\mywork\client\pc2.0trunk\pc2.0\third_party\libamrplayer\amr\d_plsf_3.c
; File e:\mywork\client\pc2.0trunk\pc2.0\third_party\libamrplayer\amr\basicop2.c
; File e:\mywork\client\pc2.0trunk\pc2.0\third_party\libamrplayer\amr\d_plsf_3.c
; File e:\mywork\client\pc2.0trunk\pc2.0\third_party\libamrplayer\amr\basicop2.c
; File e:\mywork\client\pc2.0trunk\pc2.0\third_party\libamrplayer\amr\d_plsf_3.c
; File e:\mywork\client\pc2.0trunk\pc2.0\third_party\libamrplayer\amr\basicop2.c
; File e:\mywork\client\pc2.0trunk\pc2.0\third_party\libamrplayer\amr\d_plsf_3.c
; File e:\mywork\client\pc2.0trunk\pc2.0\third_party\libamrplayer\amr\basicop2.c
; File e:\mywork\client\pc2.0trunk\pc2.0\third_party\libamrplayer\amr\d_plsf_3.c
; File e:\mywork\client\pc2.0trunk\pc2.0\third_party\libamrplayer\amr\basicop2.c
; File e:\mywork\client\pc2.0trunk\pc2.0\third_party\libamrplayer\amr\d_plsf_3.c
; File e:\mywork\client\pc2.0trunk\pc2.0\third_party\libamrplayer\amr\copy.c
; File e:\mywork\client\pc2.0trunk\pc2.0\third_party\libamrplayer\amr\d_plsf_3.c
; File e:\mywork\client\pc2.0trunk\pc2.0\third_party\libamrplayer\amr\copy.c
; File e:\mywork\client\pc2.0trunk\pc2.0\third_party\libamrplayer\amr\d_plsf_3.c
;	COMDAT _D_plsf_3
_TEXT	SEGMENT
_lsp1_q$GSCopy$1$ = -56					; size = 4
_st$GSCopy$1$ = -52					; size = 4
_p_cb3$1$ = -48						; size = 4
_mode$1$ = -48						; size = 4
_lsf1_q$ = -44						; size = 20
_lsf1_r$ = -24						; size = 20
__$ArrayPad$ = -4					; size = 4
_bfi$ = 8						; size = 2
_indice$ = 12						; size = 4
_lsp1_q$ = 16						; size = 4
_D_plsf_3 PROC						; COMDAT
; _st$ = ecx
; _mode$ = edx

; 77   : {

  00000	55		 push	 ebp
  00001	8b ec		 mov	 ebp, esp
  00003	83 ec 38	 sub	 esp, 56			; 00000038H
  00006	a1 00 00 00 00	 mov	 eax, DWORD PTR ___security_cookie
  0000b	33 c5		 xor	 eax, ebp
  0000d	89 45 fc	 mov	 DWORD PTR __$ArrayPad$[ebp], eax

; 78   :     Word16 i, index;
; 79   :     Word16 *p_cb1, *p_cb2, *p_cb3, *p_dico, temp;
; 80   :     Word16 lsf1_r[M];
; 81   :     Word16 lsf1_q[M];
; 82   :     
; 83   :     test ();
; 84   :     if (bfi != 0)   /* if bad frame */

  00010	66 83 7d 08 00	 cmp	 WORD PTR _bfi$[ebp], 0
  00015	8b 45 10	 mov	 eax, DWORD PTR _lsp1_q$[ebp]
  00018	53		 push	 ebx
  00019	56		 push	 esi
  0001a	8b da		 mov	 ebx, edx
  0001c	89 4d cc	 mov	 DWORD PTR _st$GSCopy$1$[ebp], ecx
  0001f	57		 push	 edi
  00020	89 5d d0	 mov	 DWORD PTR _mode$1$[ebp], ebx
  00023	89 45 c8	 mov	 DWORD PTR _lsp1_q$GSCopy$1$[ebp], eax
  00026	0f 84 c6 02 00
	00		 je	 $LN28@D_plsf_3

; 85   :     {
; 86   :         /* use the past LSFs slightly shifted towards their mean */
; 87   : 
; 88   :         for (i = 0; i < M; i++)

  0002c	33 f6		 xor	 esi, esi
  0002e	8d 79 14	 lea	 edi, DWORD PTR [ecx+20]
  00031	8d 5e 0a	 lea	 ebx, DWORD PTR [esi+10]
  00034	eb 0a 8d a4 24
	00 00 00 00 8d
	49 00		 npad	 12
$LL27@D_plsf_3:
; File e:\mywork\client\pc2.0trunk\pc2.0\third_party\libamrplayer\amr\basicop2.c

; 432  :     L_product = (Word32) var1 *(Word32) var2;

  00040	0f bf 86 00 00
	00 00		 movsx	 eax, WORD PTR _mean_lsf[esi]
  00047	69 c0 cd 0c 00
	00		 imul	 eax, eax, 3277

; 433  : 
; 434  :     L_product = (L_product & (Word32) 0xffff8000L) >> 15;

  0004d	c1 f8 0f	 sar	 eax, 15			; 0000000fH

; 435  : 
; 436  :     if (L_product & (Word32) 0x00010000L)

  00050	a9 00 00 01 00	 test	 eax, 65536		; 00010000H
  00055	74 05		 je	 SHORT $LN33@D_plsf_3

; 437  :         L_product = L_product | (Word32) 0xffff0000L;

  00057	0d 00 00 ff ff	 or	 eax, -65536		; ffff0000H
$LN33@D_plsf_3:

; 79   :     if (L_var1 > 0X00007fffL)

  0005c	3d ff 7f 00 00	 cmp	 eax, 32767		; 00007fffH
  00061	7e 11		 jle	 SHORT $LN39@D_plsf_3

; 80   :     {
; 81   :         Overflow = 1;

  00063	c7 05 00 00 00
	00 01 00 00 00	 mov	 DWORD PTR _Overflow, 1

; 82   :         var_out = MAX_16;

  0006d	ba ff 7f 00 00	 mov	 edx, 32767		; 00007fffH
  00072	eb 1b		 jmp	 SHORT $LN36@D_plsf_3
$LN39@D_plsf_3:

; 83   :     }
; 84   :     else if (L_var1 < (Word32) 0xffff8000L)

  00074	3d 00 80 ff ff	 cmp	 eax, -32768		; ffff8000H
  00079	7d 11		 jge	 SHORT $LN37@D_plsf_3

; 85   :     {
; 86   :         Overflow = 1;

  0007b	c7 05 00 00 00
	00 01 00 00 00	 mov	 DWORD PTR _Overflow, 1

; 87   :         var_out = MIN_16;

  00085	ba 00 80 ff ff	 mov	 edx, -32768		; ffff8000H

; 88   :     }
; 89   :     else

  0008a	eb 03		 jmp	 SHORT $LN36@D_plsf_3
$LN37@D_plsf_3:

; 90   :     {
; 91   :         var_out = extract_l (L_var1);

  0008c	0f b7 d0	 movzx	 edx, ax
$LN36@D_plsf_3:

; 432  :     L_product = (Word32) var1 *(Word32) var2;

  0008f	0f bf 07	 movsx	 eax, WORD PTR [edi]
  00092	69 c0 33 73 00
	00		 imul	 eax, eax, 29491

; 433  : 
; 434  :     L_product = (L_product & (Word32) 0xffff8000L) >> 15;

  00098	c1 f8 0f	 sar	 eax, 15			; 0000000fH

; 435  : 
; 436  :     if (L_product & (Word32) 0x00010000L)

  0009b	a9 00 00 01 00	 test	 eax, 65536		; 00010000H
  000a0	74 05		 je	 SHORT $LN44@D_plsf_3

; 437  :         L_product = L_product | (Word32) 0xffff0000L;

  000a2	0d 00 00 ff ff	 or	 eax, -65536		; ffff0000H
$LN44@D_plsf_3:

; 79   :     if (L_var1 > 0X00007fffL)

  000a7	3d ff 7f 00 00	 cmp	 eax, 32767		; 00007fffH
  000ac	7e 11		 jle	 SHORT $LN50@D_plsf_3

; 80   :     {
; 81   :         Overflow = 1;

  000ae	c7 05 00 00 00
	00 01 00 00 00	 mov	 DWORD PTR _Overflow, 1

; 82   :         var_out = MAX_16;

  000b8	b8 ff 7f 00 00	 mov	 eax, 32767		; 00007fffH
  000bd	eb 1b		 jmp	 SHORT $LN47@D_plsf_3
$LN50@D_plsf_3:

; 83   :     }
; 84   :     else if (L_var1 < (Word32) 0xffff8000L)

  000bf	3d 00 80 ff ff	 cmp	 eax, -32768		; ffff8000H
  000c4	7d 11		 jge	 SHORT $LN48@D_plsf_3

; 85   :     {
; 86   :         Overflow = 1;

  000c6	c7 05 00 00 00
	00 01 00 00 00	 mov	 DWORD PTR _Overflow, 1

; 87   :         var_out = MIN_16;

  000d0	b8 00 80 ff ff	 mov	 eax, -32768		; ffff8000H

; 88   :     }
; 89   :     else

  000d5	eb 03		 jmp	 SHORT $LN47@D_plsf_3
$LN48@D_plsf_3:

; 90   :     {
; 91   :         var_out = extract_l (L_var1);

  000d7	0f b7 c0	 movzx	 eax, ax
$LN47@D_plsf_3:

; 139  :     L_sum = (Word32) var1 + var2;

  000da	0f bf c8	 movsx	 ecx, ax
  000dd	0f bf c2	 movsx	 eax, dx
  000e0	03 c8		 add	 ecx, eax

; 79   :     if (L_var1 > 0X00007fffL)

  000e2	81 f9 ff 7f 00
	00		 cmp	 ecx, 32767		; 00007fffH
  000e8	7e 11		 jle	 SHORT $LN60@D_plsf_3

; 80   :     {
; 81   :         Overflow = 1;

  000ea	c7 05 00 00 00
	00 01 00 00 00	 mov	 DWORD PTR _Overflow, 1

; 82   :         var_out = MAX_16;

  000f4	b8 ff 7f 00 00	 mov	 eax, 32767		; 00007fffH
  000f9	eb 1c		 jmp	 SHORT $LN57@D_plsf_3
$LN60@D_plsf_3:

; 83   :     }
; 84   :     else if (L_var1 < (Word32) 0xffff8000L)

  000fb	81 f9 00 80 ff
	ff		 cmp	 ecx, -32768		; ffff8000H
  00101	7d 11		 jge	 SHORT $LN58@D_plsf_3

; 85   :     {
; 86   :         Overflow = 1;

  00103	c7 05 00 00 00
	00 01 00 00 00	 mov	 DWORD PTR _Overflow, 1

; 87   :         var_out = MIN_16;

  0010d	b8 00 80 ff ff	 mov	 eax, -32768		; ffff8000H

; 88   :     }
; 89   :     else

  00112	eb 03		 jmp	 SHORT $LN57@D_plsf_3
$LN58@D_plsf_3:

; 90   :     {
; 91   :         var_out = extract_l (L_var1);

  00114	0f b7 c1	 movzx	 eax, cx
$LN57@D_plsf_3:
; File e:\mywork\client\pc2.0trunk\pc2.0\third_party\libamrplayer\amr\d_plsf_3.c

; 93   :                             mult(mean_lsf[i], ONE_ALPHA));

  00117	66 89 44 35 d4	 mov	 WORD PTR _lsf1_q$[ebp+esi], ax
  0011c	83 c7 02	 add	 edi, 2
  0011f	83 c6 02	 add	 esi, 2
  00122	4b		 dec	 ebx
  00123	0f 85 17 ff ff
	ff		 jne	 $LL27@D_plsf_3
; File e:\mywork\client\pc2.0trunk\pc2.0\third_party\libamrplayer\amr\basicop2.c

; 186  :     L_diff = (Word32) var1 - var2;

  00129	8b 45 d0	 mov	 eax, DWORD PTR _mode$1$[ebp]
  0012c	98		 cwde
  0012d	83 e8 08	 sub	 eax, 8

; 79   :     if (L_var1 > 0X00007fffL)

  00130	3d ff 7f 00 00	 cmp	 eax, 32767		; 00007fffH
  00135	7e 0c		 jle	 SHORT $LN74@D_plsf_3

; 80   :     {
; 81   :         Overflow = 1;

  00137	c7 05 00 00 00
	00 01 00 00 00	 mov	 DWORD PTR _Overflow, 1

; 82   :         var_out = MAX_16;

  00141	eb 1c		 jmp	 SHORT $LN398@D_plsf_3
$LN74@D_plsf_3:

; 83   :     }
; 84   :     else if (L_var1 < (Word32) 0xffff8000L)

  00143	3d 00 80 ff ff	 cmp	 eax, -32768		; ffff8000H
  00148	7d 0c		 jge	 SHORT $LN72@D_plsf_3

; 85   :     {
; 86   :         Overflow = 1;

  0014a	c7 05 00 00 00
	00 01 00 00 00	 mov	 DWORD PTR _Overflow, 1

; 88   :     }
; 89   :     else

  00154	eb 09		 jmp	 SHORT $LN398@D_plsf_3
$LN72@D_plsf_3:
; File e:\mywork\client\pc2.0trunk\pc2.0\third_party\libamrplayer\amr\d_plsf_3.c

; 99   : 	if (sub(mode, MRDTX) != 0) {

  00156	66 85 c0	 test	 ax, ax
  00159	0f 84 f4 00 00
	00		 je	 $LN24@D_plsf_3
$LN398@D_plsf_3:
  0015f	8b 5d cc	 mov	 ebx, DWORD PTR _st$GSCopy$1$[ebp]

; 100  : 	  for (i = 0; i < M; i++) {

  00162	33 d2		 xor	 edx, edx
  00164	8d 72 0a	 lea	 esi, DWORD PTR [edx+10]
  00167	eb 07 8d a4 24
	00 00 00 00	 npad	 9
$LL23@D_plsf_3:
; File e:\mywork\client\pc2.0trunk\pc2.0\third_party\libamrplayer\amr\basicop2.c

; 432  :     L_product = (Word32) var1 *(Word32) var2;

  00170	0f bf 8a 00 00
	00 00		 movsx	 ecx, WORD PTR _pred_fac[edx]
  00177	0f bf 04 1a	 movsx	 eax, WORD PTR [edx+ebx]
  0017b	0f af c8	 imul	 ecx, eax

; 433  : 
; 434  :     L_product = (L_product & (Word32) 0xffff8000L) >> 15;

  0017e	c1 f9 0f	 sar	 ecx, 15			; 0000000fH

; 435  : 
; 436  :     if (L_product & (Word32) 0x00010000L)

  00181	f7 c1 00 00 01
	00		 test	 ecx, 65536		; 00010000H
  00187	74 06		 je	 SHORT $LN79@D_plsf_3

; 437  :         L_product = L_product | (Word32) 0xffff0000L;

  00189	81 c9 00 00 ff
	ff		 or	 ecx, -65536		; ffff0000H
$LN79@D_plsf_3:

; 79   :     if (L_var1 > 0X00007fffL)

  0018f	81 f9 ff 7f 00
	00		 cmp	 ecx, 32767		; 00007fffH
  00195	7e 11		 jle	 SHORT $LN85@D_plsf_3

; 80   :     {
; 81   :         Overflow = 1;

  00197	c7 05 00 00 00
	00 01 00 00 00	 mov	 DWORD PTR _Overflow, 1

; 82   :         var_out = MAX_16;

  001a1	b8 ff 7f 00 00	 mov	 eax, 32767		; 00007fffH
  001a6	eb 1c		 jmp	 SHORT $LN82@D_plsf_3
$LN85@D_plsf_3:

; 83   :     }
; 84   :     else if (L_var1 < (Word32) 0xffff8000L)

  001a8	81 f9 00 80 ff
	ff		 cmp	 ecx, -32768		; ffff8000H
  001ae	7d 11		 jge	 SHORT $LN83@D_plsf_3

; 85   :     {
; 86   :         Overflow = 1;

  001b0	c7 05 00 00 00
	00 01 00 00 00	 mov	 DWORD PTR _Overflow, 1

; 87   :         var_out = MIN_16;

  001ba	b8 00 80 ff ff	 mov	 eax, -32768		; ffff8000H

; 88   :     }
; 89   :     else

  001bf	eb 03		 jmp	 SHORT $LN82@D_plsf_3
$LN83@D_plsf_3:

; 90   :     {
; 91   :         var_out = extract_l (L_var1);

  001c1	0f b7 c1	 movzx	 eax, cx
$LN82@D_plsf_3:

; 139  :     L_sum = (Word32) var1 + var2;

  001c4	0f bf 8a 00 00
	00 00		 movsx	 ecx, WORD PTR _mean_lsf[edx]
  001cb	98		 cwde
  001cc	03 c8		 add	 ecx, eax

; 79   :     if (L_var1 > 0X00007fffL)

  001ce	81 f9 ff 7f 00
	00		 cmp	 ecx, 32767		; 00007fffH
  001d4	7e 11		 jle	 SHORT $LN95@D_plsf_3

; 80   :     {
; 81   :         Overflow = 1;

  001d6	c7 05 00 00 00
	00 01 00 00 00	 mov	 DWORD PTR _Overflow, 1

; 82   :         var_out = MAX_16;

  001e0	b8 ff 7f 00 00	 mov	 eax, 32767		; 00007fffH
  001e5	eb 1c		 jmp	 SHORT $LN92@D_plsf_3
$LN95@D_plsf_3:

; 83   :     }
; 84   :     else if (L_var1 < (Word32) 0xffff8000L)

  001e7	81 f9 00 80 ff
	ff		 cmp	 ecx, -32768		; ffff8000H
  001ed	7d 11		 jge	 SHORT $LN93@D_plsf_3

; 85   :     {
; 86   :         Overflow = 1;

  001ef	c7 05 00 00 00
	00 01 00 00 00	 mov	 DWORD PTR _Overflow, 1

; 87   :         var_out = MIN_16;

  001f9	b8 00 80 ff ff	 mov	 eax, -32768		; ffff8000H

; 88   :     }
; 89   :     else

  001fe	eb 03		 jmp	 SHORT $LN92@D_plsf_3
$LN93@D_plsf_3:

; 90   :     {
; 91   :         var_out = extract_l (L_var1);

  00200	0f b7 c1	 movzx	 eax, cx
$LN92@D_plsf_3:

; 186  :     L_diff = (Word32) var1 - var2;

  00203	0f bf 4c 15 d4	 movsx	 ecx, WORD PTR _lsf1_q$[ebp+edx]
  00208	98		 cwde
  00209	2b c8		 sub	 ecx, eax

; 79   :     if (L_var1 > 0X00007fffL)

  0020b	81 f9 ff 7f 00
	00		 cmp	 ecx, 32767		; 00007fffH
  00211	7e 11		 jle	 SHORT $LN105@D_plsf_3

; 80   :     {
; 81   :         Overflow = 1;

  00213	c7 05 00 00 00
	00 01 00 00 00	 mov	 DWORD PTR _Overflow, 1

; 82   :         var_out = MAX_16;

  0021d	b8 ff 7f 00 00	 mov	 eax, 32767		; 00007fffH
  00222	eb 1c		 jmp	 SHORT $LN102@D_plsf_3
$LN105@D_plsf_3:

; 83   :     }
; 84   :     else if (L_var1 < (Word32) 0xffff8000L)

  00224	81 f9 00 80 ff
	ff		 cmp	 ecx, -32768		; ffff8000H
  0022a	7d 11		 jge	 SHORT $LN103@D_plsf_3

; 85   :     {
; 86   :         Overflow = 1;

  0022c	c7 05 00 00 00
	00 01 00 00 00	 mov	 DWORD PTR _Overflow, 1

; 87   :         var_out = MIN_16;

  00236	b8 00 80 ff ff	 mov	 eax, -32768		; ffff8000H

; 88   :     }
; 89   :     else

  0023b	eb 03		 jmp	 SHORT $LN102@D_plsf_3
$LN103@D_plsf_3:

; 90   :     {
; 91   :         var_out = extract_l (L_var1);

  0023d	0f b7 c1	 movzx	 eax, cx
$LN102@D_plsf_3:
; File e:\mywork\client\pc2.0trunk\pc2.0\third_party\libamrplayer\amr\d_plsf_3.c

; 105  :             st->past_r_q[i] = sub(lsf1_q[i], temp);                   move16 ();

  00240	66 89 04 1a	 mov	 WORD PTR [edx+ebx], ax
  00244	83 c2 02	 add	 edx, 2
  00247	4e		 dec	 esi
  00248	0f 85 22 ff ff
	ff		 jne	 $LL23@D_plsf_3

; 106  : 	  }
; 107  : 	} else {

  0024e	e9 f2 04 00 00	 jmp	 $LN1@D_plsf_3
$LN24@D_plsf_3:
  00253	8b 5d cc	 mov	 ebx, DWORD PTR _st$GSCopy$1$[ebp]

; 108  : 	  for (i = 0; i < M; i++) {

  00256	33 d2		 xor	 edx, edx
  00258	8d 72 0a	 lea	 esi, DWORD PTR [edx+10]
  0025b	eb 03 8d 49 00	 npad	 5
$LL19@D_plsf_3:
; File e:\mywork\client\pc2.0trunk\pc2.0\third_party\libamrplayer\amr\basicop2.c

; 139  :     L_sum = (Word32) var1 + var2;

  00260	0f bf 8a 00 00
	00 00		 movsx	 ecx, WORD PTR _mean_lsf[edx]
  00267	0f bf 04 1a	 movsx	 eax, WORD PTR [edx+ebx]
  0026b	03 c8		 add	 ecx, eax

; 79   :     if (L_var1 > 0X00007fffL)

  0026d	81 f9 ff 7f 00
	00		 cmp	 ecx, 32767		; 00007fffH
  00273	7e 11		 jle	 SHORT $LN117@D_plsf_3

; 80   :     {
; 81   :         Overflow = 1;

  00275	c7 05 00 00 00
	00 01 00 00 00	 mov	 DWORD PTR _Overflow, 1

; 82   :         var_out = MAX_16;

  0027f	b8 ff 7f 00 00	 mov	 eax, 32767		; 00007fffH
  00284	eb 1c		 jmp	 SHORT $LN114@D_plsf_3
$LN117@D_plsf_3:

; 83   :     }
; 84   :     else if (L_var1 < (Word32) 0xffff8000L)

  00286	81 f9 00 80 ff
	ff		 cmp	 ecx, -32768		; ffff8000H
  0028c	7d 11		 jge	 SHORT $LN115@D_plsf_3

; 85   :     {
; 86   :         Overflow = 1;

  0028e	c7 05 00 00 00
	00 01 00 00 00	 mov	 DWORD PTR _Overflow, 1

; 87   :         var_out = MIN_16;

  00298	b8 00 80 ff ff	 mov	 eax, -32768		; ffff8000H

; 88   :     }
; 89   :     else

  0029d	eb 03		 jmp	 SHORT $LN114@D_plsf_3
$LN115@D_plsf_3:

; 90   :     {
; 91   :         var_out = extract_l (L_var1);

  0029f	0f b7 c1	 movzx	 eax, cx
$LN114@D_plsf_3:

; 186  :     L_diff = (Word32) var1 - var2;

  002a2	0f bf 4c 15 d4	 movsx	 ecx, WORD PTR _lsf1_q$[ebp+edx]
  002a7	98		 cwde
  002a8	2b c8		 sub	 ecx, eax

; 79   :     if (L_var1 > 0X00007fffL)

  002aa	81 f9 ff 7f 00
	00		 cmp	 ecx, 32767		; 00007fffH
  002b0	7e 11		 jle	 SHORT $LN127@D_plsf_3

; 80   :     {
; 81   :         Overflow = 1;

  002b2	c7 05 00 00 00
	00 01 00 00 00	 mov	 DWORD PTR _Overflow, 1

; 82   :         var_out = MAX_16;

  002bc	b8 ff 7f 00 00	 mov	 eax, 32767		; 00007fffH
  002c1	eb 1c		 jmp	 SHORT $LN124@D_plsf_3
$LN127@D_plsf_3:

; 83   :     }
; 84   :     else if (L_var1 < (Word32) 0xffff8000L)

  002c3	81 f9 00 80 ff
	ff		 cmp	 ecx, -32768		; ffff8000H
  002c9	7d 11		 jge	 SHORT $LN125@D_plsf_3

; 85   :     {
; 86   :         Overflow = 1;

  002cb	c7 05 00 00 00
	00 01 00 00 00	 mov	 DWORD PTR _Overflow, 1

; 87   :         var_out = MIN_16;

  002d5	b8 00 80 ff ff	 mov	 eax, -32768		; ffff8000H

; 88   :     }
; 89   :     else

  002da	eb 03		 jmp	 SHORT $LN124@D_plsf_3
$LN125@D_plsf_3:

; 90   :     {
; 91   :         var_out = extract_l (L_var1);

  002dc	0f b7 c1	 movzx	 eax, cx
$LN124@D_plsf_3:
; File e:\mywork\client\pc2.0trunk\pc2.0\third_party\libamrplayer\amr\d_plsf_3.c

; 112  :             st->past_r_q[i] = sub(lsf1_q[i], temp);                   move16 ();

  002df	66 89 04 1a	 mov	 WORD PTR [edx+ebx], ax
  002e3	83 c2 02	 add	 edx, 2
  002e6	4e		 dec	 esi
  002e7	0f 85 73 ff ff
	ff		 jne	 $LL19@D_plsf_3

; 113  : 	  }	  
; 114  : 	}
; 115  :     }
; 116  :     else  /* if good LSFs received */

  002ed	e9 53 04 00 00	 jmp	 $LN1@D_plsf_3
$LN28@D_plsf_3:
; File e:\mywork\client\pc2.0trunk\pc2.0\third_party\libamrplayer\amr\basicop2.c

; 186  :     L_diff = (Word32) var1 - var2;

  002f2	0f bf f3	 movsx	 esi, bx

; 79   :     if (L_var1 > 0X00007fffL)

  002f5	81 fe ff 7f 00
	00		 cmp	 esi, 32767		; 00007fffH
  002fb	7e 0c		 jle	 SHORT $LN143@D_plsf_3

; 80   :     {
; 81   :         Overflow = 1;

  002fd	c7 05 00 00 00
	00 01 00 00 00	 mov	 DWORD PTR _Overflow, 1

; 82   :         var_out = MAX_16;

  00307	eb 19		 jmp	 SHORT $LN399@D_plsf_3
$LN143@D_plsf_3:

; 83   :     }
; 84   :     else if (L_var1 < (Word32) 0xffff8000L)

  00309	81 fe 00 80 ff
	ff		 cmp	 esi, -32768		; ffff8000H
  0030f	7d 0c		 jge	 SHORT $LN141@D_plsf_3

; 85   :     {
; 86   :         Overflow = 1;

  00311	c7 05 00 00 00
	00 01 00 00 00	 mov	 DWORD PTR _Overflow, 1

; 88   :     }
; 89   :     else

  0031b	eb 05		 jmp	 SHORT $LN399@D_plsf_3
$LN141@D_plsf_3:
; File e:\mywork\client\pc2.0trunk\pc2.0\third_party\libamrplayer\amr\d_plsf_3.c

; 119  :        if (sub (mode, MR475) == 0 || sub (mode, MR515) == 0)

  0031d	66 85 f6	 test	 si, si
  00320	74 4d		 je	 SHORT $LN14@D_plsf_3
$LN399@D_plsf_3:
; File e:\mywork\client\pc2.0trunk\pc2.0\third_party\libamrplayer\amr\basicop2.c

; 186  :     L_diff = (Word32) var1 - var2;

  00322	8d 46 ff	 lea	 eax, DWORD PTR [esi-1]

; 79   :     if (L_var1 > 0X00007fffL)

  00325	3d ff 7f 00 00	 cmp	 eax, 32767		; 00007fffH
  0032a	7e 0c		 jle	 SHORT $LN153@D_plsf_3

; 80   :     {
; 81   :         Overflow = 1;

  0032c	c7 05 00 00 00
	00 01 00 00 00	 mov	 DWORD PTR _Overflow, 1

; 82   :         var_out = MAX_16;

  00336	eb 18		 jmp	 SHORT $LN400@D_plsf_3
$LN153@D_plsf_3:

; 83   :     }
; 84   :     else if (L_var1 < (Word32) 0xffff8000L)

  00338	3d 00 80 ff ff	 cmp	 eax, -32768		; ffff8000H
  0033d	7d 0c		 jge	 SHORT $LN151@D_plsf_3

; 85   :     {
; 86   :         Overflow = 1;

  0033f	c7 05 00 00 00
	00 01 00 00 00	 mov	 DWORD PTR _Overflow, 1

; 88   :     }
; 89   :     else

  00349	eb 05		 jmp	 SHORT $LN400@D_plsf_3
$LN151@D_plsf_3:
; File e:\mywork\client\pc2.0trunk\pc2.0\third_party\libamrplayer\amr\d_plsf_3.c

; 119  :        if (sub (mode, MR475) == 0 || sub (mode, MR515) == 0)

  0034b	66 85 c0	 test	 ax, ax
  0034e	74 1f		 je	 SHORT $LN14@D_plsf_3
$LN400@D_plsf_3:

; 124  :        }
; 125  :        else if (sub (mode, MR795) == 0)

  00350	ba 05 00 00 00	 mov	 edx, 5
  00355	8b cb		 mov	 ecx, ebx
  00357	e8 00 00 00 00	 call	 _sub

; 129  :           p_cb2 = dico2_lsf;                  move16 ();
; 130  :           p_cb3 = dico3_lsf;                  move16 ();

  0035c	c7 45 d0 00 00
	00 00		 mov	 DWORD PTR _p_cb3$1$[ebp], OFFSET _dico3_lsf
  00363	66 85 c0	 test	 ax, ax
  00366	75 0e		 jne	 SHORT $LN12@D_plsf_3

; 126  :        {   /* MR795 */
; 127  :           test();
; 128  :           p_cb1 = mr795_1_lsf;                move16 ();

  00368	b9 00 00 00 00	 mov	 ecx, OFFSET _mr795_1_lsf

; 131  :        }
; 132  :        else 

  0036d	eb 0c		 jmp	 SHORT $LN178@D_plsf_3
$LN14@D_plsf_3:

; 122  :           p_cb2 = dico2_lsf;                  move16 ();
; 123  :           p_cb3 = mr515_3_lsf;                move16 ();

  0036f	c7 45 d0 00 00
	00 00		 mov	 DWORD PTR _p_cb3$1$[ebp], OFFSET _mr515_3_lsf
$LN12@D_plsf_3:

; 120  :        {   /* MR475, MR515 */
; 121  :           p_cb1 = dico1_lsf;                  move16 ();

  00376	b9 00 00 00 00	 mov	 ecx, OFFSET _dico1_lsf
$LN178@D_plsf_3:

; 133  :        {   /* MR59, MR67, MR74, MR102, MRDTX */
; 134  :           test();          
; 135  :           p_cb1 = dico1_lsf;                  move16 ();
; 136  :           p_cb2 = dico2_lsf;                  move16 ();
; 137  :           p_cb3 = dico3_lsf;                  move16 ();
; 138  :        }
; 139  :        
; 140  :        /* decode prediction residuals from 3 received indices */
; 141  : 
; 142  :         index = *indice++;                      move16 ();

  0037b	8b 7d 0c	 mov	 edi, DWORD PTR _indice$[ebp]
  0037e	0f b7 07	 movzx	 eax, WORD PTR [edi]
; File e:\mywork\client\pc2.0trunk\pc2.0\third_party\libamrplayer\amr\basicop2.c

; 139  :     L_sum = (Word32) var1 + var2;

  00381	0f bf d0	 movsx	 edx, ax
  00384	8d 04 12	 lea	 eax, DWORD PTR [edx+edx]

; 79   :     if (L_var1 > 0X00007fffL)

  00387	3d ff 7f 00 00	 cmp	 eax, 32767		; 00007fffH
  0038c	7e 11		 jle	 SHORT $LN187@D_plsf_3

; 80   :     {
; 81   :         Overflow = 1;

  0038e	c7 05 00 00 00
	00 01 00 00 00	 mov	 DWORD PTR _Overflow, 1

; 82   :         var_out = MAX_16;

  00398	b8 ff 7f 00 00	 mov	 eax, 32767		; 00007fffH
  0039d	eb 1b		 jmp	 SHORT $LN184@D_plsf_3
$LN187@D_plsf_3:

; 83   :     }
; 84   :     else if (L_var1 < (Word32) 0xffff8000L)

  0039f	3d 00 80 ff ff	 cmp	 eax, -32768		; ffff8000H
  003a4	7d 11		 jge	 SHORT $LN185@D_plsf_3

; 85   :     {
; 86   :         Overflow = 1;

  003a6	c7 05 00 00 00
	00 01 00 00 00	 mov	 DWORD PTR _Overflow, 1

; 87   :         var_out = MIN_16;

  003b0	b8 00 80 ff ff	 mov	 eax, -32768		; ffff8000H

; 88   :     }
; 89   :     else

  003b5	eb 03		 jmp	 SHORT $LN184@D_plsf_3
$LN185@D_plsf_3:

; 90   :     {
; 91   :         var_out = extract_l (L_var1);

  003b7	0f b7 c0	 movzx	 eax, ax
$LN184@D_plsf_3:

; 139  :     L_sum = (Word32) var1 + var2;

  003ba	98		 cwde
  003bb	03 c2		 add	 eax, edx

; 79   :     if (L_var1 > 0X00007fffL)

  003bd	3d ff 7f 00 00	 cmp	 eax, 32767		; 00007fffH
  003c2	7e 11		 jle	 SHORT $LN197@D_plsf_3

; 80   :     {
; 81   :         Overflow = 1;

  003c4	c7 05 00 00 00
	00 01 00 00 00	 mov	 DWORD PTR _Overflow, 1

; 82   :         var_out = MAX_16;

  003ce	b8 ff 7f 00 00	 mov	 eax, 32767		; 00007fffH
  003d3	eb 1b		 jmp	 SHORT $LN194@D_plsf_3
$LN197@D_plsf_3:

; 83   :     }
; 84   :     else if (L_var1 < (Word32) 0xffff8000L)

  003d5	3d 00 80 ff ff	 cmp	 eax, -32768		; ffff8000H
  003da	7d 11		 jge	 SHORT $LN195@D_plsf_3

; 85   :     {
; 86   :         Overflow = 1;

  003dc	c7 05 00 00 00
	00 01 00 00 00	 mov	 DWORD PTR _Overflow, 1

; 87   :         var_out = MIN_16;

  003e6	b8 00 80 ff ff	 mov	 eax, -32768		; ffff8000H

; 88   :     }
; 89   :     else

  003eb	eb 03		 jmp	 SHORT $LN194@D_plsf_3
$LN195@D_plsf_3:

; 90   :     {
; 91   :         var_out = extract_l (L_var1);

  003ed	0f b7 c0	 movzx	 eax, ax
$LN194@D_plsf_3:
; File e:\mywork\client\pc2.0trunk\pc2.0\third_party\libamrplayer\amr\d_plsf_3.c

; 148  :         index = *indice++;                      move16 ();

  003f0	0f b7 57 02	 movzx	 edx, WORD PTR [edi+2]
; File e:\mywork\client\pc2.0trunk\pc2.0\third_party\libamrplayer\amr\basicop2.c

; 79   :     if (L_var1 > 0X00007fffL)

  003f4	bb 00 80 ff ff	 mov	 ebx, -32768		; ffff8000H
; File e:\mywork\client\pc2.0trunk\pc2.0\third_party\libamrplayer\amr\d_plsf_3.c

; 143  :         p_dico = &p_cb1[add(index, add(index, index))];               move16 ();

  003f9	98		 cwde
  003fa	8d 0c 41	 lea	 ecx, DWORD PTR [ecx+eax*2]

; 144  :         lsf1_r[0] = *p_dico++;                  move16 ();

  003fd	0f b7 01	 movzx	 eax, WORD PTR [ecx]
  00400	66 89 45 e8	 mov	 WORD PTR _lsf1_r$[ebp], ax

; 145  :         lsf1_r[1] = *p_dico++;                  move16 ();

  00404	0f b7 41 02	 movzx	 eax, WORD PTR [ecx+2]
  00408	66 89 45 ea	 mov	 WORD PTR _lsf1_r$[ebp+2], ax

; 146  :         lsf1_r[2] = *p_dico++;                  move16 ();

  0040c	0f b7 41 04	 movzx	 eax, WORD PTR [ecx+4]
  00410	66 89 45 ec	 mov	 WORD PTR _lsf1_r$[ebp+4], ax
; File e:\mywork\client\pc2.0trunk\pc2.0\third_party\libamrplayer\amr\basicop2.c

; 79   :     if (L_var1 > 0X00007fffL)

  00414	81 fe ff 7f 00
	00		 cmp	 esi, 32767		; 00007fffH
  0041a	7e 0c		 jle	 SHORT $LN221@D_plsf_3

; 80   :     {
; 81   :         Overflow = 1;

  0041c	c7 05 00 00 00
	00 01 00 00 00	 mov	 DWORD PTR _Overflow, 1

; 82   :         var_out = MAX_16;

  00426	eb 15		 jmp	 SHORT $LN401@D_plsf_3
$LN221@D_plsf_3:

; 83   :     }
; 84   :     else if (L_var1 < (Word32) 0xffff8000L)

  00428	3b f3		 cmp	 esi, ebx
  0042a	7d 0c		 jge	 SHORT $LN219@D_plsf_3

; 85   :     {
; 86   :         Overflow = 1;

  0042c	c7 05 00 00 00
	00 01 00 00 00	 mov	 DWORD PTR _Overflow, 1

; 88   :     }
; 89   :     else

  00436	eb 05		 jmp	 SHORT $LN401@D_plsf_3
$LN219@D_plsf_3:
; File e:\mywork\client\pc2.0trunk\pc2.0\third_party\libamrplayer\amr\d_plsf_3.c

; 151  :         if ((sub (mode, MR475) == 0) || (sub (mode, MR515) == 0))

  00438	66 85 f6	 test	 si, si
  0043b	74 2e		 je	 SHORT $LN9@D_plsf_3
$LN401@D_plsf_3:
; File e:\mywork\client\pc2.0trunk\pc2.0\third_party\libamrplayer\amr\basicop2.c

; 186  :     L_diff = (Word32) var1 - var2;

  0043d	8d 46 ff	 lea	 eax, DWORD PTR [esi-1]

; 79   :     if (L_var1 > 0X00007fffL)

  00440	3d ff 7f 00 00	 cmp	 eax, 32767		; 00007fffH
  00445	7e 0c		 jle	 SHORT $LN231@D_plsf_3

; 80   :     {
; 81   :         Overflow = 1;

  00447	c7 05 00 00 00
	00 01 00 00 00	 mov	 DWORD PTR _Overflow, 1

; 82   :         var_out = MAX_16;

  00451	eb 46		 jmp	 SHORT $LN10@D_plsf_3
$LN231@D_plsf_3:

; 83   :     }
; 84   :     else if (L_var1 < (Word32) 0xffff8000L)

  00453	3d 00 80 ff ff	 cmp	 eax, -32768		; ffff8000H
  00458	7d 0c		 jge	 SHORT $LN229@D_plsf_3

; 85   :     {
; 86   :         Overflow = 1;

  0045a	c7 05 00 00 00
	00 01 00 00 00	 mov	 DWORD PTR _Overflow, 1

; 88   :     }
; 89   :     else

  00464	eb 33		 jmp	 SHORT $LN10@D_plsf_3
$LN229@D_plsf_3:
; File e:\mywork\client\pc2.0trunk\pc2.0\third_party\libamrplayer\amr\d_plsf_3.c

; 151  :         if ((sub (mode, MR475) == 0) || (sub (mode, MR515) == 0))

  00466	66 85 c0	 test	 ax, ax
  00469	75 2e		 jne	 SHORT $LN10@D_plsf_3
$LN9@D_plsf_3:
; File e:\mywork\client\pc2.0trunk\pc2.0\third_party\libamrplayer\amr\basicop2.c

; 298  :         result = (Word32) var1 *((Word32) 1 << var2);

  0046b	0f bf ca	 movsx	 ecx, dx
  0046e	03 c9		 add	 ecx, ecx

; 300  :         if ((var2 > 15 && var1 != 0) || (result != (Word32) ((Word16) result)))

  00470	0f bf c1	 movsx	 eax, cx
  00473	3b c8		 cmp	 ecx, eax
  00475	74 1c		 je	 SHORT $LN239@D_plsf_3

; 301  :         {
; 302  :             Overflow = 1;
; 303  :             var_out = (var1 > 0) ? MAX_16 : MIN_16;

  00477	66 85 d2	 test	 dx, dx
  0047a	c7 05 00 00 00
	00 01 00 00 00	 mov	 DWORD PTR _Overflow, 1
  00484	8b c3		 mov	 eax, ebx
  00486	b9 ff 7f 00 00	 mov	 ecx, 32767		; 00007fffH
  0048b	0f 4f c1	 cmovg	 eax, ecx
  0048e	0f b7 c0	 movzx	 eax, ax

; 304  :         }
; 305  :         else

  00491	eb 03		 jmp	 SHORT $LN236@D_plsf_3
$LN239@D_plsf_3:

; 306  :         {
; 307  :             var_out = extract_l (result);

  00493	0f b7 c1	 movzx	 eax, cx
$LN236@D_plsf_3:
; File e:\mywork\client\pc2.0trunk\pc2.0\third_party\libamrplayer\amr\d_plsf_3.c

; 153  :             index = shl(index,1);

  00496	0f b7 d0	 movzx	 edx, ax
$LN10@D_plsf_3:
; File e:\mywork\client\pc2.0trunk\pc2.0\third_party\libamrplayer\amr\basicop2.c

; 139  :     L_sum = (Word32) var1 + var2;

  00499	0f bf ca	 movsx	 ecx, dx
  0049c	8d 04 09	 lea	 eax, DWORD PTR [ecx+ecx]

; 79   :     if (L_var1 > 0X00007fffL)

  0049f	3d ff 7f 00 00	 cmp	 eax, 32767		; 00007fffH
  004a4	7e 11		 jle	 SHORT $LN252@D_plsf_3

; 80   :     {
; 81   :         Overflow = 1;

  004a6	c7 05 00 00 00
	00 01 00 00 00	 mov	 DWORD PTR _Overflow, 1

; 82   :         var_out = MAX_16;

  004b0	b8 ff 7f 00 00	 mov	 eax, 32767		; 00007fffH
  004b5	eb 18		 jmp	 SHORT $LN249@D_plsf_3
$LN252@D_plsf_3:

; 83   :     }
; 84   :     else if (L_var1 < (Word32) 0xffff8000L)

  004b7	3d 00 80 ff ff	 cmp	 eax, -32768		; ffff8000H
  004bc	7d 0e		 jge	 SHORT $LN250@D_plsf_3

; 85   :     {
; 86   :         Overflow = 1;

  004be	c7 05 00 00 00
	00 01 00 00 00	 mov	 DWORD PTR _Overflow, 1

; 87   :         var_out = MIN_16;

  004c8	8b c3		 mov	 eax, ebx

; 88   :     }
; 89   :     else

  004ca	eb 03		 jmp	 SHORT $LN249@D_plsf_3
$LN250@D_plsf_3:

; 90   :     {
; 91   :         var_out = extract_l (L_var1);

  004cc	0f b7 c0	 movzx	 eax, ax
$LN249@D_plsf_3:

; 139  :     L_sum = (Word32) var1 + var2;

  004cf	98		 cwde
  004d0	03 c1		 add	 eax, ecx

; 79   :     if (L_var1 > 0X00007fffL)

  004d2	3d ff 7f 00 00	 cmp	 eax, 32767		; 00007fffH
  004d7	7e 11		 jle	 SHORT $LN262@D_plsf_3

; 80   :     {
; 81   :         Overflow = 1;

  004d9	c7 05 00 00 00
	00 01 00 00 00	 mov	 DWORD PTR _Overflow, 1

; 82   :         var_out = MAX_16;

  004e3	b8 ff 7f 00 00	 mov	 eax, 32767		; 00007fffH
  004e8	eb 18		 jmp	 SHORT $LN259@D_plsf_3
$LN262@D_plsf_3:

; 83   :     }
; 84   :     else if (L_var1 < (Word32) 0xffff8000L)

  004ea	3d 00 80 ff ff	 cmp	 eax, -32768		; ffff8000H
  004ef	7d 0e		 jge	 SHORT $LN260@D_plsf_3

; 85   :     {
; 86   :         Overflow = 1;

  004f1	c7 05 00 00 00
	00 01 00 00 00	 mov	 DWORD PTR _Overflow, 1

; 87   :         var_out = MIN_16;

  004fb	8b c3		 mov	 eax, ebx

; 88   :     }
; 89   :     else

  004fd	eb 03		 jmp	 SHORT $LN259@D_plsf_3
$LN260@D_plsf_3:

; 90   :     {
; 91   :         var_out = extract_l (L_var1);

  004ff	0f b7 c0	 movzx	 eax, ax
$LN259@D_plsf_3:
; File e:\mywork\client\pc2.0trunk\pc2.0\third_party\libamrplayer\amr\d_plsf_3.c

; 161  :         index = *indice++;                      move16 ();

  00502	0f b7 57 04	 movzx	 edx, WORD PTR [edi+4]
  00506	98		 cwde
  00507	8d 0c 45 00 00
	00 00		 lea	 ecx, DWORD PTR _dico2_lsf[eax*2]
  0050e	0f b7 01	 movzx	 eax, WORD PTR [ecx]
  00511	66 89 45 ee	 mov	 WORD PTR _lsf1_r$[ebp+6], ax
  00515	0f b7 41 02	 movzx	 eax, WORD PTR [ecx+2]
  00519	66 89 45 f0	 mov	 WORD PTR _lsf1_r$[ebp+8], ax
  0051d	0f b7 41 04	 movzx	 eax, WORD PTR [ecx+4]
; File e:\mywork\client\pc2.0trunk\pc2.0\third_party\libamrplayer\amr\basicop2.c

; 298  :         result = (Word32) var1 *((Word32) 1 << var2);

  00521	0f bf ca	 movsx	 ecx, dx
  00524	c1 e1 02	 shl	 ecx, 2
; File e:\mywork\client\pc2.0trunk\pc2.0\third_party\libamrplayer\amr\d_plsf_3.c

; 159  :         lsf1_r[5] = *p_dico++;                  move16 ();

  00527	66 89 45 f2	 mov	 WORD PTR _lsf1_r$[ebp+10], ax
; File e:\mywork\client\pc2.0trunk\pc2.0\third_party\libamrplayer\amr\basicop2.c

; 300  :         if ((var2 > 15 && var1 != 0) || (result != (Word32) ((Word16) result)))

  0052b	0f bf c1	 movsx	 eax, cx
  0052e	3b c8		 cmp	 ecx, eax
  00530	74 1a		 je	 SHORT $LN280@D_plsf_3

; 301  :         {
; 302  :             Overflow = 1;
; 303  :             var_out = (var1 > 0) ? MAX_16 : MIN_16;

  00532	66 85 d2	 test	 dx, dx
  00535	c7 05 00 00 00
	00 01 00 00 00	 mov	 DWORD PTR _Overflow, 1
  0053f	b8 ff 7f 00 00	 mov	 eax, 32767		; 00007fffH
  00544	0f 4f d8	 cmovg	 ebx, eax
  00547	0f b7 c3	 movzx	 eax, bx

; 304  :         }
; 305  :         else

  0054a	eb 03		 jmp	 SHORT $LN277@D_plsf_3
$LN280@D_plsf_3:

; 306  :         {
; 307  :             var_out = extract_l (result);

  0054c	0f b7 c1	 movzx	 eax, cx
$LN277@D_plsf_3:
; File e:\mywork\client\pc2.0trunk\pc2.0\third_party\libamrplayer\amr\d_plsf_3.c

; 162  :         p_dico = &p_cb3[shl(index, 2)];         move16 ();

  0054f	8b 4d d0	 mov	 ecx, DWORD PTR _p_cb3$1$[ebp]
; File e:\mywork\client\pc2.0trunk\pc2.0\third_party\libamrplayer\amr\basicop2.c

; 186  :     L_diff = (Word32) var1 - var2;

  00552	83 c6 f8	 add	 esi, -8			; fffffff8H
; File e:\mywork\client\pc2.0trunk\pc2.0\third_party\libamrplayer\amr\d_plsf_3.c

; 162  :         p_dico = &p_cb3[shl(index, 2)];         move16 ();

  00555	98		 cwde
  00556	8d 0c 41	 lea	 ecx, DWORD PTR [ecx+eax*2]

; 163  :         lsf1_r[6] = *p_dico++;                  move16 ();

  00559	0f b7 01	 movzx	 eax, WORD PTR [ecx]
  0055c	66 89 45 f4	 mov	 WORD PTR _lsf1_r$[ebp+12], ax

; 164  :         lsf1_r[7] = *p_dico++;                  move16 ();

  00560	0f b7 41 02	 movzx	 eax, WORD PTR [ecx+2]
  00564	66 89 45 f6	 mov	 WORD PTR _lsf1_r$[ebp+14], ax

; 165  :         lsf1_r[8] = *p_dico++;                  move16 ();

  00568	0f b7 41 04	 movzx	 eax, WORD PTR [ecx+4]
  0056c	66 89 45 f8	 mov	 WORD PTR _lsf1_r$[ebp+16], ax

; 166  :         lsf1_r[9] = *p_dico++;                  move16 ();

  00570	0f b7 41 06	 movzx	 eax, WORD PTR [ecx+6]
  00574	66 89 45 fa	 mov	 WORD PTR _lsf1_r$[ebp+18], ax
; File e:\mywork\client\pc2.0trunk\pc2.0\third_party\libamrplayer\amr\basicop2.c

; 79   :     if (L_var1 > 0X00007fffL)

  00578	81 fe ff 7f 00
	00		 cmp	 esi, 32767		; 00007fffH
  0057e	7e 0c		 jle	 SHORT $LN303@D_plsf_3

; 80   :     {
; 81   :         Overflow = 1;

  00580	c7 05 00 00 00
	00 01 00 00 00	 mov	 DWORD PTR _Overflow, 1

; 82   :         var_out = MAX_16;

  0058a	eb 1d		 jmp	 SHORT $LN402@D_plsf_3
$LN303@D_plsf_3:

; 83   :     }
; 84   :     else if (L_var1 < (Word32) 0xffff8000L)

  0058c	81 fe 00 80 ff
	ff		 cmp	 esi, -32768		; ffff8000H
  00592	7d 0c		 jge	 SHORT $LN301@D_plsf_3

; 85   :     {
; 86   :         Overflow = 1;

  00594	c7 05 00 00 00
	00 01 00 00 00	 mov	 DWORD PTR _Overflow, 1

; 88   :     }
; 89   :     else

  0059e	eb 09		 jmp	 SHORT $LN402@D_plsf_3
$LN301@D_plsf_3:
; File e:\mywork\client\pc2.0trunk\pc2.0\third_party\libamrplayer\amr\d_plsf_3.c

; 170  : 	if (sub(mode, MRDTX) != 0) 

  005a0	66 85 f6	 test	 si, si
  005a3	0f 84 f3 00 00
	00		 je	 $LN8@D_plsf_3
$LN402@D_plsf_3:
  005a9	8b 5d cc	 mov	 ebx, DWORD PTR _st$GSCopy$1$[ebp]

; 174  :               st->past_r_q[i] = lsf1_r[i];        move16 ();

  005ac	33 d2		 xor	 edx, edx
  005ae	8d 7a 0a	 lea	 edi, DWORD PTR [edx+10]
$LL7@D_plsf_3:
; File e:\mywork\client\pc2.0trunk\pc2.0\third_party\libamrplayer\amr\basicop2.c

; 432  :     L_product = (Word32) var1 *(Word32) var2;

  005b1	0f bf 8a 00 00
	00 00		 movsx	 ecx, WORD PTR _pred_fac[edx]
  005b8	0f bf 04 1a	 movsx	 eax, WORD PTR [edx+ebx]
  005bc	0f af c8	 imul	 ecx, eax

; 433  : 
; 434  :     L_product = (L_product & (Word32) 0xffff8000L) >> 15;

  005bf	c1 f9 0f	 sar	 ecx, 15			; 0000000fH

; 435  : 
; 436  :     if (L_product & (Word32) 0x00010000L)

  005c2	f7 c1 00 00 01
	00		 test	 ecx, 65536		; 00010000H
  005c8	74 06		 je	 SHORT $LN308@D_plsf_3

; 437  :         L_product = L_product | (Word32) 0xffff0000L;

  005ca	81 c9 00 00 ff
	ff		 or	 ecx, -65536		; ffff0000H
$LN308@D_plsf_3:

; 79   :     if (L_var1 > 0X00007fffL)

  005d0	81 f9 ff 7f 00
	00		 cmp	 ecx, 32767		; 00007fffH
  005d6	7e 11		 jle	 SHORT $LN314@D_plsf_3

; 80   :     {
; 81   :         Overflow = 1;

  005d8	c7 05 00 00 00
	00 01 00 00 00	 mov	 DWORD PTR _Overflow, 1

; 82   :         var_out = MAX_16;

  005e2	b8 ff 7f 00 00	 mov	 eax, 32767		; 00007fffH
  005e7	eb 1c		 jmp	 SHORT $LN311@D_plsf_3
$LN314@D_plsf_3:

; 83   :     }
; 84   :     else if (L_var1 < (Word32) 0xffff8000L)

  005e9	81 f9 00 80 ff
	ff		 cmp	 ecx, -32768		; ffff8000H
  005ef	7d 11		 jge	 SHORT $LN312@D_plsf_3

; 85   :     {
; 86   :         Overflow = 1;

  005f1	c7 05 00 00 00
	00 01 00 00 00	 mov	 DWORD PTR _Overflow, 1

; 87   :         var_out = MIN_16;

  005fb	b8 00 80 ff ff	 mov	 eax, -32768		; ffff8000H

; 88   :     }
; 89   :     else

  00600	eb 03		 jmp	 SHORT $LN311@D_plsf_3
$LN312@D_plsf_3:

; 90   :     {
; 91   :         var_out = extract_l (L_var1);

  00602	0f b7 c1	 movzx	 eax, cx
$LN311@D_plsf_3:

; 139  :     L_sum = (Word32) var1 + var2;

  00605	0f bf 8a 00 00
	00 00		 movsx	 ecx, WORD PTR _mean_lsf[edx]
  0060c	98		 cwde
  0060d	03 c8		 add	 ecx, eax

; 79   :     if (L_var1 > 0X00007fffL)

  0060f	81 f9 ff 7f 00
	00		 cmp	 ecx, 32767		; 00007fffH
  00615	7e 11		 jle	 SHORT $LN324@D_plsf_3

; 80   :     {
; 81   :         Overflow = 1;

  00617	c7 05 00 00 00
	00 01 00 00 00	 mov	 DWORD PTR _Overflow, 1

; 82   :         var_out = MAX_16;

  00621	b8 ff 7f 00 00	 mov	 eax, 32767		; 00007fffH
  00626	eb 1c		 jmp	 SHORT $LN321@D_plsf_3
$LN324@D_plsf_3:

; 83   :     }
; 84   :     else if (L_var1 < (Word32) 0xffff8000L)

  00628	81 f9 00 80 ff
	ff		 cmp	 ecx, -32768		; ffff8000H
  0062e	7d 11		 jge	 SHORT $LN322@D_plsf_3

; 85   :     {
; 86   :         Overflow = 1;

  00630	c7 05 00 00 00
	00 01 00 00 00	 mov	 DWORD PTR _Overflow, 1

; 87   :         var_out = MIN_16;

  0063a	b8 00 80 ff ff	 mov	 eax, -32768		; ffff8000H

; 88   :     }
; 89   :     else

  0063f	eb 03		 jmp	 SHORT $LN321@D_plsf_3
$LN322@D_plsf_3:

; 90   :     {
; 91   :         var_out = extract_l (L_var1);

  00641	0f b7 c1	 movzx	 eax, cx
$LN321@D_plsf_3:

; 139  :     L_sum = (Word32) var1 + var2;

  00644	0f b7 74 15 e8	 movzx	 esi, WORD PTR _lsf1_r$[ebp+edx]
  00649	0f bf ce	 movsx	 ecx, si
  0064c	98		 cwde
  0064d	03 c8		 add	 ecx, eax

; 79   :     if (L_var1 > 0X00007fffL)

  0064f	81 f9 ff 7f 00
	00		 cmp	 ecx, 32767		; 00007fffH
  00655	7e 11		 jle	 SHORT $LN334@D_plsf_3

; 80   :     {
; 81   :         Overflow = 1;

  00657	c7 05 00 00 00
	00 01 00 00 00	 mov	 DWORD PTR _Overflow, 1

; 82   :         var_out = MAX_16;

  00661	b8 ff 7f 00 00	 mov	 eax, 32767		; 00007fffH
  00666	eb 1c		 jmp	 SHORT $LN331@D_plsf_3
$LN334@D_plsf_3:

; 83   :     }
; 84   :     else if (L_var1 < (Word32) 0xffff8000L)

  00668	81 f9 00 80 ff
	ff		 cmp	 ecx, -32768		; ffff8000H
  0066e	7d 11		 jge	 SHORT $LN332@D_plsf_3

; 85   :     {
; 86   :         Overflow = 1;

  00670	c7 05 00 00 00
	00 01 00 00 00	 mov	 DWORD PTR _Overflow, 1

; 87   :         var_out = MIN_16;

  0067a	b8 00 80 ff ff	 mov	 eax, -32768		; ffff8000H

; 88   :     }
; 89   :     else

  0067f	eb 03		 jmp	 SHORT $LN331@D_plsf_3
$LN332@D_plsf_3:

; 90   :     {
; 91   :         var_out = extract_l (L_var1);

  00681	0f b7 c1	 movzx	 eax, cx
$LN331@D_plsf_3:
; File e:\mywork\client\pc2.0trunk\pc2.0\third_party\libamrplayer\amr\d_plsf_3.c

; 173  :               lsf1_q[i] = add(lsf1_r[i], temp);   move16 ();

  00684	66 89 44 15 d4	 mov	 WORD PTR _lsf1_q$[ebp+edx], ax

; 174  :               st->past_r_q[i] = lsf1_r[i];        move16 ();

  00689	66 89 34 1a	 mov	 WORD PTR [edx+ebx], si
  0068d	83 c2 02	 add	 edx, 2
  00690	4f		 dec	 edi
  00691	0f 85 1a ff ff
	ff		 jne	 $LL7@D_plsf_3

; 175  :            }
; 176  :         else

  00697	e9 a9 00 00 00	 jmp	 $LN1@D_plsf_3
$LN8@D_plsf_3:
  0069c	8b 5d cc	 mov	 ebx, DWORD PTR _st$GSCopy$1$[ebp]

; 180  :               st->past_r_q[i] = lsf1_r[i];        move16 ();

  0069f	33 d2		 xor	 edx, edx
  006a1	8d 7a 0a	 lea	 edi, DWORD PTR [edx+10]
  006a4	eb 0a 8d a4 24
	00 00 00 00 8d
	49 00		 npad	 12
$LL3@D_plsf_3:
; File e:\mywork\client\pc2.0trunk\pc2.0\third_party\libamrplayer\amr\basicop2.c

; 139  :     L_sum = (Word32) var1 + var2;

  006b0	0f bf 8a 00 00
	00 00		 movsx	 ecx, WORD PTR _mean_lsf[edx]
  006b7	0f bf 04 1a	 movsx	 eax, WORD PTR [edx+ebx]
  006bb	03 c8		 add	 ecx, eax

; 79   :     if (L_var1 > 0X00007fffL)

  006bd	81 f9 ff 7f 00
	00		 cmp	 ecx, 32767		; 00007fffH
  006c3	7e 11		 jle	 SHORT $LN348@D_plsf_3

; 80   :     {
; 81   :         Overflow = 1;

  006c5	c7 05 00 00 00
	00 01 00 00 00	 mov	 DWORD PTR _Overflow, 1

; 82   :         var_out = MAX_16;

  006cf	b8 ff 7f 00 00	 mov	 eax, 32767		; 00007fffH
  006d4	eb 1c		 jmp	 SHORT $LN345@D_plsf_3
$LN348@D_plsf_3:

; 83   :     }
; 84   :     else if (L_var1 < (Word32) 0xffff8000L)

  006d6	81 f9 00 80 ff
	ff		 cmp	 ecx, -32768		; ffff8000H
  006dc	7d 11		 jge	 SHORT $LN346@D_plsf_3

; 85   :     {
; 86   :         Overflow = 1;

  006de	c7 05 00 00 00
	00 01 00 00 00	 mov	 DWORD PTR _Overflow, 1

; 87   :         var_out = MIN_16;

  006e8	b8 00 80 ff ff	 mov	 eax, -32768		; ffff8000H

; 88   :     }
; 89   :     else

  006ed	eb 03		 jmp	 SHORT $LN345@D_plsf_3
$LN346@D_plsf_3:

; 90   :     {
; 91   :         var_out = extract_l (L_var1);

  006ef	0f b7 c1	 movzx	 eax, cx
$LN345@D_plsf_3:

; 139  :     L_sum = (Word32) var1 + var2;

  006f2	0f b7 74 15 e8	 movzx	 esi, WORD PTR _lsf1_r$[ebp+edx]
  006f7	0f bf ce	 movsx	 ecx, si
  006fa	98		 cwde
  006fb	03 c8		 add	 ecx, eax

; 79   :     if (L_var1 > 0X00007fffL)

  006fd	81 f9 ff 7f 00
	00		 cmp	 ecx, 32767		; 00007fffH
  00703	7e 11		 jle	 SHORT $LN358@D_plsf_3

; 80   :     {
; 81   :         Overflow = 1;

  00705	c7 05 00 00 00
	00 01 00 00 00	 mov	 DWORD PTR _Overflow, 1

; 82   :         var_out = MAX_16;

  0070f	b8 ff 7f 00 00	 mov	 eax, 32767		; 00007fffH
  00714	eb 1c		 jmp	 SHORT $LN355@D_plsf_3
$LN358@D_plsf_3:

; 83   :     }
; 84   :     else if (L_var1 < (Word32) 0xffff8000L)

  00716	81 f9 00 80 ff
	ff		 cmp	 ecx, -32768		; ffff8000H
  0071c	7d 11		 jge	 SHORT $LN356@D_plsf_3

; 85   :     {
; 86   :         Overflow = 1;

  0071e	c7 05 00 00 00
	00 01 00 00 00	 mov	 DWORD PTR _Overflow, 1

; 87   :         var_out = MIN_16;

  00728	b8 00 80 ff ff	 mov	 eax, -32768		; ffff8000H

; 88   :     }
; 89   :     else

  0072d	eb 03		 jmp	 SHORT $LN355@D_plsf_3
$LN356@D_plsf_3:

; 90   :     {
; 91   :         var_out = extract_l (L_var1);

  0072f	0f b7 c1	 movzx	 eax, cx
$LN355@D_plsf_3:
; File e:\mywork\client\pc2.0trunk\pc2.0\third_party\libamrplayer\amr\d_plsf_3.c

; 179  :               lsf1_q[i] = add(lsf1_r[i], temp);   move16 ();

  00732	66 89 44 15 d4	 mov	 WORD PTR _lsf1_q$[ebp+edx], ax

; 180  :               st->past_r_q[i] = lsf1_r[i];        move16 ();

  00737	66 89 34 1a	 mov	 WORD PTR [edx+ebx], si
  0073b	83 c2 02	 add	 edx, 2
  0073e	4f		 dec	 edi
  0073f	0f 85 6b ff ff
	ff		 jne	 $LL3@D_plsf_3
$LN1@D_plsf_3:

; 181  :            }
; 182  :     }
; 183  : 
; 184  :     /* verification that LSFs has minimum distance of LSF_GAP Hz */
; 185  : 
; 186  :     Reorder_lsf(lsf1_q, LSF_GAP, M);

  00745	51		 push	 ecx
  00746	8d 4d d4	 lea	 ecx, DWORD PTR _lsf1_q$[ebp]
  00749	e8 00 00 00 00	 call	 _Reorder_lsf
; File e:\mywork\client\pc2.0trunk\pc2.0\third_party\libamrplayer\amr\copy.c

; 62   :         y[i] = x[i];            move16 (); 

  0074e	f3 0f 6f 45 d4	 movdqu	 xmm0, XMMWORD PTR _lsf1_q$[ebp]
  00753	8b 45 e4	 mov	 eax, DWORD PTR _lsf1_q$[ebp+16]
; File e:\mywork\client\pc2.0trunk\pc2.0\third_party\libamrplayer\amr\d_plsf_3.c

; 192  :     Lsf_lsp(lsf1_q, lsp1_q, M);

  00756	8d 4d d4	 lea	 ecx, DWORD PTR _lsf1_q$[ebp]
  00759	8b 55 c8	 mov	 edx, DWORD PTR _lsp1_q$GSCopy$1$[ebp]
; File e:\mywork\client\pc2.0trunk\pc2.0\third_party\libamrplayer\amr\copy.c

; 62   :         y[i] = x[i];            move16 (); 

  0075c	f3 0f 7f 43 14	 movdqu	 XMMWORD PTR [ebx+20], xmm0
  00761	89 43 24	 mov	 DWORD PTR [ebx+36], eax
; File e:\mywork\client\pc2.0trunk\pc2.0\third_party\libamrplayer\amr\d_plsf_3.c

; 192  :     Lsf_lsp(lsf1_q, lsp1_q, M);

  00764	e8 00 00 00 00	 call	 _Lsf_lsp

; 193  : 
; 194  :     return;
; 195  : }

  00769	8b 4d fc	 mov	 ecx, DWORD PTR __$ArrayPad$[ebp]
  0076c	83 c4 04	 add	 esp, 4
  0076f	33 cd		 xor	 ecx, ebp
  00771	5f		 pop	 edi
  00772	5e		 pop	 esi
  00773	5b		 pop	 ebx
  00774	e8 00 00 00 00	 call	 @__security_check_cookie@4
  00779	8b e5		 mov	 esp, ebp
  0077b	5d		 pop	 ebp
  0077c	c3		 ret	 0
_D_plsf_3 ENDP
_TEXT	ENDS
; Function compile flags: /Ogtp
; File e:\mywork\client\pc2.0trunk\pc2.0\third_party\libamrplayer\amr\d_plsf_3.c
; File e:\mywork\client\pc2.0trunk\pc2.0\third_party\libamrplayer\amr\copy.c
; File e:\mywork\client\pc2.0trunk\pc2.0\third_party\libamrplayer\amr\d_plsf_3.c
; File e:\mywork\client\pc2.0trunk\pc2.0\third_party\libamrplayer\amr\copy.c
; File e:\mywork\client\pc2.0trunk\pc2.0\third_party\libamrplayer\amr\d_plsf_3.c
;	COMDAT _Init_D_plsf_3
_TEXT	SEGMENT
_Init_D_plsf_3 PROC					; COMDAT
; _st$ = ecx
; _index$ = dx
; File e:\mywork\client\pc2.0trunk\pc2.0\third_party\libamrplayer\amr\copy.c

; 60   :     for (i = 0; i < L; i++)

  00000	0f bf c2	 movsx	 eax, dx
  00003	ba 0a 00 00 00	 mov	 edx, 10			; 0000000aH
  00008	56		 push	 esi
; File e:\mywork\client\pc2.0trunk\pc2.0\third_party\libamrplayer\amr\d_plsf_3.c

; 199  : {

  00009	8b f1		 mov	 esi, ecx
; File e:\mywork\client\pc2.0trunk\pc2.0\third_party\libamrplayer\amr\copy.c

; 60   :     for (i = 0; i < L; i++)

  0000b	8d 04 80	 lea	 eax, DWORD PTR [eax+eax*4]
  0000e	8d 04 85 00 00
	00 00		 lea	 eax, DWORD PTR _past_rq_init[eax*4]
$LL5@Init_D_pls:

; 61   :     {
; 62   :         y[i] = x[i];            move16 (); 

  00015	66 8b 08	 mov	 cx, WORD PTR [eax]
  00018	8d 40 02	 lea	 eax, DWORD PTR [eax+2]
  0001b	66 89 0e	 mov	 WORD PTR [esi], cx
  0001e	8d 76 02	 lea	 esi, DWORD PTR [esi+2]
  00021	4a		 dec	 edx
  00022	75 f1		 jne	 SHORT $LL5@Init_D_pls
  00024	5e		 pop	 esi
; File e:\mywork\client\pc2.0trunk\pc2.0\third_party\libamrplayer\amr\d_plsf_3.c

; 201  : }

  00025	c3		 ret	 0
_Init_D_plsf_3 ENDP
_TEXT	ENDS
END
