; Listing generated by Microsoft (R) Optimizing Compiler Version 18.00.40629.0 

	TITLE	E:\mywork\client\PC2.0TRUNK\PC2.0\third_party\libAMRPlayer\AMR\oper_32b.c
	.686P
	.XMM
	include listing.inc
	.model	flat

INCLUDELIB OLDNAMES

PUBLIC	_L_Comp
PUBLIC	_L_Extract
PUBLIC	_Mpy_32_16
; Function compile flags: /Ogtp
; File e:\mywork\client\pc2.0trunk\pc2.0\third_party\libamrplayer\amr\oper_32b.c
; File e:\mywork\client\pc2.0trunk\pc2.0\third_party\libamrplayer\amr\basicop2.c
; File e:\mywork\client\pc2.0trunk\pc2.0\third_party\libamrplayer\amr\oper_32b.c
;	COMDAT _Mpy_32_16
_TEXT	SEGMENT
_n$ = 8							; size = 2
_Mpy_32_16 PROC						; COMDAT
; _hi$ = cx
; _lo$ = dx

; 131  : {

  00000	55		 push	 ebp
  00001	8b ec		 mov	 ebp, esp
; File e:\mywork\client\pc2.0trunk\pc2.0\third_party\libamrplayer\amr\basicop2.c

; 485  :     L_var_out = (Word32) var1 *(Word32) var2;

  00003	8b 45 08	 mov	 eax, DWORD PTR _n$[ebp]
  00006	56		 push	 esi
  00007	0f bf f0	 movsx	 esi, ax
  0000a	0f bf c9	 movsx	 ecx, cx
  0000d	0f af ce	 imul	 ecx, esi

; 486  : 
; 487  :     if (L_var_out != (Word32) 0x40000000L)

  00010	81 f9 00 00 00
	40		 cmp	 ecx, 1073741824		; 40000000H
  00016	74 04		 je	 SHORT $LN4@Mpy_32_16

; 488  :     {
; 489  :         L_var_out *= 2;

  00018	03 c9		 add	 ecx, ecx

; 490  :     }
; 491  :     else

  0001a	eb 0f		 jmp	 SHORT $LN3@Mpy_32_16
$LN4@Mpy_32_16:

; 492  :     {
; 493  :         Overflow = 1;

  0001c	c7 05 00 00 00
	00 01 00 00 00	 mov	 DWORD PTR _Overflow, 1

; 494  :         L_var_out = MAX_32;

  00026	b9 ff ff ff 7f	 mov	 ecx, 2147483647		; 7fffffffH
$LN3@Mpy_32_16:

; 92   : #if (WMOPS)
; 93   :         multiCounter[currCounter].extract_l--;
; 94   : #endif
; 95   :     }
; 96   : 
; 97   :     return (var_out);
; 98   : }
; 99   : 
; 100  : /*___________________________________________________________________________
; 101  :  |                                                                           |
; 102  :  |   Function Name : add                                                     |
; 103  :  |                                                                           |
; 104  :  |   Purpose :                                                               |
; 105  :  |                                                                           |
; 106  :  |    Performs the addition (var1+var2) with overflow control and saturation;|
; 107  :  |    the 16 bit result is set at +32767 when overflow occurs or at -32768   |
; 108  :  |    when underflow occurs.                                                 |
; 109  :  |                                                                           |
; 110  :  |   Complexity weight : 1                                                   |
; 111  :  |                                                                           |
; 112  :  |   Inputs :                                                                |
; 113  :  |                                                                           |
; 114  :  |    var1                                                                   |
; 115  :  |             16 bit short signed integer (Word16) whose value falls in the |
; 116  :  |             range : 0xffff 8000 <= var1 <= 0x0000 7fff.                   |
; 117  :  |                                                                           |
; 118  :  |    var2                                                                   |
; 119  :  |             16 bit short signed integer (Word16) whose value falls in the |
; 120  :  |             range : 0xffff 8000 <= var1 <= 0x0000 7fff.                   |
; 121  :  |                                                                           |
; 122  :  |   Outputs :                                                               |
; 123  :  |                                                                           |
; 124  :  |    none                                                                   |
; 125  :  |                                                                           |
; 126  :  |   Return Value :                                                          |
; 127  :  |                                                                           |
; 128  :  |    var_out                                                                |
; 129  :  |             16 bit short signed integer (Word16) whose value falls in the |
; 130  :  |             range : 0xffff 8000 <= var_out <= 0x0000 7fff.                |
; 131  :  |___________________________________________________________________________|
; 132  : */
; 133  : 
; 134  : Word16 add (Word16 var1, Word16 var2)
; 135  : {
; 136  :     Word16 var_out;
; 137  :     Word32 L_sum;
; 138  : 
; 139  :     L_sum = (Word32) var1 + var2;
; 140  :     var_out = saturate (L_sum);
; 141  : #if (WMOPS)
; 142  :     multiCounter[currCounter].add++;
; 143  : #endif
; 144  :     return (var_out);
; 145  : }
; 146  : 
; 147  : /*___________________________________________________________________________
; 148  :  |                                                                           |
; 149  :  |   Function Name : sub                                                     |
; 150  :  |                                                                           |
; 151  :  |   Purpose :                                                               |
; 152  :  |                                                                           |
; 153  :  |    Performs the subtraction (var1+var2) with overflow control and satu-   |
; 154  :  |    ration; the 16 bit result is set at +32767 when overflow occurs or at  |
; 155  :  |    -32768 when underflow occurs.                                          |
; 156  :  |                                                                           |
; 157  :  |   Complexity weight : 1                                                   |
; 158  :  |                                                                           |
; 159  :  |   Inputs :                                                                |
; 160  :  |                                                                           |
; 161  :  |    var1                                                                   |
; 162  :  |             16 bit short signed integer (Word16) whose value falls in the |
; 163  :  |             range : 0xffff 8000 <= var1 <= 0x0000 7fff.                   |
; 164  :  |                                                                           |
; 165  :  |    var2                                                                   |
; 166  :  |             16 bit short signed integer (Word16) whose value falls in the |
; 167  :  |             range : 0xffff 8000 <= var1 <= 0x0000 7fff.                   |
; 168  :  |                                                                           |
; 169  :  |   Outputs :                                                               |
; 170  :  |                                                                           |
; 171  :  |    none                                                                   |
; 172  :  |                                                                           |
; 173  :  |   Return Value :                                                          |
; 174  :  |                                                                           |
; 175  :  |    var_out                                                                |
; 176  :  |             16 bit short signed integer (Word16) whose value falls in the |
; 177  :  |             range : 0xffff 8000 <= var_out <= 0x0000 7fff.                |
; 178  :  |___________________________________________________________________________|
; 179  : */
; 180  : 
; 181  : Word16 sub (Word16 var1, Word16 var2)
; 182  : {
; 183  :     Word16 var_out;
; 184  :     Word32 L_diff;
; 185  : 
; 186  :     L_diff = (Word32) var1 - var2;
; 187  :     var_out = saturate (L_diff);
; 188  : #if (WMOPS)
; 189  :     multiCounter[currCounter].sub++;
; 190  : #endif
; 191  :     return (var_out);
; 192  : }
; 193  : 
; 194  : /*___________________________________________________________________________
; 195  :  |                                                                           |
; 196  :  |   Function Name : abs_s                                                   |
; 197  :  |                                                                           |
; 198  :  |   Purpose :                                                               |
; 199  :  |                                                                           |
; 200  :  |    Absolute value of var1; abs_s(-32768) = 32767.                         |
; 201  :  |                                                                           |
; 202  :  |   Complexity weight : 1                                                   |
; 203  :  |                                                                           |
; 204  :  |   Inputs :                                                                |
; 205  :  |                                                                           |
; 206  :  |    var1                                                                   |
; 207  :  |             16 bit short signed integer (Word16) whose value falls in the |
; 208  :  |             range : 0xffff 8000 <= var1 <= 0x0000 7fff.                   |
; 209  :  |                                                                           |
; 210  :  |   Outputs :                                                               |
; 211  :  |                                                                           |
; 212  :  |    none                                                                   |
; 213  :  |                                                                           |
; 214  :  |   Return Value :                                                          |
; 215  :  |                                                                           |
; 216  :  |    var_out                                                                |
; 217  :  |             16 bit short signed integer (Word16) whose value falls in the |
; 218  :  |             range : 0x0000 0000 <= var_out <= 0x0000 7fff.                |
; 219  :  |___________________________________________________________________________|
; 220  : */
; 221  : 
; 222  : Word16 abs_s (Word16 var1)
; 223  : {
; 224  :     Word16 var_out;
; 225  : 
; 226  :     if (var1 == (Word16) 0X8000)
; 227  :     {
; 228  :         var_out = MAX_16;
; 229  :     }
; 230  :     else
; 231  :     {
; 232  :         if (var1 < 0)
; 233  :         {
; 234  :             var_out = -var1;
; 235  :         }
; 236  :         else
; 237  :         {
; 238  :             var_out = var1;
; 239  :         }
; 240  :     }
; 241  : #if (WMOPS)
; 242  :     multiCounter[currCounter].abs_s++;
; 243  : #endif
; 244  :     return (var_out);
; 245  : }
; 246  : 
; 247  : /*___________________________________________________________________________
; 248  :  |                                                                           |
; 249  :  |   Function Name : shl                                                     |
; 250  :  |                                                                           |
; 251  :  |   Purpose :                                                               |
; 252  :  |                                                                           |
; 253  :  |   Arithmetically shift the 16 bit input var1 left var2 positions.Zero fill|
; 254  :  |   the var2 LSB of the result. If var2 is negative, arithmetically shift   |
; 255  :  |   var1 right by -var2 with sign extension. Saturate the result in case of |
; 256  :  |   underflows or overflows.                                                |
; 257  :  |                                                                           |
; 258  :  |   Complexity weight : 1                                                   |
; 259  :  |                                                                           |
; 260  :  |   Inputs :                                                                |
; 261  :  |                                                                           |
; 262  :  |    var1                                                                   |
; 263  :  |             16 bit short signed integer (Word16) whose value falls in the |
; 264  :  |             range : 0xffff 8000 <= var1 <= 0x0000 7fff.                   |
; 265  :  |                                                                           |
; 266  :  |    var2                                                                   |
; 267  :  |             16 bit short signed integer (Word16) whose value falls in the |
; 268  :  |             range : 0xffff 8000 <= var1 <= 0x0000 7fff.                   |
; 269  :  |                                                                           |
; 270  :  |   Outputs :                                                               |
; 271  :  |                                                                           |
; 272  :  |    none                                                                   |
; 273  :  |                                                                           |
; 274  :  |   Return Value :                                                          |
; 275  :  |                                                                           |
; 276  :  |    var_out                                                                |
; 277  :  |             16 bit short signed integer (Word16) whose value falls in the |
; 278  :  |             range : 0xffff 8000 <= var_out <= 0x0000 7fff.                |
; 279  :  |___________________________________________________________________________|
; 280  : */
; 281  : 
; 282  : Word16 shl (Word16 var1, Word16 var2)
; 283  : {
; 284  :     Word16 var_out;
; 285  :     Word32 result;
; 286  : 
; 287  :     if (var2 < 0)
; 288  :     {
; 289  :         if (var2 < -16)
; 290  :             var2 = -16;
; 291  :         var_out = shr (var1, -var2);
; 292  : #if (WMOPS)
; 293  :         multiCounter[currCounter].shr--;
; 294  : #endif
; 295  :     }
; 296  :     else
; 297  :     {
; 298  :         result = (Word32) var1 *((Word32) 1 << var2);
; 299  : 
; 300  :         if ((var2 > 15 && var1 != 0) || (result != (Word32) ((Word16) result)))
; 301  :         {
; 302  :             Overflow = 1;
; 303  :             var_out = (var1 > 0) ? MAX_16 : MIN_16;
; 304  :         }
; 305  :         else
; 306  :         {
; 307  :             var_out = extract_l (result);
; 308  : #if (WMOPS)
; 309  :             multiCounter[currCounter].extract_l--;
; 310  : #endif
; 311  :         }
; 312  :     }
; 313  : #if (WMOPS)
; 314  :     multiCounter[currCounter].shl++;
; 315  : #endif
; 316  :     return (var_out);
; 317  : }
; 318  : 
; 319  : /*___________________________________________________________________________
; 320  :  |                                                                           |
; 321  :  |   Function Name : shr                                                     |
; 322  :  |                                                                           |
; 323  :  |   Purpose :                                                               |
; 324  :  |                                                                           |
; 325  :  |   Arithmetically shift the 16 bit input var1 right var2 positions with    |
; 326  :  |   sign extension. If var2 is negative, arithmetically shift var1 left by  |
; 327  :  |   -var2 with sign extension. Saturate the result in case of underflows or |
; 328  :  |   overflows.                                                              |
; 329  :  |                                                                           |
; 330  :  |   Complexity weight : 1                                                   |
; 331  :  |                                                                           |
; 332  :  |   Inputs :                                                                |
; 333  :  |                                                                           |
; 334  :  |    var1                                                                   |
; 335  :  |             16 bit short signed integer (Word16) whose value falls in the |
; 336  :  |             range : 0xffff 8000 <= var1 <= 0x0000 7fff.                   |
; 337  :  |                                                                           |
; 338  :  |    var2                                                                   |
; 339  :  |             16 bit short signed integer (Word16) whose value falls in the |
; 340  :  |             range : 0xffff 8000 <= var1 <= 0x0000 7fff.                   |
; 341  :  |                                                                           |
; 342  :  |   Outputs :                                                               |
; 343  :  |                                                                           |
; 344  :  |    none                                                                   |
; 345  :  |                                                                           |
; 346  :  |   Return Value :                                                          |
; 347  :  |                                                                           |
; 348  :  |    var_out                                                                |
; 349  :  |             16 bit short signed integer (Word16) whose value falls in the |
; 350  :  |             range : 0xffff 8000 <= var_out <= 0x0000 7fff.                |
; 351  :  |___________________________________________________________________________|
; 352  : */
; 353  : 
; 354  : Word16 shr (Word16 var1, Word16 var2)
; 355  : {
; 356  :     Word16 var_out;
; 357  : 
; 358  :     if (var2 < 0)
; 359  :     {
; 360  :         if (var2 < -16)
; 361  :             var2 = -16;
; 362  :         var_out = shl (var1, -var2);
; 363  : #if (WMOPS)
; 364  :         multiCounter[currCounter].shl--;
; 365  : #endif
; 366  :     }
; 367  :     else
; 368  :     {
; 369  :         if (var2 >= 15)
; 370  :         {
; 371  :             var_out = (var1 < 0) ? -1 : 0;
; 372  :         }
; 373  :         else
; 374  :         {
; 375  :             if (var1 < 0)
; 376  :             {
; 377  :                 var_out = ~((~var1) >> var2);
; 378  :             }
; 379  :             else
; 380  :             {
; 381  :                 var_out = var1 >> var2;
; 382  :             }
; 383  :         }
; 384  :     }
; 385  : 
; 386  : #if (WMOPS)
; 387  :     multiCounter[currCounter].shr++;
; 388  : #endif
; 389  :     return (var_out);
; 390  : }
; 391  : 
; 392  : /*___________________________________________________________________________
; 393  :  |                                                                           |
; 394  :  |   Function Name : mult                                                    |
; 395  :  |                                                                           |
; 396  :  |   Purpose :                                                               |
; 397  :  |                                                                           |
; 398  :  |    Performs the multiplication of var1 by var2 and gives a 16 bit result  |
; 399  :  |    which is scaled i.e.:                                                  |
; 400  :  |             mult(var1,var2) = extract_l(L_shr((var1 times var2),15)) and  |
; 401  :  |             mult(-32768,-32768) = 32767.                                  |
; 402  :  |                                                                           |
; 403  :  |   Complexity weight : 1                                                   |
; 404  :  |                                                                           |
; 405  :  |   Inputs :                                                                |
; 406  :  |                                                                           |
; 407  :  |    var1                                                                   |
; 408  :  |             16 bit short signed integer (Word16) whose value falls in the |
; 409  :  |             range : 0xffff 8000 <= var1 <= 0x0000 7fff.                   |
; 410  :  |                                                                           |
; 411  :  |    var2                                                                   |
; 412  :  |             16 bit short signed integer (Word16) whose value falls in the |
; 413  :  |             range : 0xffff 8000 <= var1 <= 0x0000 7fff.                   |
; 414  :  |                                                                           |
; 415  :  |   Outputs :                                                               |
; 416  :  |                                                                           |
; 417  :  |    none                                                                   |
; 418  :  |                                                                           |
; 419  :  |   Return Value :                                                          |
; 420  :  |                                                                           |
; 421  :  |    var_out                                                                |
; 422  :  |             16 bit short signed integer (Word16) whose value falls in the |
; 423  :  |             range : 0xffff 8000 <= var_out <= 0x0000 7fff.                |
; 424  :  |___________________________________________________________________________|
; 425  : */
; 426  : 
; 427  : Word16 mult (Word16 var1, Word16 var2)
; 428  : {
; 429  :     Word16 var_out;
; 430  :     Word32 L_product;
; 431  : 
; 432  :     L_product = (Word32) var1 *(Word32) var2;

  0002b	0f bf c2	 movsx	 eax, dx
  0002e	0f af c6	 imul	 eax, esi
  00031	5e		 pop	 esi

; 433  : 
; 434  :     L_product = (L_product & (Word32) 0xffff8000L) >> 15;

  00032	c1 f8 0f	 sar	 eax, 15			; 0000000fH

; 435  : 
; 436  :     if (L_product & (Word32) 0x00010000L)

  00035	a9 00 00 01 00	 test	 eax, 65536		; 00010000H
  0003a	74 05		 je	 SHORT $LN7@Mpy_32_16

; 437  :         L_product = L_product | (Word32) 0xffff0000L;

  0003c	0d 00 00 ff ff	 or	 eax, -65536		; ffff0000H
$LN7@Mpy_32_16:

; 79   :     if (L_var1 > 0X00007fffL)

  00041	3d ff 7f 00 00	 cmp	 eax, 32767		; 00007fffH
  00046	7e 11		 jle	 SHORT $LN13@Mpy_32_16

; 80   :     {
; 81   :         Overflow = 1;

  00048	c7 05 00 00 00
	00 01 00 00 00	 mov	 DWORD PTR _Overflow, 1

; 82   :         var_out = MAX_16;

  00052	b8 ff 7f 00 00	 mov	 eax, 32767		; 00007fffH
  00057	eb 1b		 jmp	 SHORT $LN10@Mpy_32_16
$LN13@Mpy_32_16:

; 83   :     }
; 84   :     else if (L_var1 < (Word32) 0xffff8000L)

  00059	3d 00 80 ff ff	 cmp	 eax, -32768		; ffff8000H
  0005e	7d 11		 jge	 SHORT $LN11@Mpy_32_16

; 85   :     {
; 86   :         Overflow = 1;

  00060	c7 05 00 00 00
	00 01 00 00 00	 mov	 DWORD PTR _Overflow, 1

; 87   :         var_out = MIN_16;

  0006a	b8 00 80 ff ff	 mov	 eax, -32768		; ffff8000H

; 88   :     }
; 89   :     else

  0006f	eb 03		 jmp	 SHORT $LN10@Mpy_32_16
$LN11@Mpy_32_16:

; 90   :     {
; 91   :         var_out = extract_l (L_var1);

  00071	0f b7 c0	 movzx	 eax, ax
$LN10@Mpy_32_16:

; 485  :     L_var_out = (Word32) var1 *(Word32) var2;

  00074	98		 cwde

; 486  : 
; 487  :     if (L_var_out != (Word32) 0x40000000L)

  00075	3d 00 00 00 40	 cmp	 eax, 1073741824		; 40000000H
  0007a	74 04		 je	 SHORT $LN21@Mpy_32_16

; 488  :     {
; 489  :         L_var_out *= 2;

  0007c	03 c0		 add	 eax, eax

; 490  :     }
; 491  :     else

  0007e	eb 0f		 jmp	 SHORT $LN20@Mpy_32_16
$LN21@Mpy_32_16:

; 492  :     {
; 493  :         Overflow = 1;

  00080	c7 05 00 00 00
	00 01 00 00 00	 mov	 DWORD PTR _Overflow, 1

; 494  :         L_var_out = MAX_32;

  0008a	b8 ff ff ff 7f	 mov	 eax, 2147483647		; 7fffffffH
$LN20@Mpy_32_16:

; 495  :     }
; 496  : 
; 497  : #if (WMOPS)
; 498  :     multiCounter[currCounter].L_mult++;
; 499  : #endif
; 500  :     return (L_var_out);
; 501  : }
; 502  : 
; 503  : /*___________________________________________________________________________
; 504  :  |                                                                           |
; 505  :  |   Function Name : negate                                                  |
; 506  :  |                                                                           |
; 507  :  |   Purpose :                                                               |
; 508  :  |                                                                           |
; 509  :  |   Negate var1 with saturation, saturate in the case where input is -32768:|
; 510  :  |                negate(var1) = sub(0,var1).                                |
; 511  :  |                                                                           |
; 512  :  |   Complexity weight : 1                                                   |
; 513  :  |                                                                           |
; 514  :  |   Inputs :                                                                |
; 515  :  |                                                                           |
; 516  :  |    var1                                                                   |
; 517  :  |             16 bit short signed integer (Word16) whose value falls in the |
; 518  :  |             range : 0xffff 8000 <= var1 <= 0x0000 7fff.                   |
; 519  :  |                                                                           |
; 520  :  |   Outputs :                                                               |
; 521  :  |                                                                           |
; 522  :  |    none                                                                   |
; 523  :  |                                                                           |
; 524  :  |   Return Value :                                                          |
; 525  :  |                                                                           |
; 526  :  |    var_out                                                                |
; 527  :  |             16 bit short signed integer (Word16) whose value falls in the |
; 528  :  |             range : 0xffff 8000 <= var_out <= 0x0000 7fff.                |
; 529  :  |___________________________________________________________________________|
; 530  : */
; 531  : 
; 532  : Word16 negate (Word16 var1)
; 533  : {
; 534  :     Word16 var_out;
; 535  : 
; 536  :     var_out = (var1 == MIN_16) ? MAX_16 : -var1;
; 537  : #if (WMOPS)
; 538  :     multiCounter[currCounter].negate++;
; 539  : #endif
; 540  :     return (var_out);
; 541  : }
; 542  : 
; 543  : /*___________________________________________________________________________
; 544  :  |                                                                           |
; 545  :  |   Function Name : extract_h                                               |
; 546  :  |                                                                           |
; 547  :  |   Purpose :                                                               |
; 548  :  |                                                                           |
; 549  :  |   Return the 16 MSB of L_var1.                                            |
; 550  :  |                                                                           |
; 551  :  |   Complexity weight : 1                                                   |
; 552  :  |                                                                           |
; 553  :  |   Inputs :                                                                |
; 554  :  |                                                                           |
; 555  :  |    L_var1                                                                 |
; 556  :  |             32 bit long signed integer (Word32 ) whose value falls in the |
; 557  :  |             range : 0x8000 0000 <= L_var1 <= 0x7fff ffff.                 |
; 558  :  |                                                                           |
; 559  :  |   Outputs :                                                               |
; 560  :  |                                                                           |
; 561  :  |    none                                                                   |
; 562  :  |                                                                           |
; 563  :  |   Return Value :                                                          |
; 564  :  |                                                                           |
; 565  :  |    var_out                                                                |
; 566  :  |             16 bit short signed integer (Word16) whose value falls in the |
; 567  :  |             range : 0xffff 8000 <= var_out <= 0x0000 7fff.                |
; 568  :  |___________________________________________________________________________|
; 569  : */
; 570  : 
; 571  : Word16 extract_h (Word32 L_var1)
; 572  : {
; 573  :     Word16 var_out;
; 574  : 
; 575  :     var_out = (Word16) (L_var1 >> 16);
; 576  : #if (WMOPS)
; 577  :     multiCounter[currCounter].extract_h++;
; 578  : #endif
; 579  :     return (var_out);
; 580  : }
; 581  : 
; 582  : /*___________________________________________________________________________
; 583  :  |                                                                           |
; 584  :  |   Function Name : extract_l                                               |
; 585  :  |                                                                           |
; 586  :  |   Purpose :                                                               |
; 587  :  |                                                                           |
; 588  :  |   Return the 16 LSB of L_var1.                                            |
; 589  :  |                                                                           |
; 590  :  |   Complexity weight : 1                                                   |
; 591  :  |                                                                           |
; 592  :  |   Inputs :                                                                |
; 593  :  |                                                                           |
; 594  :  |    L_var1                                                                 |
; 595  :  |             32 bit long signed integer (Word32 ) whose value falls in the |
; 596  :  |             range : 0x8000 0000 <= L_var1 <= 0x7fff ffff.                 |
; 597  :  |                                                                           |
; 598  :  |   Outputs :                                                               |
; 599  :  |                                                                           |
; 600  :  |    none                                                                   |
; 601  :  |                                                                           |
; 602  :  |   Return Value :                                                          |
; 603  :  |                                                                           |
; 604  :  |    var_out                                                                |
; 605  :  |             16 bit short signed integer (Word16) whose value falls in the |
; 606  :  |             range : 0xffff 8000 <= var_out <= 0x0000 7fff.                |
; 607  :  |___________________________________________________________________________|
; 608  : */
; 609  : 
; 610  : Word16 extract_l (Word32 L_var1)
; 611  : {
; 612  :     Word16 var_out;
; 613  : 
; 614  :     var_out = (Word16) L_var1;
; 615  : #if (WMOPS)
; 616  :     multiCounter[currCounter].extract_l++;
; 617  : #endif
; 618  :     return (var_out);
; 619  : }
; 620  : 
; 621  : /*___________________________________________________________________________
; 622  :  |                                                                           |
; 623  :  |   Function Name : round                                                   |
; 624  :  |                                                                           |
; 625  :  |   Purpose :                                                               |
; 626  :  |                                                                           |
; 627  :  |   Round the lower 16 bits of the 32 bit input number into the MS 16 bits  |
; 628  :  |   with saturation. Shift the resulting bits right by 16 and return the 16 |
; 629  :  |   bit number:                                                             |
; 630  :  |               round(L_var1) = extract_h(L_add(L_var1,32768))              |
; 631  :  |                                                                           |
; 632  :  |   Complexity weight : 1                                                   |
; 633  :  |                                                                           |
; 634  :  |   Inputs :                                                                |
; 635  :  |                                                                           |
; 636  :  |    L_var1                                                                 |
; 637  :  |             32 bit long signed integer (Word32 ) whose value falls in the |
; 638  :  |             range : 0x8000 0000 <= L_var1 <= 0x7fff ffff.                 |
; 639  :  |                                                                           |
; 640  :  |   Outputs :                                                               |
; 641  :  |                                                                           |
; 642  :  |    none                                                                   |
; 643  :  |                                                                           |
; 644  :  |   Return Value :                                                          |
; 645  :  |                                                                           |
; 646  :  |    var_out                                                                |
; 647  :  |             16 bit short signed integer (Word16) whose value falls in the |
; 648  :  |             range : 0xffff 8000 <= var_out <= 0x0000 7fff.                |
; 649  :  |___________________________________________________________________________|
; 650  : */
; 651  : 
; 652  : Word16 round (Word32 L_var1)
; 653  : {
; 654  :     Word16 var_out;
; 655  :     Word32 L_rounded;
; 656  : 
; 657  :     L_rounded = L_add (L_var1, (Word32) 0x00008000L);
; 658  : #if (WMOPS)
; 659  :     multiCounter[currCounter].L_add--;
; 660  : #endif
; 661  :     var_out = extract_h (L_rounded);
; 662  : #if (WMOPS)
; 663  :     multiCounter[currCounter].extract_h--;
; 664  :     multiCounter[currCounter].round++;
; 665  : #endif
; 666  :     return (var_out);
; 667  : }
; 668  : 
; 669  : /*___________________________________________________________________________
; 670  :  |                                                                           |
; 671  :  |   Function Name : L_mac                                                   |
; 672  :  |                                                                           |
; 673  :  |   Purpose :                                                               |
; 674  :  |                                                                           |
; 675  :  |   Multiply var1 by var2 and shift the result left by 1. Add the 32 bit    |
; 676  :  |   result to L_var3 with saturation, return a 32 bit result:               |
; 677  :  |        L_mac(L_var3,var1,var2) = L_add(L_var3,L_mult(var1,var2)).         |
; 678  :  |                                                                           |
; 679  :  |   Complexity weight : 1                                                   |
; 680  :  |                                                                           |
; 681  :  |   Inputs :                                                                |
; 682  :  |                                                                           |
; 683  :  |    L_var3   32 bit long signed integer (Word32) whose value falls in the  |
; 684  :  |             range : 0x8000 0000 <= L_var3 <= 0x7fff ffff.                 |
; 685  :  |                                                                           |
; 686  :  |    var1                                                                   |
; 687  :  |             16 bit short signed integer (Word16) whose value falls in the |
; 688  :  |             range : 0xffff 8000 <= var1 <= 0x0000 7fff.                   |
; 689  :  |                                                                           |
; 690  :  |    var2                                                                   |
; 691  :  |             16 bit short signed integer (Word16) whose value falls in the |
; 692  :  |             range : 0xffff 8000 <= var1 <= 0x0000 7fff.                   |
; 693  :  |                                                                           |
; 694  :  |   Outputs :                                                               |
; 695  :  |                                                                           |
; 696  :  |    none                                                                   |
; 697  :  |                                                                           |
; 698  :  |   Return Value :                                                          |
; 699  :  |                                                                           |
; 700  :  |    L_var_out                                                              |
; 701  :  |             32 bit long signed integer (Word32) whose value falls in the  |
; 702  :  |             range : 0x8000 0000 <= L_var_out <= 0x7fff ffff.              |
; 703  :  |___________________________________________________________________________|
; 704  : */
; 705  : 
; 706  : Word32 L_mac (Word32 L_var3, Word16 var1, Word16 var2)
; 707  : {
; 708  :     Word32 L_var_out;
; 709  :     Word32 L_product;
; 710  : 
; 711  :     L_product = L_mult (var1, var2);
; 712  : #if (WMOPS)
; 713  :     multiCounter[currCounter].L_mult--;
; 714  : #endif
; 715  :     L_var_out = L_add (L_var3, L_product);
; 716  : #if (WMOPS)
; 717  :     multiCounter[currCounter].L_add--;
; 718  :     multiCounter[currCounter].L_mac++;
; 719  : #endif
; 720  :     return (L_var_out);
; 721  : }
; 722  : 
; 723  : /*___________________________________________________________________________
; 724  :  |                                                                           |
; 725  :  |   Function Name : L_msu                                                   |
; 726  :  |                                                                           |
; 727  :  |   Purpose :                                                               |
; 728  :  |                                                                           |
; 729  :  |   Multiply var1 by var2 and shift the result left by 1. Subtract the 32   |
; 730  :  |   bit result to L_var3 with saturation, return a 32 bit result:           |
; 731  :  |        L_msu(L_var3,var1,var2) = L_sub(L_var3,L_mult(var1,var2)).         |
; 732  :  |                                                                           |
; 733  :  |   Complexity weight : 1                                                   |
; 734  :  |                                                                           |
; 735  :  |   Inputs :                                                                |
; 736  :  |                                                                           |
; 737  :  |    L_var3   32 bit long signed integer (Word32) whose value falls in the  |
; 738  :  |             range : 0x8000 0000 <= L_var3 <= 0x7fff ffff.                 |
; 739  :  |                                                                           |
; 740  :  |    var1                                                                   |
; 741  :  |             16 bit short signed integer (Word16) whose value falls in the |
; 742  :  |             range : 0xffff 8000 <= var1 <= 0x0000 7fff.                   |
; 743  :  |                                                                           |
; 744  :  |    var2                                                                   |
; 745  :  |             16 bit short signed integer (Word16) whose value falls in the |
; 746  :  |             range : 0xffff 8000 <= var1 <= 0x0000 7fff.                   |
; 747  :  |                                                                           |
; 748  :  |   Outputs :                                                               |
; 749  :  |                                                                           |
; 750  :  |    none                                                                   |
; 751  :  |                                                                           |
; 752  :  |   Return Value :                                                          |
; 753  :  |                                                                           |
; 754  :  |    L_var_out                                                              |
; 755  :  |             32 bit long signed integer (Word32) whose value falls in the  |
; 756  :  |             range : 0x8000 0000 <= L_var_out <= 0x7fff ffff.              |
; 757  :  |___________________________________________________________________________|
; 758  : */
; 759  : 
; 760  : Word32 L_msu (Word32 L_var3, Word16 var1, Word16 var2)
; 761  : {
; 762  :     Word32 L_var_out;
; 763  :     Word32 L_product;
; 764  : 
; 765  :     L_product = L_mult (var1, var2);
; 766  : #if (WMOPS)
; 767  :     multiCounter[currCounter].L_mult--;
; 768  : #endif
; 769  :     L_var_out = L_sub (L_var3, L_product);
; 770  : #if (WMOPS)
; 771  :     multiCounter[currCounter].L_sub--;
; 772  :     multiCounter[currCounter].L_msu++;
; 773  : #endif
; 774  :     return (L_var_out);
; 775  : }
; 776  : 
; 777  : /*___________________________________________________________________________
; 778  :  |                                                                           |
; 779  :  |   Function Name : L_macNs                                                 |
; 780  :  |                                                                           |
; 781  :  |   Purpose :                                                               |
; 782  :  |                                                                           |
; 783  :  |   Multiply var1 by var2 and shift the result left by 1. Add the 32 bit    |
; 784  :  |   result to L_var3 without saturation, return a 32 bit result. Generate   |
; 785  :  |   carry and overflow values :                                             |
; 786  :  |        L_macNs(L_var3,var1,var2) = L_add_c(L_var3,L_mult(var1,var2)).     |
; 787  :  |                                                                           |
; 788  :  |   Complexity weight : 1                                                   |
; 789  :  |                                                                           |
; 790  :  |   Inputs :                                                                |
; 791  :  |                                                                           |
; 792  :  |    L_var3   32 bit long signed integer (Word32) whose value falls in the  |
; 793  :  |             range : 0x8000 0000 <= L_var3 <= 0x7fff ffff.                 |
; 794  :  |                                                                           |
; 795  :  |    var1                                                                   |
; 796  :  |             16 bit short signed integer (Word16) whose value falls in the |
; 797  :  |             range : 0xffff 8000 <= var1 <= 0x0000 7fff.                   |
; 798  :  |                                                                           |
; 799  :  |    var2                                                                   |
; 800  :  |             16 bit short signed integer (Word16) whose value falls in the |
; 801  :  |             range : 0xffff 8000 <= var1 <= 0x0000 7fff.                   |
; 802  :  |                                                                           |
; 803  :  |   Outputs :                                                               |
; 804  :  |                                                                           |
; 805  :  |    none                                                                   |
; 806  :  |                                                                           |
; 807  :  |   Return Value :                                                          |
; 808  :  |                                                                           |
; 809  :  |    L_var_out                                                              |
; 810  :  |             32 bit long signed integer (Word32) whose value falls in the  |
; 811  :  |             range : 0x8000 0000 <= L_var_out <= 0x7fff ffff.              |
; 812  :  |                                                                           |
; 813  :  |   Caution :                                                               |
; 814  :  |                                                                           |
; 815  :  |    In some cases the Carry flag has to be cleared or set before using     |
; 816  :  |    operators which take into account its value.                           |
; 817  :  |___________________________________________________________________________|
; 818  : */
; 819  : 
; 820  : Word32 L_macNs (Word32 L_var3, Word16 var1, Word16 var2)
; 821  : {
; 822  :     Word32 L_var_out;
; 823  : 
; 824  :     L_var_out = L_mult (var1, var2);
; 825  : #if (WMOPS)
; 826  :     multiCounter[currCounter].L_mult--;
; 827  : #endif
; 828  :     L_var_out = L_add_c (L_var3, L_var_out);
; 829  : #if (WMOPS)
; 830  :     multiCounter[currCounter].L_add_c--;
; 831  :     multiCounter[currCounter].L_macNs++;
; 832  : #endif
; 833  :     return (L_var_out);
; 834  : }
; 835  : 
; 836  : /*___________________________________________________________________________
; 837  :  |                                                                           |
; 838  :  |   Function Name : L_msuNs                                                 |
; 839  :  |                                                                           |
; 840  :  |   Purpose :                                                               |
; 841  :  |                                                                           |
; 842  :  |   Multiply var1 by var2 and shift the result left by 1. Subtract the 32   |
; 843  :  |   bit result from L_var3 without saturation, return a 32 bit result. Ge-  |
; 844  :  |   nerate carry and overflow values :                                      |
; 845  :  |        L_msuNs(L_var3,var1,var2) = L_sub_c(L_var3,L_mult(var1,var2)).     |
; 846  :  |                                                                           |
; 847  :  |   Complexity weight : 1                                                   |
; 848  :  |                                                                           |
; 849  :  |   Inputs :                                                                |
; 850  :  |                                                                           |
; 851  :  |    L_var3   32 bit long signed integer (Word32) whose value falls in the  |
; 852  :  |             range : 0x8000 0000 <= L_var3 <= 0x7fff ffff.                 |
; 853  :  |                                                                           |
; 854  :  |    var1                                                                   |
; 855  :  |             16 bit short signed integer (Word16) whose value falls in the |
; 856  :  |             range : 0xffff 8000 <= var1 <= 0x0000 7fff.                   |
; 857  :  |                                                                           |
; 858  :  |    var2                                                                   |
; 859  :  |             16 bit short signed integer (Word16) whose value falls in the |
; 860  :  |             range : 0xffff 8000 <= var1 <= 0x0000 7fff.                   |
; 861  :  |                                                                           |
; 862  :  |   Outputs :                                                               |
; 863  :  |                                                                           |
; 864  :  |    none                                                                   |
; 865  :  |                                                                           |
; 866  :  |   Return Value :                                                          |
; 867  :  |                                                                           |
; 868  :  |    L_var_out                                                              |
; 869  :  |             32 bit long signed integer (Word32) whose value falls in the  |
; 870  :  |             range : 0x8000 0000 <= L_var_out <= 0x7fff ffff.              |
; 871  :  |                                                                           |
; 872  :  |   Caution :                                                               |
; 873  :  |                                                                           |
; 874  :  |    In some cases the Carry flag has to be cleared or set before using     |
; 875  :  |    operators which take into account its value.                           |
; 876  :  |___________________________________________________________________________|
; 877  : */
; 878  : 
; 879  : Word32 L_msuNs (Word32 L_var3, Word16 var1, Word16 var2)
; 880  : {
; 881  :     Word32 L_var_out;
; 882  : 
; 883  :     L_var_out = L_mult (var1, var2);
; 884  : #if (WMOPS)
; 885  :     multiCounter[currCounter].L_mult--;
; 886  : #endif
; 887  :     L_var_out = L_sub_c (L_var3, L_var_out);
; 888  : #if (WMOPS)
; 889  :     multiCounter[currCounter].L_sub_c--;
; 890  :     multiCounter[currCounter].L_msuNs++;
; 891  : #endif
; 892  :     return (L_var_out);
; 893  : }
; 894  : 
; 895  : /*___________________________________________________________________________
; 896  :  |                                                                           |
; 897  :  |   Function Name : L_add                                                   |
; 898  :  |                                                                           |
; 899  :  |   Purpose :                                                               |
; 900  :  |                                                                           |
; 901  :  |   32 bits addition of the two 32 bits variables (L_var1+L_var2) with      |
; 902  :  |   overflow control and saturation; the result is set at +2147483647 when  |
; 903  :  |   overflow occurs or at -2147483648 when underflow occurs.                |
; 904  :  |                                                                           |
; 905  :  |   Complexity weight : 2                                                   |
; 906  :  |                                                                           |
; 907  :  |   Inputs :                                                                |
; 908  :  |                                                                           |
; 909  :  |    L_var1   32 bit long signed integer (Word32) whose value falls in the  |
; 910  :  |             range : 0x8000 0000 <= L_var3 <= 0x7fff ffff.                 |
; 911  :  |                                                                           |
; 912  :  |    L_var2   32 bit long signed integer (Word32) whose value falls in the  |
; 913  :  |             range : 0x8000 0000 <= L_var3 <= 0x7fff ffff.                 |
; 914  :  |                                                                           |
; 915  :  |   Outputs :                                                               |
; 916  :  |                                                                           |
; 917  :  |    none                                                                   |
; 918  :  |                                                                           |
; 919  :  |   Return Value :                                                          |
; 920  :  |                                                                           |
; 921  :  |    L_var_out                                                              |
; 922  :  |             32 bit long signed integer (Word32) whose value falls in the  |
; 923  :  |             range : 0x8000 0000 <= L_var_out <= 0x7fff ffff.              |
; 924  :  |___________________________________________________________________________|
; 925  : */
; 926  : 
; 927  : Word32 L_add (Word32 L_var1, Word32 L_var2)
; 928  : {
; 929  :     Word32 L_var_out;
; 930  : 
; 931  :     L_var_out = L_var1 + L_var2;

  0008f	8d 14 08	 lea	 edx, DWORD PTR [eax+ecx]

; 932  : 
; 933  :     if (((L_var1 ^ L_var2) & MIN_32) == 0)

  00092	33 c1		 xor	 eax, ecx

; 934  :     {
; 935  :         if ((L_var_out ^ L_var1) & MIN_32)

  00094	8b c2		 mov	 eax, edx
  00096	78 1e		 js	 SHORT $LN24@Mpy_32_16
  00098	33 c1		 xor	 eax, ecx
  0009a	79 18		 jns	 SHORT $LN28@Mpy_32_16

; 936  :         {
; 937  :             L_var_out = (L_var1 < 0) ? MIN_32 : MAX_32;

  0009c	33 c0		 xor	 eax, eax

; 938  :             Overflow = 1;

  0009e	c7 05 00 00 00
	00 01 00 00 00	 mov	 DWORD PTR _Overflow, 1
  000a8	85 c9		 test	 ecx, ecx
  000aa	0f 98 c0	 sets	 al
  000ad	05 ff ff ff 7f	 add	 eax, 2147483647		; 7fffffffH
; File e:\mywork\client\pc2.0trunk\pc2.0\third_party\libamrplayer\amr\oper_32b.c

; 138  : }

  000b2	5d		 pop	 ebp
  000b3	c3		 ret	 0
$LN28@Mpy_32_16:

; 132  :     Word32 L_32;
; 133  : 
; 134  :     L_32 = L_mult (hi, n);
; 135  :     L_32 = L_mac (L_32, mult (lo, n), 1);
; 136  : 
; 137  :     return (L_32);

  000b4	8b c2		 mov	 eax, edx
$LN24@Mpy_32_16:

; 138  : }

  000b6	5d		 pop	 ebp
  000b7	c3		 ret	 0
_Mpy_32_16 ENDP
_TEXT	ENDS
; Function compile flags: /Ogtp
; File e:\mywork\client\pc2.0trunk\pc2.0\third_party\libamrplayer\amr\oper_32b.c
; File e:\mywork\client\pc2.0trunk\pc2.0\third_party\libamrplayer\amr\basicop2.c
; File e:\mywork\client\pc2.0trunk\pc2.0\third_party\libamrplayer\amr\oper_32b.c
; File e:\mywork\client\pc2.0trunk\pc2.0\third_party\libamrplayer\amr\basicop2.c
; File e:\mywork\client\pc2.0trunk\pc2.0\third_party\libamrplayer\amr\oper_32b.c
; File e:\mywork\client\pc2.0trunk\pc2.0\third_party\libamrplayer\amr\basicop2.c
; File e:\mywork\client\pc2.0trunk\pc2.0\third_party\libamrplayer\amr\oper_32b.c
;	COMDAT _L_Extract
_TEXT	SEGMENT
_lo$ = 8						; size = 4
_L_Extract PROC						; COMDAT
; _L_32$ = ecx
; _hi$ = edx

; 46   : {

  00000	55		 push	 ebp
  00001	8b ec		 mov	 ebp, esp
  00003	56		 push	 esi
  00004	8b f1		 mov	 esi, ecx
; File e:\mywork\client\pc2.0trunk\pc2.0\third_party\libamrplayer\amr\basicop2.c

; 575  :     var_out = (Word16) (L_var1 >> 16);

  00006	8b c6		 mov	 eax, esi
  00008	c1 f8 10	 sar	 eax, 16			; 00000010H
; File e:\mywork\client\pc2.0trunk\pc2.0\third_party\libamrplayer\amr\oper_32b.c

; 47   :     *hi = extract_h (L_32);

  0000b	66 89 02	 mov	 WORD PTR [edx], ax
; File e:\mywork\client\pc2.0trunk\pc2.0\third_party\libamrplayer\amr\basicop2.c

; 1437 :             if (L_var1 < 0)

  0000e	85 f6		 test	 esi, esi
  00010	79 08		 jns	 SHORT $LN6@L_Extract

; 1438 :             {
; 1439 :                 L_var_out = ~((~L_var1) >> var2);

  00012	f7 d6		 not	 esi
  00014	d1 fe		 sar	 esi, 1
  00016	f7 d6		 not	 esi

; 1440 :             }
; 1441 :             else

  00018	eb 02		 jmp	 SHORT $LN5@L_Extract
$LN6@L_Extract:

; 1442 :             {
; 1443 :                 L_var_out = L_var1 >> var2;

  0001a	d1 fe		 sar	 esi, 1
$LN5@L_Extract:

; 485  :     L_var_out = (Word32) var1 *(Word32) var2;

  0001c	98		 cwde
  0001d	c1 e0 0e	 shl	 eax, 14			; 0000000eH

; 486  : 
; 487  :     if (L_var_out != (Word32) 0x40000000L)

  00020	3d 00 00 00 40	 cmp	 eax, 1073741824		; 40000000H
  00025	74 04		 je	 SHORT $LN17@L_Extract

; 488  :     {
; 489  :         L_var_out *= 2;

  00027	03 c0		 add	 eax, eax

; 490  :     }
; 491  :     else

  00029	eb 0f		 jmp	 SHORT $LN16@L_Extract
$LN17@L_Extract:

; 492  :     {
; 493  :         Overflow = 1;

  0002b	c7 05 00 00 00
	00 01 00 00 00	 mov	 DWORD PTR _Overflow, 1

; 494  :         L_var_out = MAX_32;

  00035	b8 ff ff ff 7f	 mov	 eax, 2147483647		; 7fffffffH
$LN16@L_Extract:

; 576  : #if (WMOPS)
; 577  :     multiCounter[currCounter].extract_h++;
; 578  : #endif
; 579  :     return (var_out);
; 580  : }
; 581  : 
; 582  : /*___________________________________________________________________________
; 583  :  |                                                                           |
; 584  :  |   Function Name : extract_l                                               |
; 585  :  |                                                                           |
; 586  :  |   Purpose :                                                               |
; 587  :  |                                                                           |
; 588  :  |   Return the 16 LSB of L_var1.                                            |
; 589  :  |                                                                           |
; 590  :  |   Complexity weight : 1                                                   |
; 591  :  |                                                                           |
; 592  :  |   Inputs :                                                                |
; 593  :  |                                                                           |
; 594  :  |    L_var1                                                                 |
; 595  :  |             32 bit long signed integer (Word32 ) whose value falls in the |
; 596  :  |             range : 0x8000 0000 <= L_var1 <= 0x7fff ffff.                 |
; 597  :  |                                                                           |
; 598  :  |   Outputs :                                                               |
; 599  :  |                                                                           |
; 600  :  |    none                                                                   |
; 601  :  |                                                                           |
; 602  :  |   Return Value :                                                          |
; 603  :  |                                                                           |
; 604  :  |    var_out                                                                |
; 605  :  |             16 bit short signed integer (Word16) whose value falls in the |
; 606  :  |             range : 0xffff 8000 <= var_out <= 0x0000 7fff.                |
; 607  :  |___________________________________________________________________________|
; 608  : */
; 609  : 
; 610  : Word16 extract_l (Word32 L_var1)
; 611  : {
; 612  :     Word16 var_out;
; 613  : 
; 614  :     var_out = (Word16) L_var1;
; 615  : #if (WMOPS)
; 616  :     multiCounter[currCounter].extract_l++;
; 617  : #endif
; 618  :     return (var_out);
; 619  : }
; 620  : 
; 621  : /*___________________________________________________________________________
; 622  :  |                                                                           |
; 623  :  |   Function Name : round                                                   |
; 624  :  |                                                                           |
; 625  :  |   Purpose :                                                               |
; 626  :  |                                                                           |
; 627  :  |   Round the lower 16 bits of the 32 bit input number into the MS 16 bits  |
; 628  :  |   with saturation. Shift the resulting bits right by 16 and return the 16 |
; 629  :  |   bit number:                                                             |
; 630  :  |               round(L_var1) = extract_h(L_add(L_var1,32768))              |
; 631  :  |                                                                           |
; 632  :  |   Complexity weight : 1                                                   |
; 633  :  |                                                                           |
; 634  :  |   Inputs :                                                                |
; 635  :  |                                                                           |
; 636  :  |    L_var1                                                                 |
; 637  :  |             32 bit long signed integer (Word32 ) whose value falls in the |
; 638  :  |             range : 0x8000 0000 <= L_var1 <= 0x7fff ffff.                 |
; 639  :  |                                                                           |
; 640  :  |   Outputs :                                                               |
; 641  :  |                                                                           |
; 642  :  |    none                                                                   |
; 643  :  |                                                                           |
; 644  :  |   Return Value :                                                          |
; 645  :  |                                                                           |
; 646  :  |    var_out                                                                |
; 647  :  |             16 bit short signed integer (Word16) whose value falls in the |
; 648  :  |             range : 0xffff 8000 <= var_out <= 0x0000 7fff.                |
; 649  :  |___________________________________________________________________________|
; 650  : */
; 651  : 
; 652  : Word16 round (Word32 L_var1)
; 653  : {
; 654  :     Word16 var_out;
; 655  :     Word32 L_rounded;
; 656  : 
; 657  :     L_rounded = L_add (L_var1, (Word32) 0x00008000L);
; 658  : #if (WMOPS)
; 659  :     multiCounter[currCounter].L_add--;
; 660  : #endif
; 661  :     var_out = extract_h (L_rounded);
; 662  : #if (WMOPS)
; 663  :     multiCounter[currCounter].extract_h--;
; 664  :     multiCounter[currCounter].round++;
; 665  : #endif
; 666  :     return (var_out);
; 667  : }
; 668  : 
; 669  : /*___________________________________________________________________________
; 670  :  |                                                                           |
; 671  :  |   Function Name : L_mac                                                   |
; 672  :  |                                                                           |
; 673  :  |   Purpose :                                                               |
; 674  :  |                                                                           |
; 675  :  |   Multiply var1 by var2 and shift the result left by 1. Add the 32 bit    |
; 676  :  |   result to L_var3 with saturation, return a 32 bit result:               |
; 677  :  |        L_mac(L_var3,var1,var2) = L_add(L_var3,L_mult(var1,var2)).         |
; 678  :  |                                                                           |
; 679  :  |   Complexity weight : 1                                                   |
; 680  :  |                                                                           |
; 681  :  |   Inputs :                                                                |
; 682  :  |                                                                           |
; 683  :  |    L_var3   32 bit long signed integer (Word32) whose value falls in the  |
; 684  :  |             range : 0x8000 0000 <= L_var3 <= 0x7fff ffff.                 |
; 685  :  |                                                                           |
; 686  :  |    var1                                                                   |
; 687  :  |             16 bit short signed integer (Word16) whose value falls in the |
; 688  :  |             range : 0xffff 8000 <= var1 <= 0x0000 7fff.                   |
; 689  :  |                                                                           |
; 690  :  |    var2                                                                   |
; 691  :  |             16 bit short signed integer (Word16) whose value falls in the |
; 692  :  |             range : 0xffff 8000 <= var1 <= 0x0000 7fff.                   |
; 693  :  |                                                                           |
; 694  :  |   Outputs :                                                               |
; 695  :  |                                                                           |
; 696  :  |    none                                                                   |
; 697  :  |                                                                           |
; 698  :  |   Return Value :                                                          |
; 699  :  |                                                                           |
; 700  :  |    L_var_out                                                              |
; 701  :  |             32 bit long signed integer (Word32) whose value falls in the  |
; 702  :  |             range : 0x8000 0000 <= L_var_out <= 0x7fff ffff.              |
; 703  :  |___________________________________________________________________________|
; 704  : */
; 705  : 
; 706  : Word32 L_mac (Word32 L_var3, Word16 var1, Word16 var2)
; 707  : {
; 708  :     Word32 L_var_out;
; 709  :     Word32 L_product;
; 710  : 
; 711  :     L_product = L_mult (var1, var2);
; 712  : #if (WMOPS)
; 713  :     multiCounter[currCounter].L_mult--;
; 714  : #endif
; 715  :     L_var_out = L_add (L_var3, L_product);
; 716  : #if (WMOPS)
; 717  :     multiCounter[currCounter].L_add--;
; 718  :     multiCounter[currCounter].L_mac++;
; 719  : #endif
; 720  :     return (L_var_out);
; 721  : }
; 722  : 
; 723  : /*___________________________________________________________________________
; 724  :  |                                                                           |
; 725  :  |   Function Name : L_msu                                                   |
; 726  :  |                                                                           |
; 727  :  |   Purpose :                                                               |
; 728  :  |                                                                           |
; 729  :  |   Multiply var1 by var2 and shift the result left by 1. Subtract the 32   |
; 730  :  |   bit result to L_var3 with saturation, return a 32 bit result:           |
; 731  :  |        L_msu(L_var3,var1,var2) = L_sub(L_var3,L_mult(var1,var2)).         |
; 732  :  |                                                                           |
; 733  :  |   Complexity weight : 1                                                   |
; 734  :  |                                                                           |
; 735  :  |   Inputs :                                                                |
; 736  :  |                                                                           |
; 737  :  |    L_var3   32 bit long signed integer (Word32) whose value falls in the  |
; 738  :  |             range : 0x8000 0000 <= L_var3 <= 0x7fff ffff.                 |
; 739  :  |                                                                           |
; 740  :  |    var1                                                                   |
; 741  :  |             16 bit short signed integer (Word16) whose value falls in the |
; 742  :  |             range : 0xffff 8000 <= var1 <= 0x0000 7fff.                   |
; 743  :  |                                                                           |
; 744  :  |    var2                                                                   |
; 745  :  |             16 bit short signed integer (Word16) whose value falls in the |
; 746  :  |             range : 0xffff 8000 <= var1 <= 0x0000 7fff.                   |
; 747  :  |                                                                           |
; 748  :  |   Outputs :                                                               |
; 749  :  |                                                                           |
; 750  :  |    none                                                                   |
; 751  :  |                                                                           |
; 752  :  |   Return Value :                                                          |
; 753  :  |                                                                           |
; 754  :  |    L_var_out                                                              |
; 755  :  |             32 bit long signed integer (Word32) whose value falls in the  |
; 756  :  |             range : 0x8000 0000 <= L_var_out <= 0x7fff ffff.              |
; 757  :  |___________________________________________________________________________|
; 758  : */
; 759  : 
; 760  : Word32 L_msu (Word32 L_var3, Word16 var1, Word16 var2)
; 761  : {
; 762  :     Word32 L_var_out;
; 763  :     Word32 L_product;
; 764  : 
; 765  :     L_product = L_mult (var1, var2);
; 766  : #if (WMOPS)
; 767  :     multiCounter[currCounter].L_mult--;
; 768  : #endif
; 769  :     L_var_out = L_sub (L_var3, L_product);
; 770  : #if (WMOPS)
; 771  :     multiCounter[currCounter].L_sub--;
; 772  :     multiCounter[currCounter].L_msu++;
; 773  : #endif
; 774  :     return (L_var_out);
; 775  : }
; 776  : 
; 777  : /*___________________________________________________________________________
; 778  :  |                                                                           |
; 779  :  |   Function Name : L_macNs                                                 |
; 780  :  |                                                                           |
; 781  :  |   Purpose :                                                               |
; 782  :  |                                                                           |
; 783  :  |   Multiply var1 by var2 and shift the result left by 1. Add the 32 bit    |
; 784  :  |   result to L_var3 without saturation, return a 32 bit result. Generate   |
; 785  :  |   carry and overflow values :                                             |
; 786  :  |        L_macNs(L_var3,var1,var2) = L_add_c(L_var3,L_mult(var1,var2)).     |
; 787  :  |                                                                           |
; 788  :  |   Complexity weight : 1                                                   |
; 789  :  |                                                                           |
; 790  :  |   Inputs :                                                                |
; 791  :  |                                                                           |
; 792  :  |    L_var3   32 bit long signed integer (Word32) whose value falls in the  |
; 793  :  |             range : 0x8000 0000 <= L_var3 <= 0x7fff ffff.                 |
; 794  :  |                                                                           |
; 795  :  |    var1                                                                   |
; 796  :  |             16 bit short signed integer (Word16) whose value falls in the |
; 797  :  |             range : 0xffff 8000 <= var1 <= 0x0000 7fff.                   |
; 798  :  |                                                                           |
; 799  :  |    var2                                                                   |
; 800  :  |             16 bit short signed integer (Word16) whose value falls in the |
; 801  :  |             range : 0xffff 8000 <= var1 <= 0x0000 7fff.                   |
; 802  :  |                                                                           |
; 803  :  |   Outputs :                                                               |
; 804  :  |                                                                           |
; 805  :  |    none                                                                   |
; 806  :  |                                                                           |
; 807  :  |   Return Value :                                                          |
; 808  :  |                                                                           |
; 809  :  |    L_var_out                                                              |
; 810  :  |             32 bit long signed integer (Word32) whose value falls in the  |
; 811  :  |             range : 0x8000 0000 <= L_var_out <= 0x7fff ffff.              |
; 812  :  |                                                                           |
; 813  :  |   Caution :                                                               |
; 814  :  |                                                                           |
; 815  :  |    In some cases the Carry flag has to be cleared or set before using     |
; 816  :  |    operators which take into account its value.                           |
; 817  :  |___________________________________________________________________________|
; 818  : */
; 819  : 
; 820  : Word32 L_macNs (Word32 L_var3, Word16 var1, Word16 var2)
; 821  : {
; 822  :     Word32 L_var_out;
; 823  : 
; 824  :     L_var_out = L_mult (var1, var2);
; 825  : #if (WMOPS)
; 826  :     multiCounter[currCounter].L_mult--;
; 827  : #endif
; 828  :     L_var_out = L_add_c (L_var3, L_var_out);
; 829  : #if (WMOPS)
; 830  :     multiCounter[currCounter].L_add_c--;
; 831  :     multiCounter[currCounter].L_macNs++;
; 832  : #endif
; 833  :     return (L_var_out);
; 834  : }
; 835  : 
; 836  : /*___________________________________________________________________________
; 837  :  |                                                                           |
; 838  :  |   Function Name : L_msuNs                                                 |
; 839  :  |                                                                           |
; 840  :  |   Purpose :                                                               |
; 841  :  |                                                                           |
; 842  :  |   Multiply var1 by var2 and shift the result left by 1. Subtract the 32   |
; 843  :  |   bit result from L_var3 without saturation, return a 32 bit result. Ge-  |
; 844  :  |   nerate carry and overflow values :                                      |
; 845  :  |        L_msuNs(L_var3,var1,var2) = L_sub_c(L_var3,L_mult(var1,var2)).     |
; 846  :  |                                                                           |
; 847  :  |   Complexity weight : 1                                                   |
; 848  :  |                                                                           |
; 849  :  |   Inputs :                                                                |
; 850  :  |                                                                           |
; 851  :  |    L_var3   32 bit long signed integer (Word32) whose value falls in the  |
; 852  :  |             range : 0x8000 0000 <= L_var3 <= 0x7fff ffff.                 |
; 853  :  |                                                                           |
; 854  :  |    var1                                                                   |
; 855  :  |             16 bit short signed integer (Word16) whose value falls in the |
; 856  :  |             range : 0xffff 8000 <= var1 <= 0x0000 7fff.                   |
; 857  :  |                                                                           |
; 858  :  |    var2                                                                   |
; 859  :  |             16 bit short signed integer (Word16) whose value falls in the |
; 860  :  |             range : 0xffff 8000 <= var1 <= 0x0000 7fff.                   |
; 861  :  |                                                                           |
; 862  :  |   Outputs :                                                               |
; 863  :  |                                                                           |
; 864  :  |    none                                                                   |
; 865  :  |                                                                           |
; 866  :  |   Return Value :                                                          |
; 867  :  |                                                                           |
; 868  :  |    L_var_out                                                              |
; 869  :  |             32 bit long signed integer (Word32) whose value falls in the  |
; 870  :  |             range : 0x8000 0000 <= L_var_out <= 0x7fff ffff.              |
; 871  :  |                                                                           |
; 872  :  |   Caution :                                                               |
; 873  :  |                                                                           |
; 874  :  |    In some cases the Carry flag has to be cleared or set before using     |
; 875  :  |    operators which take into account its value.                           |
; 876  :  |___________________________________________________________________________|
; 877  : */
; 878  : 
; 879  : Word32 L_msuNs (Word32 L_var3, Word16 var1, Word16 var2)
; 880  : {
; 881  :     Word32 L_var_out;
; 882  : 
; 883  :     L_var_out = L_mult (var1, var2);
; 884  : #if (WMOPS)
; 885  :     multiCounter[currCounter].L_mult--;
; 886  : #endif
; 887  :     L_var_out = L_sub_c (L_var3, L_var_out);
; 888  : #if (WMOPS)
; 889  :     multiCounter[currCounter].L_sub_c--;
; 890  :     multiCounter[currCounter].L_msuNs++;
; 891  : #endif
; 892  :     return (L_var_out);
; 893  : }
; 894  : 
; 895  : /*___________________________________________________________________________
; 896  :  |                                                                           |
; 897  :  |   Function Name : L_add                                                   |
; 898  :  |                                                                           |
; 899  :  |   Purpose :                                                               |
; 900  :  |                                                                           |
; 901  :  |   32 bits addition of the two 32 bits variables (L_var1+L_var2) with      |
; 902  :  |   overflow control and saturation; the result is set at +2147483647 when  |
; 903  :  |   overflow occurs or at -2147483648 when underflow occurs.                |
; 904  :  |                                                                           |
; 905  :  |   Complexity weight : 2                                                   |
; 906  :  |                                                                           |
; 907  :  |   Inputs :                                                                |
; 908  :  |                                                                           |
; 909  :  |    L_var1   32 bit long signed integer (Word32) whose value falls in the  |
; 910  :  |             range : 0x8000 0000 <= L_var3 <= 0x7fff ffff.                 |
; 911  :  |                                                                           |
; 912  :  |    L_var2   32 bit long signed integer (Word32) whose value falls in the  |
; 913  :  |             range : 0x8000 0000 <= L_var3 <= 0x7fff ffff.                 |
; 914  :  |                                                                           |
; 915  :  |   Outputs :                                                               |
; 916  :  |                                                                           |
; 917  :  |    none                                                                   |
; 918  :  |                                                                           |
; 919  :  |   Return Value :                                                          |
; 920  :  |                                                                           |
; 921  :  |    L_var_out                                                              |
; 922  :  |             32 bit long signed integer (Word32) whose value falls in the  |
; 923  :  |             range : 0x8000 0000 <= L_var_out <= 0x7fff ffff.              |
; 924  :  |___________________________________________________________________________|
; 925  : */
; 926  : 
; 927  : Word32 L_add (Word32 L_var1, Word32 L_var2)
; 928  : {
; 929  :     Word32 L_var_out;
; 930  : 
; 931  :     L_var_out = L_var1 + L_var2;
; 932  : 
; 933  :     if (((L_var1 ^ L_var2) & MIN_32) == 0)
; 934  :     {
; 935  :         if ((L_var_out ^ L_var1) & MIN_32)
; 936  :         {
; 937  :             L_var_out = (L_var1 < 0) ? MIN_32 : MAX_32;
; 938  :             Overflow = 1;
; 939  :         }
; 940  :     }
; 941  : #if (WMOPS)
; 942  :     multiCounter[currCounter].L_add++;
; 943  : #endif
; 944  :     return (L_var_out);
; 945  : }
; 946  : 
; 947  : /*___________________________________________________________________________
; 948  :  |                                                                           |
; 949  :  |   Function Name : L_sub                                                   |
; 950  :  |                                                                           |
; 951  :  |   Purpose :                                                               |
; 952  :  |                                                                           |
; 953  :  |   32 bits subtraction of the two 32 bits variables (L_var1-L_var2) with   |
; 954  :  |   overflow control and saturation; the result is set at +2147483647 when  |
; 955  :  |   overflow occurs or at -2147483648 when underflow occurs.                |
; 956  :  |                                                                           |
; 957  :  |   Complexity weight : 2                                                   |
; 958  :  |                                                                           |
; 959  :  |   Inputs :                                                                |
; 960  :  |                                                                           |
; 961  :  |    L_var1   32 bit long signed integer (Word32) whose value falls in the  |
; 962  :  |             range : 0x8000 0000 <= L_var3 <= 0x7fff ffff.                 |
; 963  :  |                                                                           |
; 964  :  |    L_var2   32 bit long signed integer (Word32) whose value falls in the  |
; 965  :  |             range : 0x8000 0000 <= L_var3 <= 0x7fff ffff.                 |
; 966  :  |                                                                           |
; 967  :  |   Outputs :                                                               |
; 968  :  |                                                                           |
; 969  :  |    none                                                                   |
; 970  :  |                                                                           |
; 971  :  |   Return Value :                                                          |
; 972  :  |                                                                           |
; 973  :  |    L_var_out                                                              |
; 974  :  |             32 bit long signed integer (Word32) whose value falls in the  |
; 975  :  |             range : 0x8000 0000 <= L_var_out <= 0x7fff ffff.              |
; 976  :  |___________________________________________________________________________|
; 977  : */
; 978  : 
; 979  : Word32 L_sub (Word32 L_var1, Word32 L_var2)
; 980  : {
; 981  :     Word32 L_var_out;
; 982  : 
; 983  :     L_var_out = L_var1 - L_var2;

  0003a	8b ce		 mov	 ecx, esi
  0003c	2b c8		 sub	 ecx, eax

; 984  : 
; 985  :     if (((L_var1 ^ L_var2) & MIN_32) != 0)

  0003e	33 c6		 xor	 eax, esi
  00040	79 26		 jns	 SHORT $LN27@L_Extract

; 987  :         if ((L_var_out ^ L_var1) & MIN_32)

  00042	8b c1		 mov	 eax, ecx
  00044	33 c6		 xor	 eax, esi
; File e:\mywork\client\pc2.0trunk\pc2.0\third_party\libamrplayer\amr\oper_32b.c

; 48   :     *lo = extract_l (L_msu (L_shr (L_32, 1), *hi, 16384));

  00046	8b 45 08	 mov	 eax, DWORD PTR _lo$[ebp]
; File e:\mywork\client\pc2.0trunk\pc2.0\third_party\libamrplayer\amr\basicop2.c

; 987  :         if ((L_var_out ^ L_var1) & MIN_32)

  00049	79 20		 jns	 SHORT $LN28@L_Extract

; 988  :         {
; 989  :             L_var_out = (L_var1 < 0L) ? MIN_32 : MAX_32;

  0004b	33 c9		 xor	 ecx, ecx

; 990  :             Overflow = 1;

  0004d	c7 05 00 00 00
	00 01 00 00 00	 mov	 DWORD PTR _Overflow, 1
  00057	85 f6		 test	 esi, esi
  00059	5e		 pop	 esi

; 988  :         {
; 989  :             L_var_out = (L_var1 < 0L) ? MIN_32 : MAX_32;

  0005a	0f 98 c1	 sets	 cl
  0005d	81 c1 ff ff ff
	7f		 add	 ecx, 2147483647		; 7fffffffH
; File e:\mywork\client\pc2.0trunk\pc2.0\third_party\libamrplayer\amr\oper_32b.c

; 48   :     *lo = extract_l (L_msu (L_shr (L_32, 1), *hi, 16384));

  00063	66 89 08	 mov	 WORD PTR [eax], cx

; 49   :     return;
; 50   : }

  00066	5d		 pop	 ebp
  00067	c3		 ret	 0
$LN27@L_Extract:

; 48   :     *lo = extract_l (L_msu (L_shr (L_32, 1), *hi, 16384));

  00068	8b 45 08	 mov	 eax, DWORD PTR _lo$[ebp]
$LN28@L_Extract:
  0006b	66 89 08	 mov	 WORD PTR [eax], cx
  0006e	5e		 pop	 esi

; 49   :     return;
; 50   : }

  0006f	5d		 pop	 ebp
  00070	c3		 ret	 0
_L_Extract ENDP
_TEXT	ENDS
; Function compile flags: /Ogtp
; File e:\mywork\client\pc2.0trunk\pc2.0\third_party\libamrplayer\amr\oper_32b.c
; File e:\mywork\client\pc2.0trunk\pc2.0\third_party\libamrplayer\amr\basicop2.c
; File e:\mywork\client\pc2.0trunk\pc2.0\third_party\libamrplayer\amr\oper_32b.c
;	COMDAT _L_Comp
_TEXT	SEGMENT
_L_Comp	PROC						; COMDAT
; _hi$ = cx
; _lo$ = dx
; File e:\mywork\client\pc2.0trunk\pc2.0\third_party\libamrplayer\amr\basicop2.c

; 1675 :     L_var_out = (Word32) var1 << 16;

  00000	0f bf c9	 movsx	 ecx, cx

; 485  :     L_var_out = (Word32) var1 *(Word32) var2;

  00003	0f bf c2	 movsx	 eax, dx

; 1675 :     L_var_out = (Word32) var1 << 16;

  00006	c1 e1 10	 shl	 ecx, 16			; 00000010H

; 486  : 
; 487  :     if (L_var_out != (Word32) 0x40000000L)

  00009	3d 00 00 00 40	 cmp	 eax, 1073741824		; 40000000H
  0000e	74 04		 je	 SHORT $LN8@L_Comp

; 488  :     {
; 489  :         L_var_out *= 2;

  00010	03 c0		 add	 eax, eax

; 490  :     }
; 491  :     else

  00012	eb 0f		 jmp	 SHORT $LN7@L_Comp
$LN8@L_Comp:

; 492  :     {
; 493  :         Overflow = 1;

  00014	c7 05 00 00 00
	00 01 00 00 00	 mov	 DWORD PTR _Overflow, 1

; 494  :         L_var_out = MAX_32;

  0001e	b8 ff ff ff 7f	 mov	 eax, 2147483647		; 7fffffffH
$LN7@L_Comp:

; 495  :     }
; 496  : 
; 497  : #if (WMOPS)
; 498  :     multiCounter[currCounter].L_mult++;
; 499  : #endif
; 500  :     return (L_var_out);
; 501  : }
; 502  : 
; 503  : /*___________________________________________________________________________
; 504  :  |                                                                           |
; 505  :  |   Function Name : negate                                                  |
; 506  :  |                                                                           |
; 507  :  |   Purpose :                                                               |
; 508  :  |                                                                           |
; 509  :  |   Negate var1 with saturation, saturate in the case where input is -32768:|
; 510  :  |                negate(var1) = sub(0,var1).                                |
; 511  :  |                                                                           |
; 512  :  |   Complexity weight : 1                                                   |
; 513  :  |                                                                           |
; 514  :  |   Inputs :                                                                |
; 515  :  |                                                                           |
; 516  :  |    var1                                                                   |
; 517  :  |             16 bit short signed integer (Word16) whose value falls in the |
; 518  :  |             range : 0xffff 8000 <= var1 <= 0x0000 7fff.                   |
; 519  :  |                                                                           |
; 520  :  |   Outputs :                                                               |
; 521  :  |                                                                           |
; 522  :  |    none                                                                   |
; 523  :  |                                                                           |
; 524  :  |   Return Value :                                                          |
; 525  :  |                                                                           |
; 526  :  |    var_out                                                                |
; 527  :  |             16 bit short signed integer (Word16) whose value falls in the |
; 528  :  |             range : 0xffff 8000 <= var_out <= 0x0000 7fff.                |
; 529  :  |___________________________________________________________________________|
; 530  : */
; 531  : 
; 532  : Word16 negate (Word16 var1)
; 533  : {
; 534  :     Word16 var_out;
; 535  : 
; 536  :     var_out = (var1 == MIN_16) ? MAX_16 : -var1;
; 537  : #if (WMOPS)
; 538  :     multiCounter[currCounter].negate++;
; 539  : #endif
; 540  :     return (var_out);
; 541  : }
; 542  : 
; 543  : /*___________________________________________________________________________
; 544  :  |                                                                           |
; 545  :  |   Function Name : extract_h                                               |
; 546  :  |                                                                           |
; 547  :  |   Purpose :                                                               |
; 548  :  |                                                                           |
; 549  :  |   Return the 16 MSB of L_var1.                                            |
; 550  :  |                                                                           |
; 551  :  |   Complexity weight : 1                                                   |
; 552  :  |                                                                           |
; 553  :  |   Inputs :                                                                |
; 554  :  |                                                                           |
; 555  :  |    L_var1                                                                 |
; 556  :  |             32 bit long signed integer (Word32 ) whose value falls in the |
; 557  :  |             range : 0x8000 0000 <= L_var1 <= 0x7fff ffff.                 |
; 558  :  |                                                                           |
; 559  :  |   Outputs :                                                               |
; 560  :  |                                                                           |
; 561  :  |    none                                                                   |
; 562  :  |                                                                           |
; 563  :  |   Return Value :                                                          |
; 564  :  |                                                                           |
; 565  :  |    var_out                                                                |
; 566  :  |             16 bit short signed integer (Word16) whose value falls in the |
; 567  :  |             range : 0xffff 8000 <= var_out <= 0x0000 7fff.                |
; 568  :  |___________________________________________________________________________|
; 569  : */
; 570  : 
; 571  : Word16 extract_h (Word32 L_var1)
; 572  : {
; 573  :     Word16 var_out;
; 574  : 
; 575  :     var_out = (Word16) (L_var1 >> 16);
; 576  : #if (WMOPS)
; 577  :     multiCounter[currCounter].extract_h++;
; 578  : #endif
; 579  :     return (var_out);
; 580  : }
; 581  : 
; 582  : /*___________________________________________________________________________
; 583  :  |                                                                           |
; 584  :  |   Function Name : extract_l                                               |
; 585  :  |                                                                           |
; 586  :  |   Purpose :                                                               |
; 587  :  |                                                                           |
; 588  :  |   Return the 16 LSB of L_var1.                                            |
; 589  :  |                                                                           |
; 590  :  |   Complexity weight : 1                                                   |
; 591  :  |                                                                           |
; 592  :  |   Inputs :                                                                |
; 593  :  |                                                                           |
; 594  :  |    L_var1                                                                 |
; 595  :  |             32 bit long signed integer (Word32 ) whose value falls in the |
; 596  :  |             range : 0x8000 0000 <= L_var1 <= 0x7fff ffff.                 |
; 597  :  |                                                                           |
; 598  :  |   Outputs :                                                               |
; 599  :  |                                                                           |
; 600  :  |    none                                                                   |
; 601  :  |                                                                           |
; 602  :  |   Return Value :                                                          |
; 603  :  |                                                                           |
; 604  :  |    var_out                                                                |
; 605  :  |             16 bit short signed integer (Word16) whose value falls in the |
; 606  :  |             range : 0xffff 8000 <= var_out <= 0x0000 7fff.                |
; 607  :  |___________________________________________________________________________|
; 608  : */
; 609  : 
; 610  : Word16 extract_l (Word32 L_var1)
; 611  : {
; 612  :     Word16 var_out;
; 613  : 
; 614  :     var_out = (Word16) L_var1;
; 615  : #if (WMOPS)
; 616  :     multiCounter[currCounter].extract_l++;
; 617  : #endif
; 618  :     return (var_out);
; 619  : }
; 620  : 
; 621  : /*___________________________________________________________________________
; 622  :  |                                                                           |
; 623  :  |   Function Name : round                                                   |
; 624  :  |                                                                           |
; 625  :  |   Purpose :                                                               |
; 626  :  |                                                                           |
; 627  :  |   Round the lower 16 bits of the 32 bit input number into the MS 16 bits  |
; 628  :  |   with saturation. Shift the resulting bits right by 16 and return the 16 |
; 629  :  |   bit number:                                                             |
; 630  :  |               round(L_var1) = extract_h(L_add(L_var1,32768))              |
; 631  :  |                                                                           |
; 632  :  |   Complexity weight : 1                                                   |
; 633  :  |                                                                           |
; 634  :  |   Inputs :                                                                |
; 635  :  |                                                                           |
; 636  :  |    L_var1                                                                 |
; 637  :  |             32 bit long signed integer (Word32 ) whose value falls in the |
; 638  :  |             range : 0x8000 0000 <= L_var1 <= 0x7fff ffff.                 |
; 639  :  |                                                                           |
; 640  :  |   Outputs :                                                               |
; 641  :  |                                                                           |
; 642  :  |    none                                                                   |
; 643  :  |                                                                           |
; 644  :  |   Return Value :                                                          |
; 645  :  |                                                                           |
; 646  :  |    var_out                                                                |
; 647  :  |             16 bit short signed integer (Word16) whose value falls in the |
; 648  :  |             range : 0xffff 8000 <= var_out <= 0x0000 7fff.                |
; 649  :  |___________________________________________________________________________|
; 650  : */
; 651  : 
; 652  : Word16 round (Word32 L_var1)
; 653  : {
; 654  :     Word16 var_out;
; 655  :     Word32 L_rounded;
; 656  : 
; 657  :     L_rounded = L_add (L_var1, (Word32) 0x00008000L);
; 658  : #if (WMOPS)
; 659  :     multiCounter[currCounter].L_add--;
; 660  : #endif
; 661  :     var_out = extract_h (L_rounded);
; 662  : #if (WMOPS)
; 663  :     multiCounter[currCounter].extract_h--;
; 664  :     multiCounter[currCounter].round++;
; 665  : #endif
; 666  :     return (var_out);
; 667  : }
; 668  : 
; 669  : /*___________________________________________________________________________
; 670  :  |                                                                           |
; 671  :  |   Function Name : L_mac                                                   |
; 672  :  |                                                                           |
; 673  :  |   Purpose :                                                               |
; 674  :  |                                                                           |
; 675  :  |   Multiply var1 by var2 and shift the result left by 1. Add the 32 bit    |
; 676  :  |   result to L_var3 with saturation, return a 32 bit result:               |
; 677  :  |        L_mac(L_var3,var1,var2) = L_add(L_var3,L_mult(var1,var2)).         |
; 678  :  |                                                                           |
; 679  :  |   Complexity weight : 1                                                   |
; 680  :  |                                                                           |
; 681  :  |   Inputs :                                                                |
; 682  :  |                                                                           |
; 683  :  |    L_var3   32 bit long signed integer (Word32) whose value falls in the  |
; 684  :  |             range : 0x8000 0000 <= L_var3 <= 0x7fff ffff.                 |
; 685  :  |                                                                           |
; 686  :  |    var1                                                                   |
; 687  :  |             16 bit short signed integer (Word16) whose value falls in the |
; 688  :  |             range : 0xffff 8000 <= var1 <= 0x0000 7fff.                   |
; 689  :  |                                                                           |
; 690  :  |    var2                                                                   |
; 691  :  |             16 bit short signed integer (Word16) whose value falls in the |
; 692  :  |             range : 0xffff 8000 <= var1 <= 0x0000 7fff.                   |
; 693  :  |                                                                           |
; 694  :  |   Outputs :                                                               |
; 695  :  |                                                                           |
; 696  :  |    none                                                                   |
; 697  :  |                                                                           |
; 698  :  |   Return Value :                                                          |
; 699  :  |                                                                           |
; 700  :  |    L_var_out                                                              |
; 701  :  |             32 bit long signed integer (Word32) whose value falls in the  |
; 702  :  |             range : 0x8000 0000 <= L_var_out <= 0x7fff ffff.              |
; 703  :  |___________________________________________________________________________|
; 704  : */
; 705  : 
; 706  : Word32 L_mac (Word32 L_var3, Word16 var1, Word16 var2)
; 707  : {
; 708  :     Word32 L_var_out;
; 709  :     Word32 L_product;
; 710  : 
; 711  :     L_product = L_mult (var1, var2);
; 712  : #if (WMOPS)
; 713  :     multiCounter[currCounter].L_mult--;
; 714  : #endif
; 715  :     L_var_out = L_add (L_var3, L_product);
; 716  : #if (WMOPS)
; 717  :     multiCounter[currCounter].L_add--;
; 718  :     multiCounter[currCounter].L_mac++;
; 719  : #endif
; 720  :     return (L_var_out);
; 721  : }
; 722  : 
; 723  : /*___________________________________________________________________________
; 724  :  |                                                                           |
; 725  :  |   Function Name : L_msu                                                   |
; 726  :  |                                                                           |
; 727  :  |   Purpose :                                                               |
; 728  :  |                                                                           |
; 729  :  |   Multiply var1 by var2 and shift the result left by 1. Subtract the 32   |
; 730  :  |   bit result to L_var3 with saturation, return a 32 bit result:           |
; 731  :  |        L_msu(L_var3,var1,var2) = L_sub(L_var3,L_mult(var1,var2)).         |
; 732  :  |                                                                           |
; 733  :  |   Complexity weight : 1                                                   |
; 734  :  |                                                                           |
; 735  :  |   Inputs :                                                                |
; 736  :  |                                                                           |
; 737  :  |    L_var3   32 bit long signed integer (Word32) whose value falls in the  |
; 738  :  |             range : 0x8000 0000 <= L_var3 <= 0x7fff ffff.                 |
; 739  :  |                                                                           |
; 740  :  |    var1                                                                   |
; 741  :  |             16 bit short signed integer (Word16) whose value falls in the |
; 742  :  |             range : 0xffff 8000 <= var1 <= 0x0000 7fff.                   |
; 743  :  |                                                                           |
; 744  :  |    var2                                                                   |
; 745  :  |             16 bit short signed integer (Word16) whose value falls in the |
; 746  :  |             range : 0xffff 8000 <= var1 <= 0x0000 7fff.                   |
; 747  :  |                                                                           |
; 748  :  |   Outputs :                                                               |
; 749  :  |                                                                           |
; 750  :  |    none                                                                   |
; 751  :  |                                                                           |
; 752  :  |   Return Value :                                                          |
; 753  :  |                                                                           |
; 754  :  |    L_var_out                                                              |
; 755  :  |             32 bit long signed integer (Word32) whose value falls in the  |
; 756  :  |             range : 0x8000 0000 <= L_var_out <= 0x7fff ffff.              |
; 757  :  |___________________________________________________________________________|
; 758  : */
; 759  : 
; 760  : Word32 L_msu (Word32 L_var3, Word16 var1, Word16 var2)
; 761  : {
; 762  :     Word32 L_var_out;
; 763  :     Word32 L_product;
; 764  : 
; 765  :     L_product = L_mult (var1, var2);
; 766  : #if (WMOPS)
; 767  :     multiCounter[currCounter].L_mult--;
; 768  : #endif
; 769  :     L_var_out = L_sub (L_var3, L_product);
; 770  : #if (WMOPS)
; 771  :     multiCounter[currCounter].L_sub--;
; 772  :     multiCounter[currCounter].L_msu++;
; 773  : #endif
; 774  :     return (L_var_out);
; 775  : }
; 776  : 
; 777  : /*___________________________________________________________________________
; 778  :  |                                                                           |
; 779  :  |   Function Name : L_macNs                                                 |
; 780  :  |                                                                           |
; 781  :  |   Purpose :                                                               |
; 782  :  |                                                                           |
; 783  :  |   Multiply var1 by var2 and shift the result left by 1. Add the 32 bit    |
; 784  :  |   result to L_var3 without saturation, return a 32 bit result. Generate   |
; 785  :  |   carry and overflow values :                                             |
; 786  :  |        L_macNs(L_var3,var1,var2) = L_add_c(L_var3,L_mult(var1,var2)).     |
; 787  :  |                                                                           |
; 788  :  |   Complexity weight : 1                                                   |
; 789  :  |                                                                           |
; 790  :  |   Inputs :                                                                |
; 791  :  |                                                                           |
; 792  :  |    L_var3   32 bit long signed integer (Word32) whose value falls in the  |
; 793  :  |             range : 0x8000 0000 <= L_var3 <= 0x7fff ffff.                 |
; 794  :  |                                                                           |
; 795  :  |    var1                                                                   |
; 796  :  |             16 bit short signed integer (Word16) whose value falls in the |
; 797  :  |             range : 0xffff 8000 <= var1 <= 0x0000 7fff.                   |
; 798  :  |                                                                           |
; 799  :  |    var2                                                                   |
; 800  :  |             16 bit short signed integer (Word16) whose value falls in the |
; 801  :  |             range : 0xffff 8000 <= var1 <= 0x0000 7fff.                   |
; 802  :  |                                                                           |
; 803  :  |   Outputs :                                                               |
; 804  :  |                                                                           |
; 805  :  |    none                                                                   |
; 806  :  |                                                                           |
; 807  :  |   Return Value :                                                          |
; 808  :  |                                                                           |
; 809  :  |    L_var_out                                                              |
; 810  :  |             32 bit long signed integer (Word32) whose value falls in the  |
; 811  :  |             range : 0x8000 0000 <= L_var_out <= 0x7fff ffff.              |
; 812  :  |                                                                           |
; 813  :  |   Caution :                                                               |
; 814  :  |                                                                           |
; 815  :  |    In some cases the Carry flag has to be cleared or set before using     |
; 816  :  |    operators which take into account its value.                           |
; 817  :  |___________________________________________________________________________|
; 818  : */
; 819  : 
; 820  : Word32 L_macNs (Word32 L_var3, Word16 var1, Word16 var2)
; 821  : {
; 822  :     Word32 L_var_out;
; 823  : 
; 824  :     L_var_out = L_mult (var1, var2);
; 825  : #if (WMOPS)
; 826  :     multiCounter[currCounter].L_mult--;
; 827  : #endif
; 828  :     L_var_out = L_add_c (L_var3, L_var_out);
; 829  : #if (WMOPS)
; 830  :     multiCounter[currCounter].L_add_c--;
; 831  :     multiCounter[currCounter].L_macNs++;
; 832  : #endif
; 833  :     return (L_var_out);
; 834  : }
; 835  : 
; 836  : /*___________________________________________________________________________
; 837  :  |                                                                           |
; 838  :  |   Function Name : L_msuNs                                                 |
; 839  :  |                                                                           |
; 840  :  |   Purpose :                                                               |
; 841  :  |                                                                           |
; 842  :  |   Multiply var1 by var2 and shift the result left by 1. Subtract the 32   |
; 843  :  |   bit result from L_var3 without saturation, return a 32 bit result. Ge-  |
; 844  :  |   nerate carry and overflow values :                                      |
; 845  :  |        L_msuNs(L_var3,var1,var2) = L_sub_c(L_var3,L_mult(var1,var2)).     |
; 846  :  |                                                                           |
; 847  :  |   Complexity weight : 1                                                   |
; 848  :  |                                                                           |
; 849  :  |   Inputs :                                                                |
; 850  :  |                                                                           |
; 851  :  |    L_var3   32 bit long signed integer (Word32) whose value falls in the  |
; 852  :  |             range : 0x8000 0000 <= L_var3 <= 0x7fff ffff.                 |
; 853  :  |                                                                           |
; 854  :  |    var1                                                                   |
; 855  :  |             16 bit short signed integer (Word16) whose value falls in the |
; 856  :  |             range : 0xffff 8000 <= var1 <= 0x0000 7fff.                   |
; 857  :  |                                                                           |
; 858  :  |    var2                                                                   |
; 859  :  |             16 bit short signed integer (Word16) whose value falls in the |
; 860  :  |             range : 0xffff 8000 <= var1 <= 0x0000 7fff.                   |
; 861  :  |                                                                           |
; 862  :  |   Outputs :                                                               |
; 863  :  |                                                                           |
; 864  :  |    none                                                                   |
; 865  :  |                                                                           |
; 866  :  |   Return Value :                                                          |
; 867  :  |                                                                           |
; 868  :  |    L_var_out                                                              |
; 869  :  |             32 bit long signed integer (Word32) whose value falls in the  |
; 870  :  |             range : 0x8000 0000 <= L_var_out <= 0x7fff ffff.              |
; 871  :  |                                                                           |
; 872  :  |   Caution :                                                               |
; 873  :  |                                                                           |
; 874  :  |    In some cases the Carry flag has to be cleared or set before using     |
; 875  :  |    operators which take into account its value.                           |
; 876  :  |___________________________________________________________________________|
; 877  : */
; 878  : 
; 879  : Word32 L_msuNs (Word32 L_var3, Word16 var1, Word16 var2)
; 880  : {
; 881  :     Word32 L_var_out;
; 882  : 
; 883  :     L_var_out = L_mult (var1, var2);
; 884  : #if (WMOPS)
; 885  :     multiCounter[currCounter].L_mult--;
; 886  : #endif
; 887  :     L_var_out = L_sub_c (L_var3, L_var_out);
; 888  : #if (WMOPS)
; 889  :     multiCounter[currCounter].L_sub_c--;
; 890  :     multiCounter[currCounter].L_msuNs++;
; 891  : #endif
; 892  :     return (L_var_out);
; 893  : }
; 894  : 
; 895  : /*___________________________________________________________________________
; 896  :  |                                                                           |
; 897  :  |   Function Name : L_add                                                   |
; 898  :  |                                                                           |
; 899  :  |   Purpose :                                                               |
; 900  :  |                                                                           |
; 901  :  |   32 bits addition of the two 32 bits variables (L_var1+L_var2) with      |
; 902  :  |   overflow control and saturation; the result is set at +2147483647 when  |
; 903  :  |   overflow occurs or at -2147483648 when underflow occurs.                |
; 904  :  |                                                                           |
; 905  :  |   Complexity weight : 2                                                   |
; 906  :  |                                                                           |
; 907  :  |   Inputs :                                                                |
; 908  :  |                                                                           |
; 909  :  |    L_var1   32 bit long signed integer (Word32) whose value falls in the  |
; 910  :  |             range : 0x8000 0000 <= L_var3 <= 0x7fff ffff.                 |
; 911  :  |                                                                           |
; 912  :  |    L_var2   32 bit long signed integer (Word32) whose value falls in the  |
; 913  :  |             range : 0x8000 0000 <= L_var3 <= 0x7fff ffff.                 |
; 914  :  |                                                                           |
; 915  :  |   Outputs :                                                               |
; 916  :  |                                                                           |
; 917  :  |    none                                                                   |
; 918  :  |                                                                           |
; 919  :  |   Return Value :                                                          |
; 920  :  |                                                                           |
; 921  :  |    L_var_out                                                              |
; 922  :  |             32 bit long signed integer (Word32) whose value falls in the  |
; 923  :  |             range : 0x8000 0000 <= L_var_out <= 0x7fff ffff.              |
; 924  :  |___________________________________________________________________________|
; 925  : */
; 926  : 
; 927  : Word32 L_add (Word32 L_var1, Word32 L_var2)
; 928  : {
; 929  :     Word32 L_var_out;
; 930  : 
; 931  :     L_var_out = L_var1 + L_var2;

  00023	8d 14 08	 lea	 edx, DWORD PTR [eax+ecx]

; 932  : 
; 933  :     if (((L_var1 ^ L_var2) & MIN_32) == 0)

  00026	33 c1		 xor	 eax, ecx

; 934  :     {
; 935  :         if ((L_var_out ^ L_var1) & MIN_32)

  00028	8b c2		 mov	 eax, edx
  0002a	78 1d		 js	 SHORT $LN11@L_Comp
  0002c	33 c1		 xor	 eax, ecx
  0002e	79 17		 jns	 SHORT $LN15@L_Comp

; 936  :         {
; 937  :             L_var_out = (L_var1 < 0) ? MIN_32 : MAX_32;

  00030	33 c0		 xor	 eax, eax

; 938  :             Overflow = 1;

  00032	c7 05 00 00 00
	00 01 00 00 00	 mov	 DWORD PTR _Overflow, 1
  0003c	85 c9		 test	 ecx, ecx
  0003e	0f 98 c0	 sets	 al
  00041	05 ff ff ff 7f	 add	 eax, 2147483647		; 7fffffffH
; File e:\mywork\client\pc2.0trunk\pc2.0\third_party\libamrplayer\amr\oper_32b.c

; 79   : }

  00046	c3		 ret	 0
$LN15@L_Comp:

; 75   :     Word32 L_32;
; 76   : 
; 77   :     L_32 = L_deposit_h (hi);
; 78   :     return (L_mac (L_32, lo, 1));       /* = hi<<16 + lo<<1 */

  00047	8b c2		 mov	 eax, edx
$LN11@L_Comp:

; 79   : }

  00049	c3		 ret	 0
_L_Comp	ENDP
_TEXT	ENDS
END
