; Listing generated by Microsoft (R) Optimizing Compiler Version 18.00.40629.0 

	TITLE	E:\mywork\client\PC2.0TRUNK\PC2.0\third_party\libAMRPlayer\AMR\pow2.c
	.686P
	.XMM
	include listing.inc
	.model	flat

INCLUDELIB OLDNAMES

_table	DW	04000H
	DW	04167H
	DW	042d5H
	DW	0444cH
	DW	045cbH
	DW	04752H
	DW	048e2H
	DW	04a7aH
	DW	04c1cH
	DW	04dc7H
	DW	04f7bH
	DW	05138H
	DW	052ffH
	DW	054d1H
	DW	056acH
	DW	05892H
	DW	05a82H
	DW	05c7eH
	DW	05e84H
	DW	06096H
	DW	062b4H
	DW	064ddH
	DW	06712H
	DW	06954H
	DW	06ba2H
	DW	06dfeH
	DW	07066H
	DW	072ddH
	DW	07560H
	DW	077f2H
	DW	07a93H
	DW	07d42H
	DW	07fffH
PUBLIC	_Pow2
; Function compile flags: /Ogtp
; File e:\mywork\client\pc2.0trunk\pc2.0\third_party\libamrplayer\amr\pow2.c
; File e:\mywork\client\pc2.0trunk\pc2.0\third_party\libamrplayer\amr\basicop2.c
; File e:\mywork\client\pc2.0trunk\pc2.0\third_party\libamrplayer\amr\pow2.c
; File e:\mywork\client\pc2.0trunk\pc2.0\third_party\libamrplayer\amr\basicop2.c
; File e:\mywork\client\pc2.0trunk\pc2.0\third_party\libamrplayer\amr\pow2.c
; File e:\mywork\client\pc2.0trunk\pc2.0\third_party\libamrplayer\amr\basicop2.c
; File e:\mywork\client\pc2.0trunk\pc2.0\third_party\libamrplayer\amr\pow2.c
; File e:\mywork\client\pc2.0trunk\pc2.0\third_party\libamrplayer\amr\basicop2.c
; File e:\mywork\client\pc2.0trunk\pc2.0\third_party\libamrplayer\amr\pow2.c
; File e:\mywork\client\pc2.0trunk\pc2.0\third_party\libamrplayer\amr\basicop2.c
; File e:\mywork\client\pc2.0trunk\pc2.0\third_party\libamrplayer\amr\pow2.c
; File e:\mywork\client\pc2.0trunk\pc2.0\third_party\libamrplayer\amr\basicop2.c
; File e:\mywork\client\pc2.0trunk\pc2.0\third_party\libamrplayer\amr\pow2.c
;	COMDAT _Pow2
_TEXT	SEGMENT
_Pow2	PROC						; COMDAT
; _exponent$ = cx
; _fraction$ = dx
; File e:\mywork\client\pc2.0trunk\pc2.0\third_party\libamrplayer\amr\basicop2.c

; 485  :     L_var_out = (Word32) var1 *(Word32) var2;

  00000	0f bf d2	 movsx	 edx, dx
  00003	56		 push	 esi
  00004	c1 e2 05	 shl	 edx, 5
  00007	57		 push	 edi
; File e:\mywork\client\pc2.0trunk\pc2.0\third_party\libamrplayer\amr\pow2.c

; 63   : {

  00008	66 8b f9	 mov	 di, cx
; File e:\mywork\client\pc2.0trunk\pc2.0\third_party\libamrplayer\amr\basicop2.c

; 487  :     if (L_var_out != (Word32) 0x40000000L)

  0000b	81 fa 00 00 00
	40		 cmp	 edx, 1073741824		; 40000000H
  00011	74 04		 je	 SHORT $LN4@Pow2

; 488  :     {
; 489  :         L_var_out *= 2;

  00013	03 d2		 add	 edx, edx

; 490  :     }
; 491  :     else

  00015	eb 0f		 jmp	 SHORT $LN3@Pow2
$LN4@Pow2:

; 492  :     {
; 493  :         Overflow = 1;

  00017	c7 05 00 00 00
	00 01 00 00 00	 mov	 DWORD PTR _Overflow, 1

; 494  :         L_var_out = MAX_32;

  00021	ba ff ff ff 7f	 mov	 edx, 2147483647		; 7fffffffH
$LN3@Pow2:

; 495  :     }
; 496  : 
; 497  : #if (WMOPS)
; 498  :     multiCounter[currCounter].L_mult++;
; 499  : #endif
; 500  :     return (L_var_out);
; 501  : }
; 502  : 
; 503  : /*___________________________________________________________________________
; 504  :  |                                                                           |
; 505  :  |   Function Name : negate                                                  |
; 506  :  |                                                                           |
; 507  :  |   Purpose :                                                               |
; 508  :  |                                                                           |
; 509  :  |   Negate var1 with saturation, saturate in the case where input is -32768:|
; 510  :  |                negate(var1) = sub(0,var1).                                |
; 511  :  |                                                                           |
; 512  :  |   Complexity weight : 1                                                   |
; 513  :  |                                                                           |
; 514  :  |   Inputs :                                                                |
; 515  :  |                                                                           |
; 516  :  |    var1                                                                   |
; 517  :  |             16 bit short signed integer (Word16) whose value falls in the |
; 518  :  |             range : 0xffff 8000 <= var1 <= 0x0000 7fff.                   |
; 519  :  |                                                                           |
; 520  :  |   Outputs :                                                               |
; 521  :  |                                                                           |
; 522  :  |    none                                                                   |
; 523  :  |                                                                           |
; 524  :  |   Return Value :                                                          |
; 525  :  |                                                                           |
; 526  :  |    var_out                                                                |
; 527  :  |             16 bit short signed integer (Word16) whose value falls in the |
; 528  :  |             range : 0xffff 8000 <= var_out <= 0x0000 7fff.                |
; 529  :  |___________________________________________________________________________|
; 530  : */
; 531  : 
; 532  : Word16 negate (Word16 var1)
; 533  : {
; 534  :     Word16 var_out;
; 535  : 
; 536  :     var_out = (var1 == MIN_16) ? MAX_16 : -var1;
; 537  : #if (WMOPS)
; 538  :     multiCounter[currCounter].negate++;
; 539  : #endif
; 540  :     return (var_out);
; 541  : }
; 542  : 
; 543  : /*___________________________________________________________________________
; 544  :  |                                                                           |
; 545  :  |   Function Name : extract_h                                               |
; 546  :  |                                                                           |
; 547  :  |   Purpose :                                                               |
; 548  :  |                                                                           |
; 549  :  |   Return the 16 MSB of L_var1.                                            |
; 550  :  |                                                                           |
; 551  :  |   Complexity weight : 1                                                   |
; 552  :  |                                                                           |
; 553  :  |   Inputs :                                                                |
; 554  :  |                                                                           |
; 555  :  |    L_var1                                                                 |
; 556  :  |             32 bit long signed integer (Word32 ) whose value falls in the |
; 557  :  |             range : 0x8000 0000 <= L_var1 <= 0x7fff ffff.                 |
; 558  :  |                                                                           |
; 559  :  |   Outputs :                                                               |
; 560  :  |                                                                           |
; 561  :  |    none                                                                   |
; 562  :  |                                                                           |
; 563  :  |   Return Value :                                                          |
; 564  :  |                                                                           |
; 565  :  |    var_out                                                                |
; 566  :  |             16 bit short signed integer (Word16) whose value falls in the |
; 567  :  |             range : 0xffff 8000 <= var_out <= 0x0000 7fff.                |
; 568  :  |___________________________________________________________________________|
; 569  : */
; 570  : 
; 571  : Word16 extract_h (Word32 L_var1)
; 572  : {
; 573  :     Word16 var_out;
; 574  : 
; 575  :     var_out = (Word16) (L_var1 >> 16);

  00026	8b c2		 mov	 eax, edx
  00028	c1 f8 10	 sar	 eax, 16			; 00000010H
; File e:\mywork\client\pc2.0trunk\pc2.0\third_party\libamrplayer\amr\pow2.c

; 68   :     i = extract_h (L_x);        /* Extract b10-b16 of fraction */

  0002b	0f b7 c0	 movzx	 eax, ax
; File e:\mywork\client\pc2.0trunk\pc2.0\third_party\libamrplayer\amr\basicop2.c

; 1437 :             if (L_var1 < 0)

  0002e	85 d2		 test	 edx, edx
  00030	79 08		 jns	 SHORT $LN10@Pow2

; 1438 :             {
; 1439 :                 L_var_out = ~((~L_var1) >> var2);

  00032	f7 d2		 not	 edx
  00034	d1 fa		 sar	 edx, 1
  00036	f7 d2		 not	 edx

; 1440 :             }
; 1441 :             else

  00038	eb 02		 jmp	 SHORT $LN9@Pow2
$LN10@Pow2:

; 1442 :             {
; 1443 :                 L_var_out = L_var1 >> var2;

  0003a	d1 fa		 sar	 edx, 1
$LN9@Pow2:
; File e:\mywork\client\pc2.0trunk\pc2.0\third_party\libamrplayer\amr\pow2.c

; 73   :     L_x = L_deposit_h (table[i]);       /* table[i] << 16        */

  0003c	98		 cwde
  0003d	81 e2 ff 7f 00
	00		 and	 edx, 32767		; 00007fffH
; File e:\mywork\client\pc2.0trunk\pc2.0\third_party\libamrplayer\amr\basicop2.c

; 1675 :     L_var_out = (Word32) var1 << 16;

  00043	0f bf 0c 45 00
	00 00 00	 movsx	 ecx, WORD PTR _table[eax*2]

; 92   : #if (WMOPS)
; 93   :         multiCounter[currCounter].extract_l--;
; 94   : #endif
; 95   :     }
; 96   : 
; 97   :     return (var_out);
; 98   : }
; 99   : 
; 100  : /*___________________________________________________________________________
; 101  :  |                                                                           |
; 102  :  |   Function Name : add                                                     |
; 103  :  |                                                                           |
; 104  :  |   Purpose :                                                               |
; 105  :  |                                                                           |
; 106  :  |    Performs the addition (var1+var2) with overflow control and saturation;|
; 107  :  |    the 16 bit result is set at +32767 when overflow occurs or at -32768   |
; 108  :  |    when underflow occurs.                                                 |
; 109  :  |                                                                           |
; 110  :  |   Complexity weight : 1                                                   |
; 111  :  |                                                                           |
; 112  :  |   Inputs :                                                                |
; 113  :  |                                                                           |
; 114  :  |    var1                                                                   |
; 115  :  |             16 bit short signed integer (Word16) whose value falls in the |
; 116  :  |             range : 0xffff 8000 <= var1 <= 0x0000 7fff.                   |
; 117  :  |                                                                           |
; 118  :  |    var2                                                                   |
; 119  :  |             16 bit short signed integer (Word16) whose value falls in the |
; 120  :  |             range : 0xffff 8000 <= var1 <= 0x0000 7fff.                   |
; 121  :  |                                                                           |
; 122  :  |   Outputs :                                                               |
; 123  :  |                                                                           |
; 124  :  |    none                                                                   |
; 125  :  |                                                                           |
; 126  :  |   Return Value :                                                          |
; 127  :  |                                                                           |
; 128  :  |    var_out                                                                |
; 129  :  |             16 bit short signed integer (Word16) whose value falls in the |
; 130  :  |             range : 0xffff 8000 <= var_out <= 0x0000 7fff.                |
; 131  :  |___________________________________________________________________________|
; 132  : */
; 133  : 
; 134  : Word16 add (Word16 var1, Word16 var2)
; 135  : {
; 136  :     Word16 var_out;
; 137  :     Word32 L_sum;
; 138  : 
; 139  :     L_sum = (Word32) var1 + var2;
; 140  :     var_out = saturate (L_sum);
; 141  : #if (WMOPS)
; 142  :     multiCounter[currCounter].add++;
; 143  : #endif
; 144  :     return (var_out);
; 145  : }
; 146  : 
; 147  : /*___________________________________________________________________________
; 148  :  |                                                                           |
; 149  :  |   Function Name : sub                                                     |
; 150  :  |                                                                           |
; 151  :  |   Purpose :                                                               |
; 152  :  |                                                                           |
; 153  :  |    Performs the subtraction (var1+var2) with overflow control and satu-   |
; 154  :  |    ration; the 16 bit result is set at +32767 when overflow occurs or at  |
; 155  :  |    -32768 when underflow occurs.                                          |
; 156  :  |                                                                           |
; 157  :  |   Complexity weight : 1                                                   |
; 158  :  |                                                                           |
; 159  :  |   Inputs :                                                                |
; 160  :  |                                                                           |
; 161  :  |    var1                                                                   |
; 162  :  |             16 bit short signed integer (Word16) whose value falls in the |
; 163  :  |             range : 0xffff 8000 <= var1 <= 0x0000 7fff.                   |
; 164  :  |                                                                           |
; 165  :  |    var2                                                                   |
; 166  :  |             16 bit short signed integer (Word16) whose value falls in the |
; 167  :  |             range : 0xffff 8000 <= var1 <= 0x0000 7fff.                   |
; 168  :  |                                                                           |
; 169  :  |   Outputs :                                                               |
; 170  :  |                                                                           |
; 171  :  |    none                                                                   |
; 172  :  |                                                                           |
; 173  :  |   Return Value :                                                          |
; 174  :  |                                                                           |
; 175  :  |    var_out                                                                |
; 176  :  |             16 bit short signed integer (Word16) whose value falls in the |
; 177  :  |             range : 0xffff 8000 <= var_out <= 0x0000 7fff.                |
; 178  :  |___________________________________________________________________________|
; 179  : */
; 180  : 
; 181  : Word16 sub (Word16 var1, Word16 var2)
; 182  : {
; 183  :     Word16 var_out;
; 184  :     Word32 L_diff;
; 185  : 
; 186  :     L_diff = (Word32) var1 - var2;

  0004b	0f bf 04 45 02
	00 00 00	 movsx	 eax, WORD PTR _table[eax*2+2]

; 1675 :     L_var_out = (Word32) var1 << 16;

  00053	8b f1		 mov	 esi, ecx

; 92   : #if (WMOPS)
; 93   :         multiCounter[currCounter].extract_l--;
; 94   : #endif
; 95   :     }
; 96   : 
; 97   :     return (var_out);
; 98   : }
; 99   : 
; 100  : /*___________________________________________________________________________
; 101  :  |                                                                           |
; 102  :  |   Function Name : add                                                     |
; 103  :  |                                                                           |
; 104  :  |   Purpose :                                                               |
; 105  :  |                                                                           |
; 106  :  |    Performs the addition (var1+var2) with overflow control and saturation;|
; 107  :  |    the 16 bit result is set at +32767 when overflow occurs or at -32768   |
; 108  :  |    when underflow occurs.                                                 |
; 109  :  |                                                                           |
; 110  :  |   Complexity weight : 1                                                   |
; 111  :  |                                                                           |
; 112  :  |   Inputs :                                                                |
; 113  :  |                                                                           |
; 114  :  |    var1                                                                   |
; 115  :  |             16 bit short signed integer (Word16) whose value falls in the |
; 116  :  |             range : 0xffff 8000 <= var1 <= 0x0000 7fff.                   |
; 117  :  |                                                                           |
; 118  :  |    var2                                                                   |
; 119  :  |             16 bit short signed integer (Word16) whose value falls in the |
; 120  :  |             range : 0xffff 8000 <= var1 <= 0x0000 7fff.                   |
; 121  :  |                                                                           |
; 122  :  |   Outputs :                                                               |
; 123  :  |                                                                           |
; 124  :  |    none                                                                   |
; 125  :  |                                                                           |
; 126  :  |   Return Value :                                                          |
; 127  :  |                                                                           |
; 128  :  |    var_out                                                                |
; 129  :  |             16 bit short signed integer (Word16) whose value falls in the |
; 130  :  |             range : 0xffff 8000 <= var_out <= 0x0000 7fff.                |
; 131  :  |___________________________________________________________________________|
; 132  : */
; 133  : 
; 134  : Word16 add (Word16 var1, Word16 var2)
; 135  : {
; 136  :     Word16 var_out;
; 137  :     Word32 L_sum;
; 138  : 
; 139  :     L_sum = (Word32) var1 + var2;
; 140  :     var_out = saturate (L_sum);
; 141  : #if (WMOPS)
; 142  :     multiCounter[currCounter].add++;
; 143  : #endif
; 144  :     return (var_out);
; 145  : }
; 146  : 
; 147  : /*___________________________________________________________________________
; 148  :  |                                                                           |
; 149  :  |   Function Name : sub                                                     |
; 150  :  |                                                                           |
; 151  :  |   Purpose :                                                               |
; 152  :  |                                                                           |
; 153  :  |    Performs the subtraction (var1+var2) with overflow control and satu-   |
; 154  :  |    ration; the 16 bit result is set at +32767 when overflow occurs or at  |
; 155  :  |    -32768 when underflow occurs.                                          |
; 156  :  |                                                                           |
; 157  :  |   Complexity weight : 1                                                   |
; 158  :  |                                                                           |
; 159  :  |   Inputs :                                                                |
; 160  :  |                                                                           |
; 161  :  |    var1                                                                   |
; 162  :  |             16 bit short signed integer (Word16) whose value falls in the |
; 163  :  |             range : 0xffff 8000 <= var1 <= 0x0000 7fff.                   |
; 164  :  |                                                                           |
; 165  :  |    var2                                                                   |
; 166  :  |             16 bit short signed integer (Word16) whose value falls in the |
; 167  :  |             range : 0xffff 8000 <= var1 <= 0x0000 7fff.                   |
; 168  :  |                                                                           |
; 169  :  |   Outputs :                                                               |
; 170  :  |                                                                           |
; 171  :  |    none                                                                   |
; 172  :  |                                                                           |
; 173  :  |   Return Value :                                                          |
; 174  :  |                                                                           |
; 175  :  |    var_out                                                                |
; 176  :  |             16 bit short signed integer (Word16) whose value falls in the |
; 177  :  |             range : 0xffff 8000 <= var_out <= 0x0000 7fff.                |
; 178  :  |___________________________________________________________________________|
; 179  : */
; 180  : 
; 181  : Word16 sub (Word16 var1, Word16 var2)
; 182  : {
; 183  :     Word16 var_out;
; 184  :     Word32 L_diff;
; 185  : 
; 186  :     L_diff = (Word32) var1 - var2;

  00055	2b c8		 sub	 ecx, eax

; 1675 :     L_var_out = (Word32) var1 << 16;

  00057	c1 e6 10	 shl	 esi, 16			; 00000010H

; 79   :     if (L_var1 > 0X00007fffL)

  0005a	81 f9 ff 7f 00
	00		 cmp	 ecx, 32767		; 00007fffH
  00060	7e 11		 jle	 SHORT $LN29@Pow2

; 80   :     {
; 81   :         Overflow = 1;

  00062	c7 05 00 00 00
	00 01 00 00 00	 mov	 DWORD PTR _Overflow, 1

; 82   :         var_out = MAX_16;

  0006c	b8 ff 7f 00 00	 mov	 eax, 32767		; 00007fffH
  00071	eb 1c		 jmp	 SHORT $LN26@Pow2
$LN29@Pow2:

; 84   :     else if (L_var1 < (Word32) 0xffff8000L)

  00073	81 f9 00 80 ff
	ff		 cmp	 ecx, -32768		; ffff8000H
  00079	7d 11		 jge	 SHORT $LN27@Pow2

; 85   :     {
; 86   :         Overflow = 1;

  0007b	c7 05 00 00 00
	00 01 00 00 00	 mov	 DWORD PTR _Overflow, 1

; 87   :         var_out = MIN_16;

  00085	b8 00 80 ff ff	 mov	 eax, -32768		; ffff8000H

; 88   :     }
; 89   :     else

  0008a	eb 03		 jmp	 SHORT $LN26@Pow2
$LN27@Pow2:

; 91   :         var_out = extract_l (L_var1);

  0008c	0f b7 c1	 movzx	 eax, cx
$LN26@Pow2:

; 485  :     L_var_out = (Word32) var1 *(Word32) var2;

  0008f	0f bf c8	 movsx	 ecx, ax
  00092	0f bf c2	 movsx	 eax, dx
  00095	0f af c8	 imul	 ecx, eax

; 487  :     if (L_var_out != (Word32) 0x40000000L)

  00098	81 f9 00 00 00
	40		 cmp	 ecx, 1073741824		; 40000000H
  0009e	74 05		 je	 SHORT $LN37@Pow2

; 488  :     {
; 489  :         L_var_out *= 2;

  000a0	8d 04 09	 lea	 eax, DWORD PTR [ecx+ecx]

; 490  :     }
; 491  :     else

  000a3	eb 0f		 jmp	 SHORT $LN36@Pow2
$LN37@Pow2:

; 492  :     {
; 493  :         Overflow = 1;

  000a5	c7 05 00 00 00
	00 01 00 00 00	 mov	 DWORD PTR _Overflow, 1

; 494  :         L_var_out = MAX_32;

  000af	b8 ff ff ff 7f	 mov	 eax, 2147483647		; 7fffffffH
$LN36@Pow2:

; 576  : #if (WMOPS)
; 577  :     multiCounter[currCounter].extract_h++;
; 578  : #endif
; 579  :     return (var_out);
; 580  : }
; 581  : 
; 582  : /*___________________________________________________________________________
; 583  :  |                                                                           |
; 584  :  |   Function Name : extract_l                                               |
; 585  :  |                                                                           |
; 586  :  |   Purpose :                                                               |
; 587  :  |                                                                           |
; 588  :  |   Return the 16 LSB of L_var1.                                            |
; 589  :  |                                                                           |
; 590  :  |   Complexity weight : 1                                                   |
; 591  :  |                                                                           |
; 592  :  |   Inputs :                                                                |
; 593  :  |                                                                           |
; 594  :  |    L_var1                                                                 |
; 595  :  |             32 bit long signed integer (Word32 ) whose value falls in the |
; 596  :  |             range : 0x8000 0000 <= L_var1 <= 0x7fff ffff.                 |
; 597  :  |                                                                           |
; 598  :  |   Outputs :                                                               |
; 599  :  |                                                                           |
; 600  :  |    none                                                                   |
; 601  :  |                                                                           |
; 602  :  |   Return Value :                                                          |
; 603  :  |                                                                           |
; 604  :  |    var_out                                                                |
; 605  :  |             16 bit short signed integer (Word16) whose value falls in the |
; 606  :  |             range : 0xffff 8000 <= var_out <= 0x0000 7fff.                |
; 607  :  |___________________________________________________________________________|
; 608  : */
; 609  : 
; 610  : Word16 extract_l (Word32 L_var1)
; 611  : {
; 612  :     Word16 var_out;
; 613  : 
; 614  :     var_out = (Word16) L_var1;
; 615  : #if (WMOPS)
; 616  :     multiCounter[currCounter].extract_l++;
; 617  : #endif
; 618  :     return (var_out);
; 619  : }
; 620  : 
; 621  : /*___________________________________________________________________________
; 622  :  |                                                                           |
; 623  :  |   Function Name : round                                                   |
; 624  :  |                                                                           |
; 625  :  |   Purpose :                                                               |
; 626  :  |                                                                           |
; 627  :  |   Round the lower 16 bits of the 32 bit input number into the MS 16 bits  |
; 628  :  |   with saturation. Shift the resulting bits right by 16 and return the 16 |
; 629  :  |   bit number:                                                             |
; 630  :  |               round(L_var1) = extract_h(L_add(L_var1,32768))              |
; 631  :  |                                                                           |
; 632  :  |   Complexity weight : 1                                                   |
; 633  :  |                                                                           |
; 634  :  |   Inputs :                                                                |
; 635  :  |                                                                           |
; 636  :  |    L_var1                                                                 |
; 637  :  |             32 bit long signed integer (Word32 ) whose value falls in the |
; 638  :  |             range : 0x8000 0000 <= L_var1 <= 0x7fff ffff.                 |
; 639  :  |                                                                           |
; 640  :  |   Outputs :                                                               |
; 641  :  |                                                                           |
; 642  :  |    none                                                                   |
; 643  :  |                                                                           |
; 644  :  |   Return Value :                                                          |
; 645  :  |                                                                           |
; 646  :  |    var_out                                                                |
; 647  :  |             16 bit short signed integer (Word16) whose value falls in the |
; 648  :  |             range : 0xffff 8000 <= var_out <= 0x0000 7fff.                |
; 649  :  |___________________________________________________________________________|
; 650  : */
; 651  : 
; 652  : Word16 round (Word32 L_var1)
; 653  : {
; 654  :     Word16 var_out;
; 655  :     Word32 L_rounded;
; 656  : 
; 657  :     L_rounded = L_add (L_var1, (Word32) 0x00008000L);
; 658  : #if (WMOPS)
; 659  :     multiCounter[currCounter].L_add--;
; 660  : #endif
; 661  :     var_out = extract_h (L_rounded);
; 662  : #if (WMOPS)
; 663  :     multiCounter[currCounter].extract_h--;
; 664  :     multiCounter[currCounter].round++;
; 665  : #endif
; 666  :     return (var_out);
; 667  : }
; 668  : 
; 669  : /*___________________________________________________________________________
; 670  :  |                                                                           |
; 671  :  |   Function Name : L_mac                                                   |
; 672  :  |                                                                           |
; 673  :  |   Purpose :                                                               |
; 674  :  |                                                                           |
; 675  :  |   Multiply var1 by var2 and shift the result left by 1. Add the 32 bit    |
; 676  :  |   result to L_var3 with saturation, return a 32 bit result:               |
; 677  :  |        L_mac(L_var3,var1,var2) = L_add(L_var3,L_mult(var1,var2)).         |
; 678  :  |                                                                           |
; 679  :  |   Complexity weight : 1                                                   |
; 680  :  |                                                                           |
; 681  :  |   Inputs :                                                                |
; 682  :  |                                                                           |
; 683  :  |    L_var3   32 bit long signed integer (Word32) whose value falls in the  |
; 684  :  |             range : 0x8000 0000 <= L_var3 <= 0x7fff ffff.                 |
; 685  :  |                                                                           |
; 686  :  |    var1                                                                   |
; 687  :  |             16 bit short signed integer (Word16) whose value falls in the |
; 688  :  |             range : 0xffff 8000 <= var1 <= 0x0000 7fff.                   |
; 689  :  |                                                                           |
; 690  :  |    var2                                                                   |
; 691  :  |             16 bit short signed integer (Word16) whose value falls in the |
; 692  :  |             range : 0xffff 8000 <= var1 <= 0x0000 7fff.                   |
; 693  :  |                                                                           |
; 694  :  |   Outputs :                                                               |
; 695  :  |                                                                           |
; 696  :  |    none                                                                   |
; 697  :  |                                                                           |
; 698  :  |   Return Value :                                                          |
; 699  :  |                                                                           |
; 700  :  |    L_var_out                                                              |
; 701  :  |             32 bit long signed integer (Word32) whose value falls in the  |
; 702  :  |             range : 0x8000 0000 <= L_var_out <= 0x7fff ffff.              |
; 703  :  |___________________________________________________________________________|
; 704  : */
; 705  : 
; 706  : Word32 L_mac (Word32 L_var3, Word16 var1, Word16 var2)
; 707  : {
; 708  :     Word32 L_var_out;
; 709  :     Word32 L_product;
; 710  : 
; 711  :     L_product = L_mult (var1, var2);
; 712  : #if (WMOPS)
; 713  :     multiCounter[currCounter].L_mult--;
; 714  : #endif
; 715  :     L_var_out = L_add (L_var3, L_product);
; 716  : #if (WMOPS)
; 717  :     multiCounter[currCounter].L_add--;
; 718  :     multiCounter[currCounter].L_mac++;
; 719  : #endif
; 720  :     return (L_var_out);
; 721  : }
; 722  : 
; 723  : /*___________________________________________________________________________
; 724  :  |                                                                           |
; 725  :  |   Function Name : L_msu                                                   |
; 726  :  |                                                                           |
; 727  :  |   Purpose :                                                               |
; 728  :  |                                                                           |
; 729  :  |   Multiply var1 by var2 and shift the result left by 1. Subtract the 32   |
; 730  :  |   bit result to L_var3 with saturation, return a 32 bit result:           |
; 731  :  |        L_msu(L_var3,var1,var2) = L_sub(L_var3,L_mult(var1,var2)).         |
; 732  :  |                                                                           |
; 733  :  |   Complexity weight : 1                                                   |
; 734  :  |                                                                           |
; 735  :  |   Inputs :                                                                |
; 736  :  |                                                                           |
; 737  :  |    L_var3   32 bit long signed integer (Word32) whose value falls in the  |
; 738  :  |             range : 0x8000 0000 <= L_var3 <= 0x7fff ffff.                 |
; 739  :  |                                                                           |
; 740  :  |    var1                                                                   |
; 741  :  |             16 bit short signed integer (Word16) whose value falls in the |
; 742  :  |             range : 0xffff 8000 <= var1 <= 0x0000 7fff.                   |
; 743  :  |                                                                           |
; 744  :  |    var2                                                                   |
; 745  :  |             16 bit short signed integer (Word16) whose value falls in the |
; 746  :  |             range : 0xffff 8000 <= var1 <= 0x0000 7fff.                   |
; 747  :  |                                                                           |
; 748  :  |   Outputs :                                                               |
; 749  :  |                                                                           |
; 750  :  |    none                                                                   |
; 751  :  |                                                                           |
; 752  :  |   Return Value :                                                          |
; 753  :  |                                                                           |
; 754  :  |    L_var_out                                                              |
; 755  :  |             32 bit long signed integer (Word32) whose value falls in the  |
; 756  :  |             range : 0x8000 0000 <= L_var_out <= 0x7fff ffff.              |
; 757  :  |___________________________________________________________________________|
; 758  : */
; 759  : 
; 760  : Word32 L_msu (Word32 L_var3, Word16 var1, Word16 var2)
; 761  : {
; 762  :     Word32 L_var_out;
; 763  :     Word32 L_product;
; 764  : 
; 765  :     L_product = L_mult (var1, var2);
; 766  : #if (WMOPS)
; 767  :     multiCounter[currCounter].L_mult--;
; 768  : #endif
; 769  :     L_var_out = L_sub (L_var3, L_product);
; 770  : #if (WMOPS)
; 771  :     multiCounter[currCounter].L_sub--;
; 772  :     multiCounter[currCounter].L_msu++;
; 773  : #endif
; 774  :     return (L_var_out);
; 775  : }
; 776  : 
; 777  : /*___________________________________________________________________________
; 778  :  |                                                                           |
; 779  :  |   Function Name : L_macNs                                                 |
; 780  :  |                                                                           |
; 781  :  |   Purpose :                                                               |
; 782  :  |                                                                           |
; 783  :  |   Multiply var1 by var2 and shift the result left by 1. Add the 32 bit    |
; 784  :  |   result to L_var3 without saturation, return a 32 bit result. Generate   |
; 785  :  |   carry and overflow values :                                             |
; 786  :  |        L_macNs(L_var3,var1,var2) = L_add_c(L_var3,L_mult(var1,var2)).     |
; 787  :  |                                                                           |
; 788  :  |   Complexity weight : 1                                                   |
; 789  :  |                                                                           |
; 790  :  |   Inputs :                                                                |
; 791  :  |                                                                           |
; 792  :  |    L_var3   32 bit long signed integer (Word32) whose value falls in the  |
; 793  :  |             range : 0x8000 0000 <= L_var3 <= 0x7fff ffff.                 |
; 794  :  |                                                                           |
; 795  :  |    var1                                                                   |
; 796  :  |             16 bit short signed integer (Word16) whose value falls in the |
; 797  :  |             range : 0xffff 8000 <= var1 <= 0x0000 7fff.                   |
; 798  :  |                                                                           |
; 799  :  |    var2                                                                   |
; 800  :  |             16 bit short signed integer (Word16) whose value falls in the |
; 801  :  |             range : 0xffff 8000 <= var1 <= 0x0000 7fff.                   |
; 802  :  |                                                                           |
; 803  :  |   Outputs :                                                               |
; 804  :  |                                                                           |
; 805  :  |    none                                                                   |
; 806  :  |                                                                           |
; 807  :  |   Return Value :                                                          |
; 808  :  |                                                                           |
; 809  :  |    L_var_out                                                              |
; 810  :  |             32 bit long signed integer (Word32) whose value falls in the  |
; 811  :  |             range : 0x8000 0000 <= L_var_out <= 0x7fff ffff.              |
; 812  :  |                                                                           |
; 813  :  |   Caution :                                                               |
; 814  :  |                                                                           |
; 815  :  |    In some cases the Carry flag has to be cleared or set before using     |
; 816  :  |    operators which take into account its value.                           |
; 817  :  |___________________________________________________________________________|
; 818  : */
; 819  : 
; 820  : Word32 L_macNs (Word32 L_var3, Word16 var1, Word16 var2)
; 821  : {
; 822  :     Word32 L_var_out;
; 823  : 
; 824  :     L_var_out = L_mult (var1, var2);
; 825  : #if (WMOPS)
; 826  :     multiCounter[currCounter].L_mult--;
; 827  : #endif
; 828  :     L_var_out = L_add_c (L_var3, L_var_out);
; 829  : #if (WMOPS)
; 830  :     multiCounter[currCounter].L_add_c--;
; 831  :     multiCounter[currCounter].L_macNs++;
; 832  : #endif
; 833  :     return (L_var_out);
; 834  : }
; 835  : 
; 836  : /*___________________________________________________________________________
; 837  :  |                                                                           |
; 838  :  |   Function Name : L_msuNs                                                 |
; 839  :  |                                                                           |
; 840  :  |   Purpose :                                                               |
; 841  :  |                                                                           |
; 842  :  |   Multiply var1 by var2 and shift the result left by 1. Subtract the 32   |
; 843  :  |   bit result from L_var3 without saturation, return a 32 bit result. Ge-  |
; 844  :  |   nerate carry and overflow values :                                      |
; 845  :  |        L_msuNs(L_var3,var1,var2) = L_sub_c(L_var3,L_mult(var1,var2)).     |
; 846  :  |                                                                           |
; 847  :  |   Complexity weight : 1                                                   |
; 848  :  |                                                                           |
; 849  :  |   Inputs :                                                                |
; 850  :  |                                                                           |
; 851  :  |    L_var3   32 bit long signed integer (Word32) whose value falls in the  |
; 852  :  |             range : 0x8000 0000 <= L_var3 <= 0x7fff ffff.                 |
; 853  :  |                                                                           |
; 854  :  |    var1                                                                   |
; 855  :  |             16 bit short signed integer (Word16) whose value falls in the |
; 856  :  |             range : 0xffff 8000 <= var1 <= 0x0000 7fff.                   |
; 857  :  |                                                                           |
; 858  :  |    var2                                                                   |
; 859  :  |             16 bit short signed integer (Word16) whose value falls in the |
; 860  :  |             range : 0xffff 8000 <= var1 <= 0x0000 7fff.                   |
; 861  :  |                                                                           |
; 862  :  |   Outputs :                                                               |
; 863  :  |                                                                           |
; 864  :  |    none                                                                   |
; 865  :  |                                                                           |
; 866  :  |   Return Value :                                                          |
; 867  :  |                                                                           |
; 868  :  |    L_var_out                                                              |
; 869  :  |             32 bit long signed integer (Word32) whose value falls in the  |
; 870  :  |             range : 0x8000 0000 <= L_var_out <= 0x7fff ffff.              |
; 871  :  |                                                                           |
; 872  :  |   Caution :                                                               |
; 873  :  |                                                                           |
; 874  :  |    In some cases the Carry flag has to be cleared or set before using     |
; 875  :  |    operators which take into account its value.                           |
; 876  :  |___________________________________________________________________________|
; 877  : */
; 878  : 
; 879  : Word32 L_msuNs (Word32 L_var3, Word16 var1, Word16 var2)
; 880  : {
; 881  :     Word32 L_var_out;
; 882  : 
; 883  :     L_var_out = L_mult (var1, var2);
; 884  : #if (WMOPS)
; 885  :     multiCounter[currCounter].L_mult--;
; 886  : #endif
; 887  :     L_var_out = L_sub_c (L_var3, L_var_out);
; 888  : #if (WMOPS)
; 889  :     multiCounter[currCounter].L_sub_c--;
; 890  :     multiCounter[currCounter].L_msuNs++;
; 891  : #endif
; 892  :     return (L_var_out);
; 893  : }
; 894  : 
; 895  : /*___________________________________________________________________________
; 896  :  |                                                                           |
; 897  :  |   Function Name : L_add                                                   |
; 898  :  |                                                                           |
; 899  :  |   Purpose :                                                               |
; 900  :  |                                                                           |
; 901  :  |   32 bits addition of the two 32 bits variables (L_var1+L_var2) with      |
; 902  :  |   overflow control and saturation; the result is set at +2147483647 when  |
; 903  :  |   overflow occurs or at -2147483648 when underflow occurs.                |
; 904  :  |                                                                           |
; 905  :  |   Complexity weight : 2                                                   |
; 906  :  |                                                                           |
; 907  :  |   Inputs :                                                                |
; 908  :  |                                                                           |
; 909  :  |    L_var1   32 bit long signed integer (Word32) whose value falls in the  |
; 910  :  |             range : 0x8000 0000 <= L_var3 <= 0x7fff ffff.                 |
; 911  :  |                                                                           |
; 912  :  |    L_var2   32 bit long signed integer (Word32) whose value falls in the  |
; 913  :  |             range : 0x8000 0000 <= L_var3 <= 0x7fff ffff.                 |
; 914  :  |                                                                           |
; 915  :  |   Outputs :                                                               |
; 916  :  |                                                                           |
; 917  :  |    none                                                                   |
; 918  :  |                                                                           |
; 919  :  |   Return Value :                                                          |
; 920  :  |                                                                           |
; 921  :  |    L_var_out                                                              |
; 922  :  |             32 bit long signed integer (Word32) whose value falls in the  |
; 923  :  |             range : 0x8000 0000 <= L_var_out <= 0x7fff ffff.              |
; 924  :  |___________________________________________________________________________|
; 925  : */
; 926  : 
; 927  : Word32 L_add (Word32 L_var1, Word32 L_var2)
; 928  : {
; 929  :     Word32 L_var_out;
; 930  : 
; 931  :     L_var_out = L_var1 + L_var2;
; 932  : 
; 933  :     if (((L_var1 ^ L_var2) & MIN_32) == 0)
; 934  :     {
; 935  :         if ((L_var_out ^ L_var1) & MIN_32)
; 936  :         {
; 937  :             L_var_out = (L_var1 < 0) ? MIN_32 : MAX_32;
; 938  :             Overflow = 1;
; 939  :         }
; 940  :     }
; 941  : #if (WMOPS)
; 942  :     multiCounter[currCounter].L_add++;
; 943  : #endif
; 944  :     return (L_var_out);
; 945  : }
; 946  : 
; 947  : /*___________________________________________________________________________
; 948  :  |                                                                           |
; 949  :  |   Function Name : L_sub                                                   |
; 950  :  |                                                                           |
; 951  :  |   Purpose :                                                               |
; 952  :  |                                                                           |
; 953  :  |   32 bits subtraction of the two 32 bits variables (L_var1-L_var2) with   |
; 954  :  |   overflow control and saturation; the result is set at +2147483647 when  |
; 955  :  |   overflow occurs or at -2147483648 when underflow occurs.                |
; 956  :  |                                                                           |
; 957  :  |   Complexity weight : 2                                                   |
; 958  :  |                                                                           |
; 959  :  |   Inputs :                                                                |
; 960  :  |                                                                           |
; 961  :  |    L_var1   32 bit long signed integer (Word32) whose value falls in the  |
; 962  :  |             range : 0x8000 0000 <= L_var3 <= 0x7fff ffff.                 |
; 963  :  |                                                                           |
; 964  :  |    L_var2   32 bit long signed integer (Word32) whose value falls in the  |
; 965  :  |             range : 0x8000 0000 <= L_var3 <= 0x7fff ffff.                 |
; 966  :  |                                                                           |
; 967  :  |   Outputs :                                                               |
; 968  :  |                                                                           |
; 969  :  |    none                                                                   |
; 970  :  |                                                                           |
; 971  :  |   Return Value :                                                          |
; 972  :  |                                                                           |
; 973  :  |    L_var_out                                                              |
; 974  :  |             32 bit long signed integer (Word32) whose value falls in the  |
; 975  :  |             range : 0x8000 0000 <= L_var_out <= 0x7fff ffff.              |
; 976  :  |___________________________________________________________________________|
; 977  : */
; 978  : 
; 979  : Word32 L_sub (Word32 L_var1, Word32 L_var2)
; 980  : {
; 981  :     Word32 L_var_out;
; 982  : 
; 983  :     L_var_out = L_var1 - L_var2;

  000b4	8b ce		 mov	 ecx, esi
  000b6	2b c8		 sub	 ecx, eax

; 984  : 
; 985  :     if (((L_var1 ^ L_var2) & MIN_32) != 0)

  000b8	33 c6		 xor	 eax, esi
  000ba	79 1d		 jns	 SHORT $LN40@Pow2

; 986  :     {
; 987  :         if ((L_var_out ^ L_var1) & MIN_32)

  000bc	8b c1		 mov	 eax, ecx
  000be	33 c6		 xor	 eax, esi
  000c0	79 17		 jns	 SHORT $LN40@Pow2

; 988  :         {
; 989  :             L_var_out = (L_var1 < 0L) ? MIN_32 : MAX_32;

  000c2	33 c9		 xor	 ecx, ecx

; 990  :             Overflow = 1;

  000c4	c7 05 00 00 00
	00 01 00 00 00	 mov	 DWORD PTR _Overflow, 1
  000ce	85 f6		 test	 esi, esi
  000d0	0f 98 c1	 sets	 cl
  000d3	81 c1 ff ff ff
	7f		 add	 ecx, 2147483647		; 7fffffffH
$LN40@Pow2:

; 92   : #if (WMOPS)
; 93   :         multiCounter[currCounter].extract_l--;
; 94   : #endif
; 95   :     }
; 96   : 
; 97   :     return (var_out);
; 98   : }
; 99   : 
; 100  : /*___________________________________________________________________________
; 101  :  |                                                                           |
; 102  :  |   Function Name : add                                                     |
; 103  :  |                                                                           |
; 104  :  |   Purpose :                                                               |
; 105  :  |                                                                           |
; 106  :  |    Performs the addition (var1+var2) with overflow control and saturation;|
; 107  :  |    the 16 bit result is set at +32767 when overflow occurs or at -32768   |
; 108  :  |    when underflow occurs.                                                 |
; 109  :  |                                                                           |
; 110  :  |   Complexity weight : 1                                                   |
; 111  :  |                                                                           |
; 112  :  |   Inputs :                                                                |
; 113  :  |                                                                           |
; 114  :  |    var1                                                                   |
; 115  :  |             16 bit short signed integer (Word16) whose value falls in the |
; 116  :  |             range : 0xffff 8000 <= var1 <= 0x0000 7fff.                   |
; 117  :  |                                                                           |
; 118  :  |    var2                                                                   |
; 119  :  |             16 bit short signed integer (Word16) whose value falls in the |
; 120  :  |             range : 0xffff 8000 <= var1 <= 0x0000 7fff.                   |
; 121  :  |                                                                           |
; 122  :  |   Outputs :                                                               |
; 123  :  |                                                                           |
; 124  :  |    none                                                                   |
; 125  :  |                                                                           |
; 126  :  |   Return Value :                                                          |
; 127  :  |                                                                           |
; 128  :  |    var_out                                                                |
; 129  :  |             16 bit short signed integer (Word16) whose value falls in the |
; 130  :  |             range : 0xffff 8000 <= var_out <= 0x0000 7fff.                |
; 131  :  |___________________________________________________________________________|
; 132  : */
; 133  : 
; 134  : Word16 add (Word16 var1, Word16 var2)
; 135  : {
; 136  :     Word16 var_out;
; 137  :     Word32 L_sum;
; 138  : 
; 139  :     L_sum = (Word32) var1 + var2;
; 140  :     var_out = saturate (L_sum);
; 141  : #if (WMOPS)
; 142  :     multiCounter[currCounter].add++;
; 143  : #endif
; 144  :     return (var_out);
; 145  : }
; 146  : 
; 147  : /*___________________________________________________________________________
; 148  :  |                                                                           |
; 149  :  |   Function Name : sub                                                     |
; 150  :  |                                                                           |
; 151  :  |   Purpose :                                                               |
; 152  :  |                                                                           |
; 153  :  |    Performs the subtraction (var1+var2) with overflow control and satu-   |
; 154  :  |    ration; the 16 bit result is set at +32767 when overflow occurs or at  |
; 155  :  |    -32768 when underflow occurs.                                          |
; 156  :  |                                                                           |
; 157  :  |   Complexity weight : 1                                                   |
; 158  :  |                                                                           |
; 159  :  |   Inputs :                                                                |
; 160  :  |                                                                           |
; 161  :  |    var1                                                                   |
; 162  :  |             16 bit short signed integer (Word16) whose value falls in the |
; 163  :  |             range : 0xffff 8000 <= var1 <= 0x0000 7fff.                   |
; 164  :  |                                                                           |
; 165  :  |    var2                                                                   |
; 166  :  |             16 bit short signed integer (Word16) whose value falls in the |
; 167  :  |             range : 0xffff 8000 <= var1 <= 0x0000 7fff.                   |
; 168  :  |                                                                           |
; 169  :  |   Outputs :                                                               |
; 170  :  |                                                                           |
; 171  :  |    none                                                                   |
; 172  :  |                                                                           |
; 173  :  |   Return Value :                                                          |
; 174  :  |                                                                           |
; 175  :  |    var_out                                                                |
; 176  :  |             16 bit short signed integer (Word16) whose value falls in the |
; 177  :  |             range : 0xffff 8000 <= var_out <= 0x0000 7fff.                |
; 178  :  |___________________________________________________________________________|
; 179  : */
; 180  : 
; 181  : Word16 sub (Word16 var1, Word16 var2)
; 182  : {
; 183  :     Word16 var_out;
; 184  :     Word32 L_diff;
; 185  : 
; 186  :     L_diff = (Word32) var1 - var2;

  000d9	0f bf c7	 movsx	 eax, di
  000dc	ba 1e 00 00 00	 mov	 edx, 30			; 0000001eH
  000e1	2b d0		 sub	 edx, eax
  000e3	5f		 pop	 edi
  000e4	5e		 pop	 esi

; 79   :     if (L_var1 > 0X00007fffL)

  000e5	81 fa ff 7f 00
	00		 cmp	 edx, 32767		; 00007fffH
  000eb	7e 14		 jle	 SHORT $LN49@Pow2

; 80   :     {
; 81   :         Overflow = 1;

  000ed	c7 05 00 00 00
	00 01 00 00 00	 mov	 DWORD PTR _Overflow, 1

; 82   :         var_out = MAX_16;

  000f7	ba ff 7f 00 00	 mov	 edx, 32767		; 00007fffH
; File e:\mywork\client\pc2.0trunk\pc2.0\third_party\libamrplayer\amr\pow2.c

; 78   :     L_x = L_shr_r (L_x, exp);

  000fc	e9 00 00 00 00	 jmp	 _L_shr_r
$LN49@Pow2:
; File e:\mywork\client\pc2.0trunk\pc2.0\third_party\libamrplayer\amr\basicop2.c

; 84   :     else if (L_var1 < (Word32) 0xffff8000L)

  00101	81 fa 00 80 ff
	ff		 cmp	 edx, -32768		; ffff8000H
  00107	7d 14		 jge	 SHORT $LN47@Pow2

; 85   :     {
; 86   :         Overflow = 1;

  00109	c7 05 00 00 00
	00 01 00 00 00	 mov	 DWORD PTR _Overflow, 1

; 87   :         var_out = MIN_16;

  00113	ba 00 80 ff ff	 mov	 edx, -32768		; ffff8000H
; File e:\mywork\client\pc2.0trunk\pc2.0\third_party\libamrplayer\amr\pow2.c

; 78   :     L_x = L_shr_r (L_x, exp);

  00118	e9 00 00 00 00	 jmp	 _L_shr_r
$LN47@Pow2:
; File e:\mywork\client\pc2.0trunk\pc2.0\third_party\libamrplayer\amr\basicop2.c

; 91   :         var_out = extract_l (L_var1);

  0011d	0f b7 d2	 movzx	 edx, dx
; File e:\mywork\client\pc2.0trunk\pc2.0\third_party\libamrplayer\amr\pow2.c

; 78   :     L_x = L_shr_r (L_x, exp);

  00120	e9 00 00 00 00	 jmp	 _L_shr_r
_Pow2	ENDP
_TEXT	ENDS
END
