; Listing generated by Microsoft (R) Optimizing Compiler Version 18.00.40629.0 

	TITLE	E:\mywork\client\PC2.0TRUNK\PC2.0\third_party\libAMRPlayer\AMR\set_zero.c
	.686P
	.XMM
	include listing.inc
	.model	flat

INCLUDELIB OLDNAMES

PUBLIC	_Set_zero
; Function compile flags: /Ogtp
; File e:\mywork\client\pc2.0trunk\pc2.0\third_party\libamrplayer\amr\set_zero.c
;	COMDAT _Set_zero
_TEXT	SEGMENT
_Set_zero PROC						; COMDAT
; _x$ = ecx
; _L$ = dx

; 40   :     Word16 i;
; 41   : 
; 42   :     for (i = 0; i < L; i++)

  00000	33 c0		 xor	 eax, eax
  00002	57		 push	 edi
  00003	8b f9		 mov	 edi, ecx
  00005	66 3b c2	 cmp	 ax, dx
  00008	7d 0c		 jge	 SHORT $LN3@Set_zero
  0000a	0f b7 ca	 movzx	 ecx, dx
  0000d	d1 e9		 shr	 ecx, 1
  0000f	f3 ab		 rep stosd
  00011	13 c9		 adc	 ecx, ecx
  00013	66 f3 ab	 rep stosw
$LN3@Set_zero:
  00016	5f		 pop	 edi

; 43   :     {
; 44   :         x[i] = 0;               move16 (); 
; 45   :     }
; 46   : 
; 47   :     return;
; 48   : }

  00017	c3		 ret	 0
_Set_zero ENDP
_TEXT	ENDS
END
